
/home/cyclone/Desktop/rpi_pico_jtag/Jtag_Repo/Jtag_Pico/pico/pico-examples/build/jtag_test_O/pio_jtag.elf:     file format elf32-littlearm

Sections:
Idx Name          Size      VMA       LMA       File off  Algn
  0 .boot2        00000100  10000000  10000000  00001000  2**0
                  CONTENTS, ALLOC, LOAD, READONLY, CODE
  1 .text         000045a8  10000100  10000100  00001100  2**3
                  CONTENTS, ALLOC, LOAD, READONLY, CODE
  2 .rodata       00000338  100046a8  100046a8  000056a8  2**2
                  CONTENTS, ALLOC, LOAD, READONLY, DATA
  3 .binary_info  0000002c  100049e0  100049e0  000059e0  2**2
                  CONTENTS, ALLOC, LOAD, DATA
  4 .ram_vector_table 000000c0  20000000  20000000  00007578  2**2
                  CONTENTS
  5 .data         000014b8  200000c0  10004a0c  000060c0  2**4
                  CONTENTS, ALLOC, LOAD, CODE
  6 .uninitialized_data 00000000  20001578  20001578  00007638  2**0
                  CONTENTS
  7 .scratch_x    00000000  20040000  20040000  00007638  2**0
                  CONTENTS
  8 .scratch_y    00000000  20041000  20041000  00007638  2**0
                  CONTENTS
  9 .bss          00000d90  20001578  20001578  00007578  2**3
                  ALLOC
 10 .heap         00000800  20002308  20002308  00007638  2**2
                  CONTENTS, READONLY
 11 .stack1_dummy 00000800  20040000  20040000  00007e38  2**2
                  CONTENTS
 12 .stack_dummy  00000800  20041000  20041000  00008640  2**5
                  CONTENTS, READONLY
 13 .ARM.attributes 00000028  00000000  00000000  00008e40  2**0
                  CONTENTS, READONLY
 14 .comment      000000a7  00000000  00000000  00008e68  2**0
                  CONTENTS, READONLY
 15 .debug_line   00000222  00000000  00000000  00008f0f  2**0
                  CONTENTS, READONLY, DEBUGGING, OCTETS
 16 .debug_info   00000999  00000000  00000000  00009131  2**0
                  CONTENTS, READONLY, DEBUGGING, OCTETS
 17 .debug_abbrev 000001fc  00000000  00000000  00009aca  2**0
                  CONTENTS, READONLY, DEBUGGING, OCTETS
 18 .debug_aranges 00000040  00000000  00000000  00009cc8  2**3
                  CONTENTS, READONLY, DEBUGGING, OCTETS
 19 .debug_str    00000613  00000000  00000000  00009d08  2**0
                  CONTENTS, READONLY, DEBUGGING, OCTETS
 20 .debug_loc    000000a3  00000000  00000000  0000a31b  2**0
                  CONTENTS, READONLY, DEBUGGING, OCTETS
 21 .debug_frame  00000028  00000000  00000000  0000a3c0  2**2
                  CONTENTS, READONLY, DEBUGGING, OCTETS

/home/cyclone/Desktop/rpi_pico_jtag/Jtag_Repo/Jtag_Pico/pico/pico-examples/build/jtag_test_O/pio_jtag.elf:     file format elf32-littlearm


Disassembly of section .boot2:

10000000 <__boot2_start__>:
10000000:	4b32b500 	.word	0x4b32b500
10000004:	60582021 	.word	0x60582021
10000008:	21026898 	.word	0x21026898
1000000c:	60984388 	.word	0x60984388
10000010:	611860d8 	.word	0x611860d8
10000014:	4b2e6158 	.word	0x4b2e6158
10000018:	60992100 	.word	0x60992100
1000001c:	61592102 	.word	0x61592102
10000020:	22f02101 	.word	0x22f02101
10000024:	492b5099 	.word	0x492b5099
10000028:	21016019 	.word	0x21016019
1000002c:	20356099 	.word	0x20356099
10000030:	f844f000 	.word	0xf844f000
10000034:	42902202 	.word	0x42902202
10000038:	2106d014 	.word	0x2106d014
1000003c:	f0006619 	.word	0xf0006619
10000040:	6e19f834 	.word	0x6e19f834
10000044:	66192101 	.word	0x66192101
10000048:	66182000 	.word	0x66182000
1000004c:	f000661a 	.word	0xf000661a
10000050:	6e19f82c 	.word	0x6e19f82c
10000054:	6e196e19 	.word	0x6e196e19
10000058:	f0002005 	.word	0xf0002005
1000005c:	2101f82f 	.word	0x2101f82f
10000060:	d1f94208 	.word	0xd1f94208
10000064:	60992100 	.word	0x60992100
10000068:	6019491b 	.word	0x6019491b
1000006c:	60592100 	.word	0x60592100
10000070:	481b491a 	.word	0x481b491a
10000074:	21016001 	.word	0x21016001
10000078:	21eb6099 	.word	0x21eb6099
1000007c:	21a06619 	.word	0x21a06619
10000080:	f0006619 	.word	0xf0006619
10000084:	2100f812 	.word	0x2100f812
10000088:	49166099 	.word	0x49166099
1000008c:	60014814 	.word	0x60014814
10000090:	60992101 	.word	0x60992101
10000094:	2800bc01 	.word	0x2800bc01
10000098:	4700d000 	.word	0x4700d000
1000009c:	49134812 	.word	0x49134812
100000a0:	c8036008 	.word	0xc8036008
100000a4:	8808f380 	.word	0x8808f380
100000a8:	b5034708 	.word	0xb5034708
100000ac:	20046a99 	.word	0x20046a99
100000b0:	d0fb4201 	.word	0xd0fb4201
100000b4:	42012001 	.word	0x42012001
100000b8:	bd03d1f8 	.word	0xbd03d1f8
100000bc:	6618b502 	.word	0x6618b502
100000c0:	f7ff6618 	.word	0xf7ff6618
100000c4:	6e18fff2 	.word	0x6e18fff2
100000c8:	bd026e18 	.word	0xbd026e18
100000cc:	40020000 	.word	0x40020000
100000d0:	18000000 	.word	0x18000000
100000d4:	00070000 	.word	0x00070000
100000d8:	005f0300 	.word	0x005f0300
100000dc:	00002221 	.word	0x00002221
100000e0:	180000f4 	.word	0x180000f4
100000e4:	a0002022 	.word	0xa0002022
100000e8:	10000100 	.word	0x10000100
100000ec:	e000ed08 	.word	0xe000ed08
	...
100000fc:	7a4eb274 	.word	0x7a4eb274

Disassembly of section .text:

10000100 <__VECTOR_TABLE>:
10000100:	20042000 	.word	0x20042000
10000104:	100001f7 	.word	0x100001f7
10000108:	100001c3 	.word	0x100001c3
1000010c:	100001c5 	.word	0x100001c5
10000110:	100001c1 	.word	0x100001c1
10000114:	100001c1 	.word	0x100001c1
10000118:	100001c1 	.word	0x100001c1
1000011c:	100001c1 	.word	0x100001c1
10000120:	100001c1 	.word	0x100001c1
10000124:	100001c1 	.word	0x100001c1
10000128:	100001c1 	.word	0x100001c1
1000012c:	100001c7 	.word	0x100001c7
10000130:	100001c1 	.word	0x100001c1
10000134:	100001c1 	.word	0x100001c1
10000138:	100001c9 	.word	0x100001c9
1000013c:	100001cb 	.word	0x100001cb
10000140:	100001cd 	.word	0x100001cd
10000144:	100001cd 	.word	0x100001cd
10000148:	100001cd 	.word	0x100001cd
1000014c:	100001cd 	.word	0x100001cd
10000150:	100001cd 	.word	0x100001cd
10000154:	100001cd 	.word	0x100001cd
10000158:	100001cd 	.word	0x100001cd
1000015c:	100001cd 	.word	0x100001cd
10000160:	100001cd 	.word	0x100001cd
10000164:	100001cd 	.word	0x100001cd
10000168:	100001cd 	.word	0x100001cd
1000016c:	100001cd 	.word	0x100001cd
10000170:	100001cd 	.word	0x100001cd
10000174:	100001cd 	.word	0x100001cd
10000178:	100001cd 	.word	0x100001cd
1000017c:	100001cd 	.word	0x100001cd
10000180:	100001cd 	.word	0x100001cd
10000184:	100001cd 	.word	0x100001cd
10000188:	100001cd 	.word	0x100001cd
1000018c:	100001cd 	.word	0x100001cd
10000190:	100001cd 	.word	0x100001cd
10000194:	100001cd 	.word	0x100001cd
10000198:	100001cd 	.word	0x100001cd
1000019c:	100001cd 	.word	0x100001cd
100001a0:	100001cd 	.word	0x100001cd
100001a4:	100001cd 	.word	0x100001cd
100001a8:	100001cd 	.word	0x100001cd
100001ac:	100001cd 	.word	0x100001cd
100001b0:	100001cd 	.word	0x100001cd
100001b4:	100001cd 	.word	0x100001cd
100001b8:	100001cd 	.word	0x100001cd
100001bc:	100001cd 	.word	0x100001cd

100001c0 <isr_invalid>:
100001c0:	be00      	bkpt	0x0000

100001c2 <isr_nmi>:
100001c2:	be00      	bkpt	0x0000

100001c4 <isr_hardfault>:
100001c4:	be00      	bkpt	0x0000

100001c6 <isr_svcall>:
100001c6:	be00      	bkpt	0x0000

100001c8 <isr_pendsv>:
100001c8:	be00      	bkpt	0x0000

100001ca <isr_systick>:
100001ca:	be00      	bkpt	0x0000

100001cc <__unhandled_user_irq>:
100001cc:	f3ef 8005 	mrs	r0, IPSR
100001d0:	3810      	subs	r0, #16

100001d2 <unhandled_user_irq_num_in_r0>:
100001d2:	be00      	bkpt	0x0000

100001d4 <binary_info_header>:
100001d4:	7188ebf2 	.word	0x7188ebf2
100001d8:	100049e0 	.word	0x100049e0
100001dc:	10004a0c 	.word	0x10004a0c
100001e0:	10000234 	.word	0x10000234
100001e4:	e71aa390 	.word	0xe71aa390

100001e8 <_entry_point>:
100001e8:	2000      	movs	r0, #0
100001ea:	491f      	ldr	r1, [pc, #124]	; (10000268 <hold_non_core0_in_bootrom+0xa>)
100001ec:	6008      	str	r0, [r1, #0]
100001ee:	c806      	ldmia	r0!, {r1, r2}
100001f0:	f381 8808 	msr	MSP, r1
100001f4:	4710      	bx	r2

100001f6 <_reset_handler>:
100001f6:	481d      	ldr	r0, [pc, #116]	; (1000026c <hold_non_core0_in_bootrom+0xe>)
100001f8:	6800      	ldr	r0, [r0, #0]
100001fa:	2800      	cmp	r0, #0
100001fc:	d12f      	bne.n	1000025e <hold_non_core0_in_bootrom>
100001fe:	a40d      	add	r4, pc, #52	; (adr r4, 10000234 <data_cpy_table>)
10000200:	cc0e      	ldmia	r4!, {r1, r2, r3}
10000202:	2900      	cmp	r1, #0
10000204:	d002      	beq.n	1000020c <_reset_handler+0x16>
10000206:	f000 f812 	bl	1000022e <data_cpy>
1000020a:	e7f9      	b.n	10000200 <_reset_handler+0xa>
1000020c:	4918      	ldr	r1, [pc, #96]	; (10000270 <hold_non_core0_in_bootrom+0x12>)
1000020e:	4a19      	ldr	r2, [pc, #100]	; (10000274 <hold_non_core0_in_bootrom+0x16>)
10000210:	2000      	movs	r0, #0
10000212:	e000      	b.n	10000216 <bss_fill_test>

10000214 <bss_fill_loop>:
10000214:	c101      	stmia	r1!, {r0}

10000216 <bss_fill_test>:
10000216:	4291      	cmp	r1, r2
10000218:	d1fc      	bne.n	10000214 <bss_fill_loop>

1000021a <platform_entry>:
1000021a:	4917      	ldr	r1, [pc, #92]	; (10000278 <hold_non_core0_in_bootrom+0x1a>)
1000021c:	4788      	blx	r1
1000021e:	4917      	ldr	r1, [pc, #92]	; (1000027c <hold_non_core0_in_bootrom+0x1e>)
10000220:	4788      	blx	r1
10000222:	4917      	ldr	r1, [pc, #92]	; (10000280 <hold_non_core0_in_bootrom+0x22>)
10000224:	4788      	blx	r1
10000226:	be00      	bkpt	0x0000
10000228:	e7fd      	b.n	10000226 <platform_entry+0xc>

1000022a <data_cpy_loop>:
1000022a:	c901      	ldmia	r1!, {r0}
1000022c:	c201      	stmia	r2!, {r0}

1000022e <data_cpy>:
1000022e:	429a      	cmp	r2, r3
10000230:	d3fb      	bcc.n	1000022a <data_cpy_loop>
10000232:	4770      	bx	lr

10000234 <data_cpy_table>:
10000234:	10004a0c 	.word	0x10004a0c
10000238:	200000c0 	.word	0x200000c0
1000023c:	20001578 	.word	0x20001578
10000240:	10005ec4 	.word	0x10005ec4
10000244:	20040000 	.word	0x20040000
10000248:	20040000 	.word	0x20040000
1000024c:	10005ec4 	.word	0x10005ec4
10000250:	20041000 	.word	0x20041000
10000254:	20041000 	.word	0x20041000
10000258:	00000000 	.word	0x00000000
1000025c:	4770      	bx	lr

1000025e <hold_non_core0_in_bootrom>:
1000025e:	4809      	ldr	r0, [pc, #36]	; (10000284 <hold_non_core0_in_bootrom+0x26>)
10000260:	f002 f81e 	bl	100022a0 <rom_func_lookup>
10000264:	4700      	bx	r0
10000266:	0000      	.short	0x0000
10000268:	e000ed08 	.word	0xe000ed08
1000026c:	d0000000 	.word	0xd0000000
10000270:	20001578 	.word	0x20001578
10000274:	20002308 	.word	0x20002308
10000278:	1000210d 	.word	0x1000210d
1000027c:	100003b1 	.word	0x100003b1
10000280:	10002201 	.word	0x10002201
10000284:	00005657 	.word	0x00005657

10000288 <__bi_50>:
10000288:	50520006 5360b3ab 10004820              ..RP..`S H..

10000294 <__bi_38>:
10000294:	50520006 02031c86 10004830              ..RP....0H..

100002a0 <__bi_30>:
100002a0:	50520006 9da22254 1000483c              ..RPT"..<H..

100002ac <__bi_22>:
100002ac:	50520005 68f465de 10005ec4              ..RP.e.h.^..

100002b8 <_init>:
100002b8:	b5f8      	push	{r3, r4, r5, r6, r7, lr}
100002ba:	46c0      	nop			; (mov r8, r8)

100002bc <deregister_tm_clones>:
100002bc:	4804      	ldr	r0, [pc, #16]	; (100002d0 <deregister_tm_clones+0x14>)
100002be:	4b05      	ldr	r3, [pc, #20]	; (100002d4 <deregister_tm_clones+0x18>)
100002c0:	b510      	push	{r4, lr}
100002c2:	4283      	cmp	r3, r0
100002c4:	d003      	beq.n	100002ce <deregister_tm_clones+0x12>
100002c6:	4b04      	ldr	r3, [pc, #16]	; (100002d8 <deregister_tm_clones+0x1c>)
100002c8:	2b00      	cmp	r3, #0
100002ca:	d000      	beq.n	100002ce <deregister_tm_clones+0x12>
100002cc:	4798      	blx	r3
100002ce:	bd10      	pop	{r4, pc}
100002d0:	20001578 	.word	0x20001578
100002d4:	20001578 	.word	0x20001578
100002d8:	00000000 	.word	0x00000000

100002dc <register_tm_clones>:
100002dc:	4806      	ldr	r0, [pc, #24]	; (100002f8 <register_tm_clones+0x1c>)
100002de:	4907      	ldr	r1, [pc, #28]	; (100002fc <register_tm_clones+0x20>)
100002e0:	1a09      	subs	r1, r1, r0
100002e2:	108b      	asrs	r3, r1, #2
100002e4:	0fc9      	lsrs	r1, r1, #31
100002e6:	18c9      	adds	r1, r1, r3
100002e8:	b510      	push	{r4, lr}
100002ea:	1049      	asrs	r1, r1, #1
100002ec:	d003      	beq.n	100002f6 <register_tm_clones+0x1a>
100002ee:	4b04      	ldr	r3, [pc, #16]	; (10000300 <register_tm_clones+0x24>)
100002f0:	2b00      	cmp	r3, #0
100002f2:	d000      	beq.n	100002f6 <register_tm_clones+0x1a>
100002f4:	4798      	blx	r3
100002f6:	bd10      	pop	{r4, pc}
100002f8:	20001578 	.word	0x20001578
100002fc:	20001578 	.word	0x20001578
10000300:	00000000 	.word	0x00000000

10000304 <__do_global_dtors_aux>:
10000304:	b510      	push	{r4, lr}
10000306:	4c07      	ldr	r4, [pc, #28]	; (10000324 <__do_global_dtors_aux+0x20>)
10000308:	7823      	ldrb	r3, [r4, #0]
1000030a:	2b00      	cmp	r3, #0
1000030c:	d109      	bne.n	10000322 <__do_global_dtors_aux+0x1e>
1000030e:	f7ff ffd5 	bl	100002bc <deregister_tm_clones>
10000312:	4b05      	ldr	r3, [pc, #20]	; (10000328 <__do_global_dtors_aux+0x24>)
10000314:	2b00      	cmp	r3, #0
10000316:	d002      	beq.n	1000031e <__do_global_dtors_aux+0x1a>
10000318:	4804      	ldr	r0, [pc, #16]	; (1000032c <__do_global_dtors_aux+0x28>)
1000031a:	e000      	b.n	1000031e <__do_global_dtors_aux+0x1a>
1000031c:	bf00      	nop
1000031e:	2301      	movs	r3, #1
10000320:	7023      	strb	r3, [r4, #0]
10000322:	bd10      	pop	{r4, pc}
10000324:	20001678 	.word	0x20001678
10000328:	00000000 	.word	0x00000000
1000032c:	100046a8 	.word	0x100046a8

10000330 <frame_dummy>:
10000330:	4b05      	ldr	r3, [pc, #20]	; (10000348 <frame_dummy+0x18>)
10000332:	b510      	push	{r4, lr}
10000334:	2b00      	cmp	r3, #0
10000336:	d003      	beq.n	10000340 <frame_dummy+0x10>
10000338:	4904      	ldr	r1, [pc, #16]	; (1000034c <frame_dummy+0x1c>)
1000033a:	4805      	ldr	r0, [pc, #20]	; (10000350 <frame_dummy+0x20>)
1000033c:	e000      	b.n	10000340 <frame_dummy+0x10>
1000033e:	bf00      	nop
10000340:	f7ff ffcc 	bl	100002dc <register_tm_clones>
10000344:	bd10      	pop	{r4, pc}
10000346:	46c0      	nop			; (mov r8, r8)
10000348:	00000000 	.word	0x00000000
1000034c:	2000167c 	.word	0x2000167c
10000350:	100046a8 	.word	0x100046a8

10000354 <core1_entry>:
10000354:	b5f8      	push	{r3, r4, r5, r6, r7, lr}
10000356:	4647      	mov	r7, r8
10000358:	46ce      	mov	lr, r9
1000035a:	4b0f      	ldr	r3, [pc, #60]	; (10000398 <core1_entry+0x44>)
1000035c:	b580      	push	{r7, lr}
1000035e:	4699      	mov	r9, r3
10000360:	4b0e      	ldr	r3, [pc, #56]	; (1000039c <core1_entry+0x48>)
10000362:	2700      	movs	r7, #0
10000364:	4698      	mov	r8, r3
10000366:	4e0e      	ldr	r6, [pc, #56]	; (100003a0 <core1_entry+0x4c>)
10000368:	f002 fc3c 	bl	10002be4 <multicore_fifo_pop_blocking>
1000036c:	0144      	lsls	r4, r0, #5
1000036e:	1824      	adds	r4, r4, r0
10000370:	0064      	lsls	r4, r4, #1
10000372:	1933      	adds	r3, r6, r4
10000374:	705f      	strb	r7, [r3, #1]
10000376:	5d32      	ldrb	r2, [r6, r4]
10000378:	1ca5      	adds	r5, r4, #2
1000037a:	1975      	adds	r5, r6, r5
1000037c:	464b      	mov	r3, r9
1000037e:	0029      	movs	r1, r5
10000380:	4640      	mov	r0, r8
10000382:	b2d2      	uxtb	r2, r2
10000384:	f000 f99e 	bl	100006c4 <cmd_handle>
10000388:	2240      	movs	r2, #64	; 0x40
1000038a:	2100      	movs	r1, #0
1000038c:	0028      	movs	r0, r5
1000038e:	f002 f8bb 	bl	10002508 <__wrap_memset>
10000392:	5537      	strb	r7, [r6, r4]
10000394:	e7e8      	b.n	10000368 <core1_entry+0x14>
10000396:	46c0      	nop			; (mov r8, r8)
10000398:	20001ee8 	.word	0x20001ee8
1000039c:	20001448 	.word	0x20001448
100003a0:	20001f1c 	.word	0x20001f1c

100003a4 <tud_vendor_control_xfer_cb>:
100003a4:	1e48      	subs	r0, r1, #1
100003a6:	1e41      	subs	r1, r0, #1
100003a8:	4188      	sbcs	r0, r1
100003aa:	b2c0      	uxtb	r0, r0
100003ac:	4770      	bx	lr
100003ae:	46c0      	nop			; (mov r8, r8)

100003b0 <main>:
100003b0:	b5f8      	push	{r3, r4, r5, r6, r7, lr}
100003b2:	2601      	movs	r6, #1
100003b4:	f004 f8c0 	bl	10004538 <board_init>
100003b8:	f000 f89a 	bl	100004f0 <usb_serial_init>
100003bc:	f003 fe22 	bl	10004004 <tusb_init>
100003c0:	481a      	ldr	r0, [pc, #104]	; (1000042c <main+0x7c>)
100003c2:	f002 fc5f 	bl	10002c84 <multicore_launch_core1>
100003c6:	4d1a      	ldr	r5, [pc, #104]	; (10000430 <main+0x80>)
100003c8:	4c1a      	ldr	r4, [pc, #104]	; (10000434 <main+0x84>)
100003ca:	6828      	ldr	r0, [r5, #0]
100003cc:	0143      	lsls	r3, r0, #5
100003ce:	1818      	adds	r0, r3, r0
100003d0:	0040      	lsls	r0, r0, #1
100003d2:	1820      	adds	r0, r4, r0
100003d4:	3001      	adds	r0, #1
100003d6:	7803      	ldrb	r3, [r0, #0]
100003d8:	b2df      	uxtb	r7, r3
100003da:	2b00      	cmp	r3, #0
100003dc:	d1fb      	bne.n	100003d6 <main+0x26>
100003de:	2001      	movs	r0, #1
100003e0:	2100      	movs	r1, #0
100003e2:	4240      	negs	r0, r0
100003e4:	f002 feb2 	bl	1000314c <tud_task_ext>
100003e8:	2000      	movs	r0, #0
100003ea:	f003 fc79 	bl	10003ce0 <tud_vendor_n_available>
100003ee:	2800      	cmp	r0, #0
100003f0:	d0eb      	beq.n	100003ca <main+0x1a>
100003f2:	682b      	ldr	r3, [r5, #0]
100003f4:	2240      	movs	r2, #64	; 0x40
100003f6:	0159      	lsls	r1, r3, #5
100003f8:	18c9      	adds	r1, r1, r3
100003fa:	0049      	lsls	r1, r1, #1
100003fc:	3102      	adds	r1, #2
100003fe:	2000      	movs	r0, #0
10000400:	1861      	adds	r1, r4, r1
10000402:	f003 fc7d 	bl	10003d00 <tud_vendor_n_read>
10000406:	1e03      	subs	r3, r0, #0
10000408:	6828      	ldr	r0, [r5, #0]
1000040a:	d0df      	beq.n	100003cc <main+0x1c>
1000040c:	0142      	lsls	r2, r0, #5
1000040e:	1812      	adds	r2, r2, r0
10000410:	b2db      	uxtb	r3, r3
10000412:	0052      	lsls	r2, r2, #1
10000414:	54a3      	strb	r3, [r4, r2]
10000416:	18a2      	adds	r2, r4, r2
10000418:	7056      	strb	r6, [r2, #1]
1000041a:	1c43      	adds	r3, r0, #1
1000041c:	2803      	cmp	r0, #3
1000041e:	d003      	beq.n	10000428 <main+0x78>
10000420:	602b      	str	r3, [r5, #0]
10000422:	f002 fbd5 	bl	10002bd0 <multicore_fifo_push_blocking>
10000426:	e7d0      	b.n	100003ca <main+0x1a>
10000428:	602f      	str	r7, [r5, #0]
1000042a:	e7fa      	b.n	10000422 <main+0x72>
1000042c:	10000355 	.word	0x10000355
10000430:	20001f10 	.word	0x20001f10
10000434:	20001f1c 	.word	0x20001f1c

10000438 <dma_init>:
10000438:	b570      	push	{r4, r5, r6, lr}
1000043a:	2001      	movs	r0, #1
1000043c:	f002 fbb0 	bl	10002ba0 <dma_claim_unused_channel>
10000440:	2211      	movs	r2, #17
10000442:	4b14      	ldr	r3, [pc, #80]	; (10000494 <dma_init+0x5c>)
10000444:	4c14      	ldr	r4, [pc, #80]	; (10000498 <dma_init+0x60>)
10000446:	6018      	str	r0, [r3, #0]
10000448:	02c3      	lsls	r3, r0, #11
1000044a:	4023      	ands	r3, r4
1000044c:	4313      	orrs	r3, r2
1000044e:	4a13      	ldr	r2, [pc, #76]	; (1000049c <dma_init+0x64>)
10000450:	2500      	movs	r5, #0
10000452:	6013      	str	r3, [r2, #0]
10000454:	22a0      	movs	r2, #160	; 0xa0
10000456:	05d2      	lsls	r2, r2, #23
10000458:	4694      	mov	ip, r2
1000045a:	0180      	lsls	r0, r0, #6
1000045c:	4a10      	ldr	r2, [pc, #64]	; (100004a0 <dma_init+0x68>)
1000045e:	4460      	add	r0, ip
10000460:	6005      	str	r5, [r0, #0]
10000462:	6042      	str	r2, [r0, #4]
10000464:	6085      	str	r5, [r0, #8]
10000466:	6103      	str	r3, [r0, #16]
10000468:	2001      	movs	r0, #1
1000046a:	f002 fb99 	bl	10002ba0 <dma_claim_unused_channel>
1000046e:	4b0d      	ldr	r3, [pc, #52]	; (100004a4 <dma_init+0x6c>)
10000470:	6018      	str	r0, [r3, #0]
10000472:	02c3      	lsls	r3, r0, #11
10000474:	4023      	ands	r3, r4
10000476:	4c0c      	ldr	r4, [pc, #48]	; (100004a8 <dma_init+0x70>)
10000478:	0180      	lsls	r0, r0, #6
1000047a:	431c      	orrs	r4, r3
1000047c:	4b0b      	ldr	r3, [pc, #44]	; (100004ac <dma_init+0x74>)
1000047e:	601c      	str	r4, [r3, #0]
10000480:	23a0      	movs	r3, #160	; 0xa0
10000482:	05db      	lsls	r3, r3, #23
10000484:	469c      	mov	ip, r3
10000486:	4b0a      	ldr	r3, [pc, #40]	; (100004b0 <dma_init+0x78>)
10000488:	4460      	add	r0, ip
1000048a:	6003      	str	r3, [r0, #0]
1000048c:	6045      	str	r5, [r0, #4]
1000048e:	6085      	str	r5, [r0, #8]
10000490:	6104      	str	r4, [r0, #16]
10000492:	bd70      	pop	{r4, r5, r6, pc}
10000494:	20001468 	.word	0x20001468
10000498:	ff007ffd 	.word	0xff007ffd
1000049c:	20001efc 	.word	0x20001efc
100004a0:	50200010 	.word	0x50200010
100004a4:	20001ecc 	.word	0x20001ecc
100004a8:	00020001 	.word	0x00020001
100004ac:	20001ec8 	.word	0x20001ec8
100004b0:	50200020 	.word	0x50200020

100004b4 <jtag_set_clk_freq>:
100004b4:	b570      	push	{r4, r5, r6, lr}
100004b6:	0004      	movs	r4, r0
100004b8:	2005      	movs	r0, #5
100004ba:	000d      	movs	r5, r1
100004bc:	f001 fdb0 	bl	10002020 <clock_get_hz>
100004c0:	21fa      	movs	r1, #250	; 0xfa
100004c2:	0089      	lsls	r1, r1, #2
100004c4:	f001 ff1a 	bl	100022fc <__wrap___aeabi_uidiv>
100004c8:	0029      	movs	r1, r5
100004ca:	f001 ff17 	bl	100022fc <__wrap___aeabi_uidiv>
100004ce:	6861      	ldr	r1, [r4, #4]
100004d0:	0882      	lsrs	r2, r0, #2
100004d2:	2807      	cmp	r0, #7
100004d4:	d800      	bhi.n	100004d8 <jtag_set_clk_freq+0x24>
100004d6:	2202      	movs	r2, #2
100004d8:	004b      	lsls	r3, r1, #1
100004da:	185b      	adds	r3, r3, r1
100004dc:	4903      	ldr	r1, [pc, #12]	; (100004ec <jtag_set_clk_freq+0x38>)
100004de:	00db      	lsls	r3, r3, #3
100004e0:	468c      	mov	ip, r1
100004e2:	0412      	lsls	r2, r2, #16
100004e4:	4463      	add	r3, ip
100004e6:	601a      	str	r2, [r3, #0]
100004e8:	bd70      	pop	{r4, r5, r6, pc}
100004ea:	46c0      	nop			; (mov r8, r8)
100004ec:	502000c8 	.word	0x502000c8

100004f0 <usb_serial_init>:
100004f0:	b570      	push	{r4, r5, r6, lr}
100004f2:	4c4f      	ldr	r4, [pc, #316]	; (10000630 <usb_serial_init+0x140>)
100004f4:	0020      	movs	r0, r4
100004f6:	f002 fbf3 	bl	10002ce0 <pico_get_unique_board_id>
100004fa:	7823      	ldrb	r3, [r4, #0]
100004fc:	0918      	lsrs	r0, r3, #4
100004fe:	0001      	movs	r1, r0
10000500:	011a      	lsls	r2, r3, #4
10000502:	b2d2      	uxtb	r2, r2
10000504:	3130      	adds	r1, #48	; 0x30
10000506:	2b9f      	cmp	r3, #159	; 0x9f
10000508:	d900      	bls.n	1000050c <usb_serial_init+0x1c>
1000050a:	3107      	adds	r1, #7
1000050c:	4b49      	ldr	r3, [pc, #292]	; (10000634 <usb_serial_init+0x144>)
1000050e:	0910      	lsrs	r0, r2, #4
10000510:	7019      	strb	r1, [r3, #0]
10000512:	2100      	movs	r1, #0
10000514:	7021      	strb	r1, [r4, #0]
10000516:	0001      	movs	r1, r0
10000518:	3130      	adds	r1, #48	; 0x30
1000051a:	2a9f      	cmp	r2, #159	; 0x9f
1000051c:	d900      	bls.n	10000520 <usb_serial_init+0x30>
1000051e:	3107      	adds	r1, #7
10000520:	7059      	strb	r1, [r3, #1]
10000522:	7861      	ldrb	r1, [r4, #1]
10000524:	090d      	lsrs	r5, r1, #4
10000526:	0028      	movs	r0, r5
10000528:	010a      	lsls	r2, r1, #4
1000052a:	b2d2      	uxtb	r2, r2
1000052c:	3030      	adds	r0, #48	; 0x30
1000052e:	299f      	cmp	r1, #159	; 0x9f
10000530:	d900      	bls.n	10000534 <usb_serial_init+0x44>
10000532:	3007      	adds	r0, #7
10000534:	2100      	movs	r1, #0
10000536:	7098      	strb	r0, [r3, #2]
10000538:	0910      	lsrs	r0, r2, #4
1000053a:	7061      	strb	r1, [r4, #1]
1000053c:	0001      	movs	r1, r0
1000053e:	3130      	adds	r1, #48	; 0x30
10000540:	2a9f      	cmp	r2, #159	; 0x9f
10000542:	d900      	bls.n	10000546 <usb_serial_init+0x56>
10000544:	3107      	adds	r1, #7
10000546:	70d9      	strb	r1, [r3, #3]
10000548:	78a1      	ldrb	r1, [r4, #2]
1000054a:	090d      	lsrs	r5, r1, #4
1000054c:	0028      	movs	r0, r5
1000054e:	010a      	lsls	r2, r1, #4
10000550:	b2d2      	uxtb	r2, r2
10000552:	3030      	adds	r0, #48	; 0x30
10000554:	299f      	cmp	r1, #159	; 0x9f
10000556:	d900      	bls.n	1000055a <usb_serial_init+0x6a>
10000558:	3007      	adds	r0, #7
1000055a:	2100      	movs	r1, #0
1000055c:	7118      	strb	r0, [r3, #4]
1000055e:	0910      	lsrs	r0, r2, #4
10000560:	70a1      	strb	r1, [r4, #2]
10000562:	0001      	movs	r1, r0
10000564:	3130      	adds	r1, #48	; 0x30
10000566:	2a9f      	cmp	r2, #159	; 0x9f
10000568:	d900      	bls.n	1000056c <usb_serial_init+0x7c>
1000056a:	3107      	adds	r1, #7
1000056c:	7159      	strb	r1, [r3, #5]
1000056e:	78e1      	ldrb	r1, [r4, #3]
10000570:	090d      	lsrs	r5, r1, #4
10000572:	0028      	movs	r0, r5
10000574:	010a      	lsls	r2, r1, #4
10000576:	b2d2      	uxtb	r2, r2
10000578:	3030      	adds	r0, #48	; 0x30
1000057a:	299f      	cmp	r1, #159	; 0x9f
1000057c:	d900      	bls.n	10000580 <usb_serial_init+0x90>
1000057e:	3007      	adds	r0, #7
10000580:	2100      	movs	r1, #0
10000582:	7198      	strb	r0, [r3, #6]
10000584:	0910      	lsrs	r0, r2, #4
10000586:	70e1      	strb	r1, [r4, #3]
10000588:	0001      	movs	r1, r0
1000058a:	3130      	adds	r1, #48	; 0x30
1000058c:	2a9f      	cmp	r2, #159	; 0x9f
1000058e:	d900      	bls.n	10000592 <usb_serial_init+0xa2>
10000590:	3107      	adds	r1, #7
10000592:	71d9      	strb	r1, [r3, #7]
10000594:	7921      	ldrb	r1, [r4, #4]
10000596:	090d      	lsrs	r5, r1, #4
10000598:	0028      	movs	r0, r5
1000059a:	010a      	lsls	r2, r1, #4
1000059c:	b2d2      	uxtb	r2, r2
1000059e:	3030      	adds	r0, #48	; 0x30
100005a0:	299f      	cmp	r1, #159	; 0x9f
100005a2:	d900      	bls.n	100005a6 <usb_serial_init+0xb6>
100005a4:	3007      	adds	r0, #7
100005a6:	2100      	movs	r1, #0
100005a8:	7218      	strb	r0, [r3, #8]
100005aa:	0910      	lsrs	r0, r2, #4
100005ac:	7121      	strb	r1, [r4, #4]
100005ae:	0001      	movs	r1, r0
100005b0:	3130      	adds	r1, #48	; 0x30
100005b2:	2a9f      	cmp	r2, #159	; 0x9f
100005b4:	d900      	bls.n	100005b8 <usb_serial_init+0xc8>
100005b6:	3107      	adds	r1, #7
100005b8:	7259      	strb	r1, [r3, #9]
100005ba:	7961      	ldrb	r1, [r4, #5]
100005bc:	090d      	lsrs	r5, r1, #4
100005be:	0028      	movs	r0, r5
100005c0:	010a      	lsls	r2, r1, #4
100005c2:	b2d2      	uxtb	r2, r2
100005c4:	3030      	adds	r0, #48	; 0x30
100005c6:	299f      	cmp	r1, #159	; 0x9f
100005c8:	d900      	bls.n	100005cc <usb_serial_init+0xdc>
100005ca:	3007      	adds	r0, #7
100005cc:	2100      	movs	r1, #0
100005ce:	7298      	strb	r0, [r3, #10]
100005d0:	0910      	lsrs	r0, r2, #4
100005d2:	7161      	strb	r1, [r4, #5]
100005d4:	0001      	movs	r1, r0
100005d6:	3130      	adds	r1, #48	; 0x30
100005d8:	2a9f      	cmp	r2, #159	; 0x9f
100005da:	d900      	bls.n	100005de <usb_serial_init+0xee>
100005dc:	3107      	adds	r1, #7
100005de:	72d9      	strb	r1, [r3, #11]
100005e0:	79a1      	ldrb	r1, [r4, #6]
100005e2:	090d      	lsrs	r5, r1, #4
100005e4:	0028      	movs	r0, r5
100005e6:	010a      	lsls	r2, r1, #4
100005e8:	b2d2      	uxtb	r2, r2
100005ea:	3030      	adds	r0, #48	; 0x30
100005ec:	299f      	cmp	r1, #159	; 0x9f
100005ee:	d900      	bls.n	100005f2 <usb_serial_init+0x102>
100005f0:	3007      	adds	r0, #7
100005f2:	2100      	movs	r1, #0
100005f4:	7318      	strb	r0, [r3, #12]
100005f6:	0910      	lsrs	r0, r2, #4
100005f8:	71a1      	strb	r1, [r4, #6]
100005fa:	0001      	movs	r1, r0
100005fc:	3130      	adds	r1, #48	; 0x30
100005fe:	2a9f      	cmp	r2, #159	; 0x9f
10000600:	d900      	bls.n	10000604 <usb_serial_init+0x114>
10000602:	3107      	adds	r1, #7
10000604:	7359      	strb	r1, [r3, #13]
10000606:	79e1      	ldrb	r1, [r4, #7]
10000608:	090d      	lsrs	r5, r1, #4
1000060a:	0028      	movs	r0, r5
1000060c:	010a      	lsls	r2, r1, #4
1000060e:	b2d2      	uxtb	r2, r2
10000610:	3030      	adds	r0, #48	; 0x30
10000612:	299f      	cmp	r1, #159	; 0x9f
10000614:	d900      	bls.n	10000618 <usb_serial_init+0x128>
10000616:	3007      	adds	r0, #7
10000618:	2100      	movs	r1, #0
1000061a:	7398      	strb	r0, [r3, #14]
1000061c:	0910      	lsrs	r0, r2, #4
1000061e:	71e1      	strb	r1, [r4, #7]
10000620:	0001      	movs	r1, r0
10000622:	3137      	adds	r1, #55	; 0x37
10000624:	2a9f      	cmp	r2, #159	; 0x9f
10000626:	d800      	bhi.n	1000062a <usb_serial_init+0x13a>
10000628:	3907      	subs	r1, #7
1000062a:	73d9      	strb	r1, [r3, #15]
1000062c:	bd70      	pop	{r4, r5, r6, pc}
1000062e:	46c0      	nop			; (mov r8, r8)
10000630:	20001f00 	.word	0x20001f00
10000634:	20002030 	.word	0x20002030

10000638 <tud_descriptor_device_cb>:
10000638:	4800      	ldr	r0, [pc, #0]	; (1000063c <tud_descriptor_device_cb+0x4>)
1000063a:	4770      	bx	lr
1000063c:	10004718 	.word	0x10004718

10000640 <tud_descriptor_configuration_cb>:
10000640:	4800      	ldr	r0, [pc, #0]	; (10000644 <tud_descriptor_configuration_cb+0x4>)
10000642:	4770      	bx	lr
10000644:	100046f8 	.word	0x100046f8

10000648 <tud_descriptor_string_cb>:
10000648:	b570      	push	{r4, r5, r6, lr}
1000064a:	2800      	cmp	r0, #0
1000064c:	d025      	beq.n	1000069a <tud_descriptor_string_cb+0x52>
1000064e:	2803      	cmp	r0, #3
10000650:	d830      	bhi.n	100006b4 <tud_descriptor_string_cb+0x6c>
10000652:	4b19      	ldr	r3, [pc, #100]	; (100006b8 <tud_descriptor_string_cb+0x70>)
10000654:	0080      	lsls	r0, r0, #2
10000656:	58c6      	ldr	r6, [r0, r3]
10000658:	0030      	movs	r0, r6
1000065a:	f003 ff85 	bl	10004568 <strlen>
1000065e:	b2c0      	uxtb	r0, r0
10000660:	1c04      	adds	r4, r0, #0
10000662:	281f      	cmp	r0, #31
10000664:	d814      	bhi.n	10000690 <tud_descriptor_string_cb+0x48>
10000666:	b2e4      	uxtb	r4, r4
10000668:	2800      	cmp	r0, #0
1000066a:	d020      	beq.n	100006ae <tud_descriptor_string_cb+0x66>
1000066c:	2300      	movs	r3, #0
1000066e:	4d13      	ldr	r5, [pc, #76]	; (100006bc <tud_descriptor_string_cb+0x74>)
10000670:	1caa      	adds	r2, r5, #2
10000672:	5cf1      	ldrb	r1, [r6, r3]
10000674:	3301      	adds	r3, #1
10000676:	8011      	strh	r1, [r2, #0]
10000678:	b2d9      	uxtb	r1, r3
1000067a:	3202      	adds	r2, #2
1000067c:	428c      	cmp	r4, r1
1000067e:	d8f8      	bhi.n	10000672 <tud_descriptor_string_cb+0x2a>
10000680:	23c0      	movs	r3, #192	; 0xc0
10000682:	3401      	adds	r4, #1
10000684:	0064      	lsls	r4, r4, #1
10000686:	009b      	lsls	r3, r3, #2
10000688:	431c      	orrs	r4, r3
1000068a:	0028      	movs	r0, r5
1000068c:	802c      	strh	r4, [r5, #0]
1000068e:	bd70      	pop	{r4, r5, r6, pc}
10000690:	241f      	movs	r4, #31
10000692:	b2e4      	uxtb	r4, r4
10000694:	2800      	cmp	r0, #0
10000696:	d1e9      	bne.n	1000066c <tud_descriptor_string_cb+0x24>
10000698:	e009      	b.n	100006ae <tud_descriptor_string_cb+0x66>
1000069a:	24c1      	movs	r4, #193	; 0xc1
1000069c:	4d07      	ldr	r5, [pc, #28]	; (100006bc <tud_descriptor_string_cb+0x74>)
1000069e:	4b06      	ldr	r3, [pc, #24]	; (100006b8 <tud_descriptor_string_cb+0x70>)
100006a0:	2202      	movs	r2, #2
100006a2:	6819      	ldr	r1, [r3, #0]
100006a4:	1ca8      	adds	r0, r5, #2
100006a6:	f001 ff35 	bl	10002514 <__wrap___aeabi_memcpy>
100006aa:	00a4      	lsls	r4, r4, #2
100006ac:	e7ed      	b.n	1000068a <tud_descriptor_string_cb+0x42>
100006ae:	4c04      	ldr	r4, [pc, #16]	; (100006c0 <tud_descriptor_string_cb+0x78>)
100006b0:	4d02      	ldr	r5, [pc, #8]	; (100006bc <tud_descriptor_string_cb+0x74>)
100006b2:	e7ea      	b.n	1000068a <tud_descriptor_string_cb+0x42>
100006b4:	2000      	movs	r0, #0
100006b6:	e7ea      	b.n	1000068e <tud_descriptor_string_cb+0x46>
100006b8:	2000146c 	.word	0x2000146c
100006bc:	200016ac 	.word	0x200016ac
100006c0:	00000302 	.word	0x00000302

100006c4 <cmd_handle>:
100006c4:	b5f0      	push	{r4, r5, r6, r7, lr}
100006c6:	464e      	mov	r6, r9
100006c8:	4657      	mov	r7, sl
100006ca:	4645      	mov	r5, r8
100006cc:	46de      	mov	lr, fp
100006ce:	b5e0      	push	{r5, r6, r7, lr}
100006d0:	188e      	adds	r6, r1, r2
100006d2:	4681      	mov	r9, r0
100006d4:	000c      	movs	r4, r1
100006d6:	469a      	mov	sl, r3
100006d8:	001d      	movs	r5, r3
100006da:	b085      	sub	sp, #20
100006dc:	42b1      	cmp	r1, r6
100006de:	d241      	bcs.n	10000764 <cmd_handle+0xa0>
100006e0:	230f      	movs	r3, #15
100006e2:	4698      	mov	r8, r3
100006e4:	4f33      	ldr	r7, [pc, #204]	; (100007b4 <cmd_handle+0xf0>)
100006e6:	7823      	ldrb	r3, [r4, #0]
100006e8:	2b00      	cmp	r3, #0
100006ea:	d02b      	beq.n	10000744 <cmd_handle+0x80>
100006ec:	4642      	mov	r2, r8
100006ee:	4013      	ands	r3, r2
100006f0:	2b09      	cmp	r3, #9
100006f2:	d837      	bhi.n	10000764 <cmd_handle+0xa0>
100006f4:	009b      	lsls	r3, r3, #2
100006f6:	58fb      	ldr	r3, [r7, r3]
100006f8:	469f      	mov	pc, r3
100006fa:	2019      	movs	r0, #25
100006fc:	f000 f876 	bl	100007ec <gpio_init>
10000700:	23d0      	movs	r3, #208	; 0xd0
10000702:	061b      	lsls	r3, r3, #24
10000704:	001a      	movs	r2, r3
10000706:	469b      	mov	fp, r3
10000708:	2380      	movs	r3, #128	; 0x80
1000070a:	049b      	lsls	r3, r3, #18
1000070c:	6253      	str	r3, [r2, #36]	; 0x24
1000070e:	2001      	movs	r0, #1
10000710:	6153      	str	r3, [r2, #20]
10000712:	f000 ff15 	bl	10001540 <sleep_ms>
10000716:	2380      	movs	r3, #128	; 0x80
10000718:	465a      	mov	r2, fp
1000071a:	049b      	lsls	r3, r3, #18
1000071c:	6193      	str	r3, [r2, #24]
1000071e:	ab01      	add	r3, sp, #4
10000720:	469c      	mov	ip, r3
10000722:	4a25      	ldr	r2, [pc, #148]	; (100007b8 <cmd_handle+0xf4>)
10000724:	ca03      	ldmia	r2!, {r0, r1}
10000726:	c303      	stmia	r3!, {r0, r1}
10000728:	7812      	ldrb	r2, [r2, #0]
1000072a:	0028      	movs	r0, r5
1000072c:	701a      	strb	r2, [r3, #0]
1000072e:	4662      	mov	r2, ip
10000730:	2300      	movs	r3, #0
10000732:	4661      	mov	r1, ip
10000734:	7253      	strb	r3, [r2, #9]
10000736:	220a      	movs	r2, #10
10000738:	f001 feec 	bl	10002514 <__wrap___aeabi_memcpy>
1000073c:	350a      	adds	r5, #10
1000073e:	3401      	adds	r4, #1
10000740:	42b4      	cmp	r4, r6
10000742:	d3d0      	bcc.n	100006e6 <cmd_handle+0x22>
10000744:	45aa      	cmp	sl, r5
10000746:	d00d      	beq.n	10000764 <cmd_handle+0xa0>
10000748:	4653      	mov	r3, sl
1000074a:	4651      	mov	r1, sl
1000074c:	1aea      	subs	r2, r5, r3
1000074e:	2000      	movs	r0, #0
10000750:	f003 fb04 	bl	10003d5c <tud_vendor_n_write>
10000754:	2000      	movs	r0, #0
10000756:	f003 fb37 	bl	10003dc8 <tud_vendor_n_flush>
1000075a:	2214      	movs	r2, #20
1000075c:	2100      	movs	r1, #0
1000075e:	4650      	mov	r0, sl
10000760:	f001 fed2 	bl	10002508 <__wrap_memset>
10000764:	b005      	add	sp, #20
10000766:	bc3c      	pop	{r2, r3, r4, r5}
10000768:	4690      	mov	r8, r2
1000076a:	4699      	mov	r9, r3
1000076c:	46a2      	mov	sl, r4
1000076e:	46ab      	mov	fp, r5
10000770:	bdf0      	pop	{r4, r5, r6, r7, pc}
10000772:	78a1      	ldrb	r1, [r4, #2]
10000774:	7863      	ldrb	r3, [r4, #1]
10000776:	0209      	lsls	r1, r1, #8
10000778:	4319      	orrs	r1, r3
1000077a:	ba49      	rev16	r1, r1
1000077c:	3402      	adds	r4, #2
1000077e:	4648      	mov	r0, r9
10000780:	b289      	uxth	r1, r1
10000782:	3401      	adds	r4, #1
10000784:	f7ff fe96 	bl	100004b4 <jtag_set_clk_freq>
10000788:	42b4      	cmp	r4, r6
1000078a:	d3ac      	bcc.n	100006e6 <cmd_handle+0x22>
1000078c:	e7da      	b.n	10000744 <cmd_handle+0x80>
1000078e:	0029      	movs	r1, r5
10000790:	4648      	mov	r0, r9
10000792:	f003 ff21 	bl	100045d8 <__pio_jtag_reset_veneer>
10000796:	3401      	adds	r4, #1
10000798:	182d      	adds	r5, r5, r0
1000079a:	42b4      	cmp	r4, r6
1000079c:	d3a3      	bcc.n	100006e6 <cmd_handle+0x22>
1000079e:	e7d1      	b.n	10000744 <cmd_handle+0x80>
100007a0:	0029      	movs	r1, r5
100007a2:	4648      	mov	r0, r9
100007a4:	f003 ff30 	bl	10004608 <__pio_jtag_idcode_scan_veneer>
100007a8:	3401      	adds	r4, #1
100007aa:	182d      	adds	r5, r5, r0
100007ac:	42b4      	cmp	r4, r6
100007ae:	d39a      	bcc.n	100006e6 <cmd_handle+0x22>
100007b0:	e7c8      	b.n	10000744 <cmd_handle+0x80>
100007b2:	46c0      	nop			; (mov r8, r8)
100007b4:	1000472c 	.word	0x1000472c
100007b8:	10004754 	.word	0x10004754

100007bc <gpio_set_function>:
100007bc:	4a09      	ldr	r2, [pc, #36]	; (100007e4 <gpio_set_function+0x28>)
100007be:	0083      	lsls	r3, r0, #2
100007c0:	4694      	mov	ip, r2
100007c2:	2240      	movs	r2, #64	; 0x40
100007c4:	4463      	add	r3, ip
100007c6:	b510      	push	{r4, lr}
100007c8:	681c      	ldr	r4, [r3, #0]
100007ca:	00c0      	lsls	r0, r0, #3
100007cc:	4062      	eors	r2, r4
100007ce:	24c0      	movs	r4, #192	; 0xc0
100007d0:	4014      	ands	r4, r2
100007d2:	2280      	movs	r2, #128	; 0x80
100007d4:	0152      	lsls	r2, r2, #5
100007d6:	4313      	orrs	r3, r2
100007d8:	601c      	str	r4, [r3, #0]
100007da:	4b03      	ldr	r3, [pc, #12]	; (100007e8 <gpio_set_function+0x2c>)
100007dc:	469c      	mov	ip, r3
100007de:	4460      	add	r0, ip
100007e0:	6041      	str	r1, [r0, #4]
100007e2:	bd10      	pop	{r4, pc}
100007e4:	4001c004 	.word	0x4001c004
100007e8:	40014000 	.word	0x40014000

100007ec <gpio_init>:
100007ec:	2301      	movs	r3, #1
100007ee:	22d0      	movs	r2, #208	; 0xd0
100007f0:	4083      	lsls	r3, r0
100007f2:	0612      	lsls	r2, r2, #24
100007f4:	6293      	str	r3, [r2, #40]	; 0x28
100007f6:	6193      	str	r3, [r2, #24]
100007f8:	4a09      	ldr	r2, [pc, #36]	; (10000820 <gpio_init+0x34>)
100007fa:	0083      	lsls	r3, r0, #2
100007fc:	4694      	mov	ip, r2
100007fe:	2240      	movs	r2, #64	; 0x40
10000800:	4463      	add	r3, ip
10000802:	6819      	ldr	r1, [r3, #0]
10000804:	00c0      	lsls	r0, r0, #3
10000806:	404a      	eors	r2, r1
10000808:	21c0      	movs	r1, #192	; 0xc0
1000080a:	4011      	ands	r1, r2
1000080c:	2280      	movs	r2, #128	; 0x80
1000080e:	0152      	lsls	r2, r2, #5
10000810:	4313      	orrs	r3, r2
10000812:	6019      	str	r1, [r3, #0]
10000814:	4b03      	ldr	r3, [pc, #12]	; (10000824 <gpio_init+0x38>)
10000816:	469c      	mov	ip, r3
10000818:	2305      	movs	r3, #5
1000081a:	4460      	add	r0, ip
1000081c:	6043      	str	r3, [r0, #4]
1000081e:	4770      	bx	lr
10000820:	4001c004 	.word	0x4001c004
10000824:	40014000 	.word	0x40014000

10000828 <running_on_fpga>:
10000828:	4b02      	ldr	r3, [pc, #8]	; (10000834 <running_on_fpga+0xc>)
1000082a:	6818      	ldr	r0, [r3, #0]
1000082c:	0780      	lsls	r0, r0, #30
1000082e:	0fc0      	lsrs	r0, r0, #31
10000830:	4770      	bx	lr
10000832:	46c0      	nop			; (mov r8, r8)
10000834:	4006c000 	.word	0x4006c000

10000838 <hw_claim_lock>:
10000838:	f3ef 8010 	mrs	r0, PRIMASK
1000083c:	b672      	cpsid	i
1000083e:	4a03      	ldr	r2, [pc, #12]	; (1000084c <hw_claim_lock+0x14>)
10000840:	6813      	ldr	r3, [r2, #0]
10000842:	2b00      	cmp	r3, #0
10000844:	d0fc      	beq.n	10000840 <hw_claim_lock+0x8>
10000846:	f3bf 8f5f 	dmb	sy
1000084a:	4770      	bx	lr
1000084c:	d000012c 	.word	0xd000012c

10000850 <hw_claim_unlock>:
10000850:	f3bf 8f5f 	dmb	sy
10000854:	2200      	movs	r2, #0
10000856:	4b02      	ldr	r3, [pc, #8]	; (10000860 <hw_claim_unlock+0x10>)
10000858:	601a      	str	r2, [r3, #0]
1000085a:	f380 8810 	msr	PRIMASK, r0
1000085e:	4770      	bx	lr
10000860:	d000012c 	.word	0xd000012c

10000864 <hw_claim_or_assert>:
10000864:	b5f8      	push	{r3, r4, r5, r6, r7, lr}
10000866:	f3ef 8710 	mrs	r7, PRIMASK
1000086a:	b672      	cpsid	i
1000086c:	4e0e      	ldr	r6, [pc, #56]	; (100008a8 <hw_claim_or_assert+0x44>)
1000086e:	6833      	ldr	r3, [r6, #0]
10000870:	2b00      	cmp	r3, #0
10000872:	d0fc      	beq.n	1000086e <hw_claim_or_assert+0xa>
10000874:	f3bf 8f5f 	dmb	sy
10000878:	08cb      	lsrs	r3, r1, #3
1000087a:	18c4      	adds	r4, r0, r3
1000087c:	2507      	movs	r5, #7
1000087e:	46a4      	mov	ip, r4
10000880:	5cc4      	ldrb	r4, [r0, r3]
10000882:	2301      	movs	r3, #1
10000884:	400d      	ands	r5, r1
10000886:	40ab      	lsls	r3, r5
10000888:	0018      	movs	r0, r3
1000088a:	4020      	ands	r0, r4
1000088c:	4223      	tst	r3, r4
1000088e:	d108      	bne.n	100008a2 <hw_claim_or_assert+0x3e>
10000890:	4662      	mov	r2, ip
10000892:	4323      	orrs	r3, r4
10000894:	7013      	strb	r3, [r2, #0]
10000896:	f3bf 8f5f 	dmb	sy
1000089a:	6030      	str	r0, [r6, #0]
1000089c:	f387 8810 	msr	PRIMASK, r7
100008a0:	bdf8      	pop	{r3, r4, r5, r6, r7, pc}
100008a2:	0010      	movs	r0, r2
100008a4:	f001 fcb0 	bl	10002208 <panic>
100008a8:	d000012c 	.word	0xd000012c

100008ac <hw_claim_unused_from_range>:
100008ac:	b5f8      	push	{r3, r4, r5, r6, r7, lr}
100008ae:	46ce      	mov	lr, r9
100008b0:	4647      	mov	r7, r8
100008b2:	468c      	mov	ip, r1
100008b4:	b580      	push	{r7, lr}
100008b6:	f3ef 8810 	mrs	r8, PRIMASK
100008ba:	b672      	cpsid	i
100008bc:	4d21      	ldr	r5, [pc, #132]	; (10000944 <hw_claim_unused_from_range+0x98>)
100008be:	682c      	ldr	r4, [r5, #0]
100008c0:	2c00      	cmp	r4, #0
100008c2:	d0fc      	beq.n	100008be <hw_claim_unused_from_range+0x12>
100008c4:	f3bf 8f5f 	dmb	sy
100008c8:	429a      	cmp	r2, r3
100008ca:	d82c      	bhi.n	10000926 <hw_claim_unused_from_range+0x7a>
100008cc:	08d4      	lsrs	r4, r2, #3
100008ce:	2107      	movs	r1, #7
100008d0:	5d05      	ldrb	r5, [r0, r4]
100008d2:	1906      	adds	r6, r0, r4
100008d4:	2401      	movs	r4, #1
100008d6:	4011      	ands	r1, r2
100008d8:	408c      	lsls	r4, r1
100008da:	422c      	tst	r4, r5
100008dc:	d01f      	beq.n	1000091e <hw_claim_unused_from_range+0x72>
100008de:	2107      	movs	r1, #7
100008e0:	4689      	mov	r9, r1
100008e2:	3906      	subs	r1, #6
100008e4:	e009      	b.n	100008fa <hw_claim_unused_from_range+0x4e>
100008e6:	08d4      	lsrs	r4, r2, #3
100008e8:	5d05      	ldrb	r5, [r0, r4]
100008ea:	1906      	adds	r6, r0, r4
100008ec:	464c      	mov	r4, r9
100008ee:	000f      	movs	r7, r1
100008f0:	4014      	ands	r4, r2
100008f2:	40a7      	lsls	r7, r4
100008f4:	003c      	movs	r4, r7
100008f6:	422f      	tst	r7, r5
100008f8:	d011      	beq.n	1000091e <hw_claim_unused_from_range+0x72>
100008fa:	3201      	adds	r2, #1
100008fc:	4293      	cmp	r3, r2
100008fe:	d2f2      	bcs.n	100008e6 <hw_claim_unused_from_range+0x3a>
10000900:	2001      	movs	r0, #1
10000902:	4240      	negs	r0, r0
10000904:	f3bf 8f5f 	dmb	sy
10000908:	2200      	movs	r2, #0
1000090a:	4b0e      	ldr	r3, [pc, #56]	; (10000944 <hw_claim_unused_from_range+0x98>)
1000090c:	601a      	str	r2, [r3, #0]
1000090e:	f388 8810 	msr	PRIMASK, r8
10000912:	2800      	cmp	r0, #0
10000914:	db0f      	blt.n	10000936 <hw_claim_unused_from_range+0x8a>
10000916:	bc0c      	pop	{r2, r3}
10000918:	4690      	mov	r8, r2
1000091a:	4699      	mov	r9, r3
1000091c:	bdf8      	pop	{r3, r4, r5, r6, r7, pc}
1000091e:	432c      	orrs	r4, r5
10000920:	0010      	movs	r0, r2
10000922:	7034      	strb	r4, [r6, #0]
10000924:	e7ee      	b.n	10000904 <hw_claim_unused_from_range+0x58>
10000926:	f3bf 8f5f 	dmb	sy
1000092a:	2300      	movs	r3, #0
1000092c:	602b      	str	r3, [r5, #0]
1000092e:	f388 8810 	msr	PRIMASK, r8
10000932:	2001      	movs	r0, #1
10000934:	4240      	negs	r0, r0
10000936:	4663      	mov	r3, ip
10000938:	2b00      	cmp	r3, #0
1000093a:	d0ec      	beq.n	10000916 <hw_claim_unused_from_range+0x6a>
1000093c:	9808      	ldr	r0, [sp, #32]
1000093e:	f001 fc63 	bl	10002208 <panic>
10000942:	46c0      	nop			; (mov r8, r8)
10000944:	d000012c 	.word	0xd000012c

10000948 <spin_locks_reset>:
10000948:	2100      	movs	r1, #0
1000094a:	4b04      	ldr	r3, [pc, #16]	; (1000095c <spin_locks_reset+0x14>)
1000094c:	4a04      	ldr	r2, [pc, #16]	; (10000960 <spin_locks_reset+0x18>)
1000094e:	f3bf 8f5f 	dmb	sy
10000952:	c302      	stmia	r3!, {r1}
10000954:	4293      	cmp	r3, r2
10000956:	d1fa      	bne.n	1000094e <spin_locks_reset+0x6>
10000958:	4770      	bx	lr
1000095a:	46c0      	nop			; (mov r8, r8)
1000095c:	d0000100 	.word	0xd0000100
10000960:	d0000180 	.word	0xd0000180

10000964 <next_striped_spin_lock_num>:
10000964:	4a04      	ldr	r2, [pc, #16]	; (10000978 <next_striped_spin_lock_num+0x14>)
10000966:	7810      	ldrb	r0, [r2, #0]
10000968:	1c43      	adds	r3, r0, #1
1000096a:	b2db      	uxtb	r3, r3
1000096c:	2b17      	cmp	r3, #23
1000096e:	d900      	bls.n	10000972 <next_striped_spin_lock_num+0xe>
10000970:	2310      	movs	r3, #16
10000972:	7013      	strb	r3, [r2, #0]
10000974:	4770      	bx	lr
10000976:	46c0      	nop			; (mov r8, r8)
10000978:	2000147c 	.word	0x2000147c

1000097c <spin_lock_claim_unused>:
1000097c:	b500      	push	{lr}
1000097e:	4b05      	ldr	r3, [pc, #20]	; (10000994 <spin_lock_claim_unused+0x18>)
10000980:	b083      	sub	sp, #12
10000982:	0001      	movs	r1, r0
10000984:	9300      	str	r3, [sp, #0]
10000986:	2218      	movs	r2, #24
10000988:	231f      	movs	r3, #31
1000098a:	4803      	ldr	r0, [pc, #12]	; (10000998 <spin_lock_claim_unused+0x1c>)
1000098c:	f7ff ff8e 	bl	100008ac <hw_claim_unused_from_range>
10000990:	b003      	add	sp, #12
10000992:	bd00      	pop	{pc}
10000994:	10004760 	.word	0x10004760
10000998:	20001a2c 	.word	0x20001a2c

1000099c <irq_set_enabled>:
1000099c:	2301      	movs	r3, #1
1000099e:	4083      	lsls	r3, r0
100009a0:	2900      	cmp	r1, #0
100009a2:	d004      	beq.n	100009ae <irq_set_enabled+0x12>
100009a4:	4a03      	ldr	r2, [pc, #12]	; (100009b4 <irq_set_enabled+0x18>)
100009a6:	6013      	str	r3, [r2, #0]
100009a8:	4a03      	ldr	r2, [pc, #12]	; (100009b8 <irq_set_enabled+0x1c>)
100009aa:	6013      	str	r3, [r2, #0]
100009ac:	4770      	bx	lr
100009ae:	4a03      	ldr	r2, [pc, #12]	; (100009bc <irq_set_enabled+0x20>)
100009b0:	6013      	str	r3, [r2, #0]
100009b2:	e7fb      	b.n	100009ac <irq_set_enabled+0x10>
100009b4:	e000e280 	.word	0xe000e280
100009b8:	e000e100 	.word	0xe000e100
100009bc:	e000e180 	.word	0xe000e180

100009c0 <irq_is_enabled>:
100009c0:	2201      	movs	r2, #1
100009c2:	4082      	lsls	r2, r0
100009c4:	4b03      	ldr	r3, [pc, #12]	; (100009d4 <irq_is_enabled+0x14>)
100009c6:	681b      	ldr	r3, [r3, #0]
100009c8:	4013      	ands	r3, r2
100009ca:	1e58      	subs	r0, r3, #1
100009cc:	4183      	sbcs	r3, r0
100009ce:	b2d8      	uxtb	r0, r3
100009d0:	4770      	bx	lr
100009d2:	46c0      	nop			; (mov r8, r8)
100009d4:	e000e100 	.word	0xe000e100

100009d8 <irq_get_vtable_handler>:
100009d8:	4b02      	ldr	r3, [pc, #8]	; (100009e4 <irq_get_vtable_handler+0xc>)
100009da:	3010      	adds	r0, #16
100009dc:	689b      	ldr	r3, [r3, #8]
100009de:	0080      	lsls	r0, r0, #2
100009e0:	58c0      	ldr	r0, [r0, r3]
100009e2:	4770      	bx	lr
100009e4:	e000ed00 	.word	0xe000ed00

100009e8 <irq_set_exclusive_handler>:
100009e8:	b570      	push	{r4, r5, r6, lr}
100009ea:	000d      	movs	r5, r1
100009ec:	f3ef 8610 	mrs	r6, PRIMASK
100009f0:	b672      	cpsid	i
100009f2:	4a0f      	ldr	r2, [pc, #60]	; (10000a30 <irq_set_exclusive_handler+0x48>)
100009f4:	6813      	ldr	r3, [r2, #0]
100009f6:	2b00      	cmp	r3, #0
100009f8:	d0fc      	beq.n	100009f4 <irq_set_exclusive_handler+0xc>
100009fa:	f3bf 8f5f 	dmb	sy
100009fe:	4b0d      	ldr	r3, [pc, #52]	; (10000a34 <irq_set_exclusive_handler+0x4c>)
10000a00:	3010      	adds	r0, #16
10000a02:	689b      	ldr	r3, [r3, #8]
10000a04:	0084      	lsls	r4, r0, #2
10000a06:	591b      	ldr	r3, [r3, r4]
10000a08:	4a0b      	ldr	r2, [pc, #44]	; (10000a38 <irq_set_exclusive_handler+0x50>)
10000a0a:	4293      	cmp	r3, r2
10000a0c:	d003      	beq.n	10000a16 <irq_set_exclusive_handler+0x2e>
10000a0e:	429d      	cmp	r5, r3
10000a10:	d001      	beq.n	10000a16 <irq_set_exclusive_handler+0x2e>
10000a12:	f001 fc11 	bl	10002238 <hard_assertion_failure>
10000a16:	4b07      	ldr	r3, [pc, #28]	; (10000a34 <irq_set_exclusive_handler+0x4c>)
10000a18:	689b      	ldr	r3, [r3, #8]
10000a1a:	511d      	str	r5, [r3, r4]
10000a1c:	f3bf 8f5f 	dmb	sy
10000a20:	f3bf 8f5f 	dmb	sy
10000a24:	2200      	movs	r2, #0
10000a26:	4b02      	ldr	r3, [pc, #8]	; (10000a30 <irq_set_exclusive_handler+0x48>)
10000a28:	601a      	str	r2, [r3, #0]
10000a2a:	f386 8810 	msr	PRIMASK, r6
10000a2e:	bd70      	pop	{r4, r5, r6, pc}
10000a30:	d0000124 	.word	0xd0000124
10000a34:	e000ed00 	.word	0xe000ed00
10000a38:	100001cd 	.word	0x100001cd

10000a3c <irq_add_shared_handler>:
10000a3c:	b5f0      	push	{r4, r5, r6, r7, lr}
10000a3e:	4657      	mov	r7, sl
10000a40:	464e      	mov	r6, r9
10000a42:	4645      	mov	r5, r8
10000a44:	46de      	mov	lr, fp
10000a46:	b5e0      	push	{r5, r6, r7, lr}
10000a48:	4689      	mov	r9, r1
10000a4a:	b083      	sub	sp, #12
10000a4c:	0005      	movs	r5, r0
10000a4e:	0017      	movs	r7, r2
10000a50:	f3ef 8a10 	mrs	sl, PRIMASK
10000a54:	b672      	cpsid	i
10000a56:	4a5d      	ldr	r2, [pc, #372]	; (10000bcc <irq_add_shared_handler+0x190>)
10000a58:	6813      	ldr	r3, [r2, #0]
10000a5a:	2b00      	cmp	r3, #0
10000a5c:	d0fc      	beq.n	10000a58 <irq_add_shared_handler+0x1c>
10000a5e:	f3bf 8f5f 	dmb	sy
10000a62:	2000      	movs	r0, #0
10000a64:	4b5a      	ldr	r3, [pc, #360]	; (10000bd0 <irq_add_shared_handler+0x194>)
10000a66:	5618      	ldrsb	r0, [r3, r0]
10000a68:	469b      	mov	fp, r3
10000a6a:	2800      	cmp	r0, #0
10000a6c:	db6c      	blt.n	10000b48 <irq_add_shared_handler+0x10c>
10000a6e:	465a      	mov	r2, fp
10000a70:	0044      	lsls	r4, r0, #1
10000a72:	4e58      	ldr	r6, [pc, #352]	; (10000bd4 <irq_add_shared_handler+0x198>)
10000a74:	1824      	adds	r4, r4, r0
10000a76:	00a4      	lsls	r4, r4, #2
10000a78:	1933      	adds	r3, r6, r4
10000a7a:	4698      	mov	r8, r3
10000a7c:	799b      	ldrb	r3, [r3, #6]
10000a7e:	3510      	adds	r5, #16
10000a80:	7013      	strb	r3, [r2, #0]
10000a82:	4b55      	ldr	r3, [pc, #340]	; (10000bd8 <irq_add_shared_handler+0x19c>)
10000a84:	00aa      	lsls	r2, r5, #2
10000a86:	689b      	ldr	r3, [r3, #8]
10000a88:	9201      	str	r2, [sp, #4]
10000a8a:	589b      	ldr	r3, [r3, r2]
10000a8c:	469c      	mov	ip, r3
10000a8e:	1b9b      	subs	r3, r3, r6
10000a90:	2b2f      	cmp	r3, #47	; 0x2f
10000a92:	d828      	bhi.n	10000ae6 <irq_add_shared_handler+0xaa>
10000a94:	2201      	movs	r2, #1
10000a96:	4661      	mov	r1, ip
10000a98:	4391      	bics	r1, r2
10000a9a:	79cb      	ldrb	r3, [r1, #7]
10000a9c:	42bb      	cmp	r3, r7
10000a9e:	d808      	bhi.n	10000ab2 <irq_add_shared_handler+0x76>
10000aa0:	e06a      	b.n	10000b78 <irq_add_shared_handler+0x13c>
10000aa2:	0053      	lsls	r3, r2, #1
10000aa4:	189b      	adds	r3, r3, r2
10000aa6:	009b      	lsls	r3, r3, #2
10000aa8:	18f3      	adds	r3, r6, r3
10000aaa:	79dd      	ldrb	r5, [r3, #7]
10000aac:	42bd      	cmp	r5, r7
10000aae:	d951      	bls.n	10000b54 <irq_add_shared_handler+0x118>
10000ab0:	0019      	movs	r1, r3
10000ab2:	2206      	movs	r2, #6
10000ab4:	568a      	ldrsb	r2, [r1, r2]
10000ab6:	2a00      	cmp	r2, #0
10000ab8:	daf3      	bge.n	10000aa2 <irq_add_shared_handler+0x66>
10000aba:	1d0b      	adds	r3, r1, #4
10000abc:	469b      	mov	fp, r3
10000abe:	4e47      	ldr	r6, [pc, #284]	; (10000bdc <irq_add_shared_handler+0x1a0>)
10000ac0:	4643      	mov	r3, r8
10000ac2:	465c      	mov	r4, fp
10000ac4:	3b04      	subs	r3, #4
10000ac6:	1b1b      	subs	r3, r3, r4
10000ac8:	051b      	lsls	r3, r3, #20
10000aca:	4c45      	ldr	r4, [pc, #276]	; (10000be0 <irq_add_shared_handler+0x1a4>)
10000acc:	0d5b      	lsrs	r3, r3, #21
10000ace:	4323      	orrs	r3, r4
10000ad0:	808b      	strh	r3, [r1, #4]
10000ad2:	7188      	strb	r0, [r1, #6]
10000ad4:	4641      	mov	r1, r8
10000ad6:	718a      	strb	r2, [r1, #6]
10000ad8:	464a      	mov	r2, r9
10000ada:	4b42      	ldr	r3, [pc, #264]	; (10000be4 <irq_add_shared_handler+0x1a8>)
10000adc:	808e      	strh	r6, [r1, #4]
10000ade:	600b      	str	r3, [r1, #0]
10000ae0:	71cf      	strb	r7, [r1, #7]
10000ae2:	608a      	str	r2, [r1, #8]
10000ae4:	e01b      	b.n	10000b1e <irq_add_shared_handler+0xe2>
10000ae6:	4b40      	ldr	r3, [pc, #256]	; (10000be8 <irq_add_shared_handler+0x1ac>)
10000ae8:	459c      	cmp	ip, r3
10000aea:	d142      	bne.n	10000b72 <irq_add_shared_handler+0x136>
10000aec:	4642      	mov	r2, r8
10000aee:	4b3f      	ldr	r3, [pc, #252]	; (10000bec <irq_add_shared_handler+0x1b0>)
10000af0:	3402      	adds	r4, #2
10000af2:	8013      	strh	r3, [r2, #0]
10000af4:	4b3e      	ldr	r3, [pc, #248]	; (10000bf0 <irq_add_shared_handler+0x1b4>)
10000af6:	1936      	adds	r6, r6, r4
10000af8:	3b04      	subs	r3, #4
10000afa:	1b9e      	subs	r6, r3, r6
10000afc:	0536      	lsls	r6, r6, #20
10000afe:	4b38      	ldr	r3, [pc, #224]	; (10000be0 <irq_add_shared_handler+0x1a4>)
10000b00:	0d76      	lsrs	r6, r6, #21
10000b02:	431e      	orrs	r6, r3
10000b04:	4b3b      	ldr	r3, [pc, #236]	; (10000bf4 <irq_add_shared_handler+0x1b8>)
10000b06:	8056      	strh	r6, [r2, #2]
10000b08:	8093      	strh	r3, [r2, #4]
10000b0a:	23ff      	movs	r3, #255	; 0xff
10000b0c:	71d7      	strb	r7, [r2, #7]
10000b0e:	7193      	strb	r3, [r2, #6]
10000b10:	4643      	mov	r3, r8
10000b12:	464a      	mov	r2, r9
10000b14:	609a      	str	r2, [r3, #8]
10000b16:	2301      	movs	r3, #1
10000b18:	4642      	mov	r2, r8
10000b1a:	431a      	orrs	r2, r3
10000b1c:	4694      	mov	ip, r2
10000b1e:	4661      	mov	r1, ip
10000b20:	4b2d      	ldr	r3, [pc, #180]	; (10000bd8 <irq_add_shared_handler+0x19c>)
10000b22:	9a01      	ldr	r2, [sp, #4]
10000b24:	689b      	ldr	r3, [r3, #8]
10000b26:	5099      	str	r1, [r3, r2]
10000b28:	f3bf 8f5f 	dmb	sy
10000b2c:	f3bf 8f5f 	dmb	sy
10000b30:	2200      	movs	r2, #0
10000b32:	4b26      	ldr	r3, [pc, #152]	; (10000bcc <irq_add_shared_handler+0x190>)
10000b34:	601a      	str	r2, [r3, #0]
10000b36:	f38a 8810 	msr	PRIMASK, sl
10000b3a:	b003      	add	sp, #12
10000b3c:	bc3c      	pop	{r2, r3, r4, r5}
10000b3e:	4690      	mov	r8, r2
10000b40:	4699      	mov	r9, r3
10000b42:	46a2      	mov	sl, r4
10000b44:	46ab      	mov	fp, r5
10000b46:	bdf0      	pop	{r4, r5, r6, r7, pc}
10000b48:	f001 fb76 	bl	10002238 <hard_assertion_failure>
10000b4c:	465b      	mov	r3, fp
10000b4e:	2000      	movs	r0, #0
10000b50:	5618      	ldrsb	r0, [r3, r0]
10000b52:	e78c      	b.n	10000a6e <irq_add_shared_handler+0x32>
10000b54:	1d0b      	adds	r3, r1, #4
10000b56:	469b      	mov	fp, r3
10000b58:	888b      	ldrh	r3, [r1, #4]
10000b5a:	3404      	adds	r4, #4
10000b5c:	055b      	lsls	r3, r3, #21
10000b5e:	151b      	asrs	r3, r3, #20
10000b60:	445b      	add	r3, fp
10000b62:	1936      	adds	r6, r6, r4
10000b64:	1b9e      	subs	r6, r3, r6
10000b66:	23e0      	movs	r3, #224	; 0xe0
10000b68:	0536      	lsls	r6, r6, #20
10000b6a:	0d76      	lsrs	r6, r6, #21
10000b6c:	021b      	lsls	r3, r3, #8
10000b6e:	431e      	orrs	r6, r3
10000b70:	e7a6      	b.n	10000ac0 <irq_add_shared_handler+0x84>
10000b72:	f001 fb61 	bl	10002238 <hard_assertion_failure>
10000b76:	e7b9      	b.n	10000aec <irq_add_shared_handler+0xb0>
10000b78:	4645      	mov	r5, r8
10000b7a:	000b      	movs	r3, r1
10000b7c:	481e      	ldr	r0, [pc, #120]	; (10000bf8 <irq_add_shared_handler+0x1bc>)
10000b7e:	1b9b      	subs	r3, r3, r6
10000b80:	415b      	adcs	r3, r3
10000b82:	4358      	muls	r0, r3
10000b84:	0d00      	lsrs	r0, r0, #20
10000b86:	4b19      	ldr	r3, [pc, #100]	; (10000bec <irq_add_shared_handler+0x1b0>)
10000b88:	802b      	strh	r3, [r5, #0]
10000b8a:	1ca3      	adds	r3, r4, #2
10000b8c:	469c      	mov	ip, r3
10000b8e:	44b4      	add	ip, r6
10000b90:	4665      	mov	r5, ip
10000b92:	4b17      	ldr	r3, [pc, #92]	; (10000bf0 <irq_add_shared_handler+0x1b4>)
10000b94:	3404      	adds	r4, #4
10000b96:	3b04      	subs	r3, #4
10000b98:	1b5b      	subs	r3, r3, r5
10000b9a:	051b      	lsls	r3, r3, #20
10000b9c:	4d10      	ldr	r5, [pc, #64]	; (10000be0 <irq_add_shared_handler+0x1a4>)
10000b9e:	0d5b      	lsrs	r3, r3, #21
10000ba0:	46ac      	mov	ip, r5
10000ba2:	432b      	orrs	r3, r5
10000ba4:	4645      	mov	r5, r8
10000ba6:	1936      	adds	r6, r6, r4
10000ba8:	806b      	strh	r3, [r5, #2]
10000baa:	1f0b      	subs	r3, r1, #4
10000bac:	1b9e      	subs	r6, r3, r6
10000bae:	4663      	mov	r3, ip
10000bb0:	71a8      	strb	r0, [r5, #6]
10000bb2:	4648      	mov	r0, r9
10000bb4:	0536      	lsls	r6, r6, #20
10000bb6:	0d76      	lsrs	r6, r6, #21
10000bb8:	431e      	orrs	r6, r3
10000bba:	4b0a      	ldr	r3, [pc, #40]	; (10000be4 <irq_add_shared_handler+0x1a8>)
10000bbc:	80ae      	strh	r6, [r5, #4]
10000bbe:	71ef      	strb	r7, [r5, #7]
10000bc0:	60a8      	str	r0, [r5, #8]
10000bc2:	600b      	str	r3, [r1, #0]
10000bc4:	4643      	mov	r3, r8
10000bc6:	4313      	orrs	r3, r2
10000bc8:	469c      	mov	ip, r3
10000bca:	e7a8      	b.n	10000b1e <irq_add_shared_handler+0xe2>
10000bcc:	d0000124 	.word	0xd0000124
10000bd0:	20001f1a 	.word	0x20001f1a
10000bd4:	20001480 	.word	0x20001480
10000bd8:	e000ed00 	.word	0xe000ed00
10000bdc:	0000bd01 	.word	0x0000bd01
10000be0:	ffffe000 	.word	0xffffe000
10000be4:	47804801 	.word	0x47804801
10000be8:	100001cd 	.word	0x100001cd
10000bec:	ffffa100 	.word	0xffffa100
10000bf0:	200014b0 	.word	0x200014b0
10000bf4:	ffffbd01 	.word	0xffffbd01
10000bf8:	0000aaaa 	.word	0x0000aaaa

10000bfc <irq_remove_handler>:
10000bfc:	b5f0      	push	{r4, r5, r6, r7, lr}
10000bfe:	46de      	mov	lr, fp
10000c00:	4657      	mov	r7, sl
10000c02:	464e      	mov	r6, r9
10000c04:	4645      	mov	r5, r8
10000c06:	b5e0      	push	{r5, r6, r7, lr}
10000c08:	000c      	movs	r4, r1
10000c0a:	b083      	sub	sp, #12
10000c0c:	f3ef 8910 	mrs	r9, PRIMASK
10000c10:	b672      	cpsid	i
10000c12:	4a59      	ldr	r2, [pc, #356]	; (10000d78 <irq_remove_handler+0x17c>)
10000c14:	6813      	ldr	r3, [r2, #0]
10000c16:	2b00      	cmp	r3, #0
10000c18:	d0fc      	beq.n	10000c14 <irq_remove_handler+0x18>
10000c1a:	f3bf 8f5f 	dmb	sy
10000c1e:	4b57      	ldr	r3, [pc, #348]	; (10000d7c <irq_remove_handler+0x180>)
10000c20:	689a      	ldr	r2, [r3, #8]
10000c22:	0003      	movs	r3, r0
10000c24:	3310      	adds	r3, #16
10000c26:	009f      	lsls	r7, r3, #2
10000c28:	59d5      	ldr	r5, [r2, r7]
10000c2a:	4a55      	ldr	r2, [pc, #340]	; (10000d80 <irq_remove_handler+0x184>)
10000c2c:	4690      	mov	r8, r2
10000c2e:	4295      	cmp	r5, r2
10000c30:	d032      	beq.n	10000c98 <irq_remove_handler+0x9c>
10000c32:	42a5      	cmp	r5, r4
10000c34:	d043      	beq.n	10000cbe <irq_remove_handler+0xc2>
10000c36:	4e53      	ldr	r6, [pc, #332]	; (10000d84 <irq_remove_handler+0x188>)
10000c38:	1baa      	subs	r2, r5, r6
10000c3a:	2a2f      	cmp	r2, #47	; 0x2f
10000c3c:	d82c      	bhi.n	10000c98 <irq_remove_handler+0x9c>
10000c3e:	2201      	movs	r2, #1
10000c40:	4082      	lsls	r2, r0
10000c42:	4692      	mov	sl, r2
10000c44:	4651      	mov	r1, sl
10000c46:	4a50      	ldr	r2, [pc, #320]	; (10000d88 <irq_remove_handler+0x18c>)
10000c48:	6812      	ldr	r2, [r2, #0]
10000c4a:	4011      	ands	r1, r2
10000c4c:	9101      	str	r1, [sp, #4]
10000c4e:	4651      	mov	r1, sl
10000c50:	4a4e      	ldr	r2, [pc, #312]	; (10000d8c <irq_remove_handler+0x190>)
10000c52:	6011      	str	r1, [r2, #0]
10000c54:	f3bf 8f5f 	dmb	sy
10000c58:	f3ef 8205 	mrs	r2, IPSR
10000c5c:	4693      	mov	fp, r2
10000c5e:	2a00      	cmp	r2, #0
10000c60:	d133      	bne.n	10000cca <irq_remove_handler+0xce>
10000c62:	2301      	movs	r3, #1
10000c64:	002a      	movs	r2, r5
10000c66:	439a      	bics	r2, r3
10000c68:	6893      	ldr	r3, [r2, #8]
10000c6a:	429c      	cmp	r4, r3
10000c6c:	d108      	bne.n	10000c80 <irq_remove_handler+0x84>
10000c6e:	e078      	b.n	10000d62 <irq_remove_handler+0x166>
10000c70:	004b      	lsls	r3, r1, #1
10000c72:	185b      	adds	r3, r3, r1
10000c74:	009b      	lsls	r3, r3, #2
10000c76:	18f3      	adds	r3, r6, r3
10000c78:	6899      	ldr	r1, [r3, #8]
10000c7a:	42a1      	cmp	r1, r4
10000c7c:	d02a      	beq.n	10000cd4 <irq_remove_handler+0xd8>
10000c7e:	001a      	movs	r2, r3
10000c80:	2106      	movs	r1, #6
10000c82:	5651      	ldrsb	r1, [r2, r1]
10000c84:	2900      	cmp	r1, #0
10000c86:	daf3      	bge.n	10000c70 <irq_remove_handler+0x74>
10000c88:	9b01      	ldr	r3, [sp, #4]
10000c8a:	2b00      	cmp	r3, #0
10000c8c:	d019      	beq.n	10000cc2 <irq_remove_handler+0xc6>
10000c8e:	4652      	mov	r2, sl
10000c90:	4b3f      	ldr	r3, [pc, #252]	; (10000d90 <irq_remove_handler+0x194>)
10000c92:	601a      	str	r2, [r3, #0]
10000c94:	4b3c      	ldr	r3, [pc, #240]	; (10000d88 <irq_remove_handler+0x18c>)
10000c96:	601a      	str	r2, [r3, #0]
10000c98:	4b38      	ldr	r3, [pc, #224]	; (10000d7c <irq_remove_handler+0x180>)
10000c9a:	689b      	ldr	r3, [r3, #8]
10000c9c:	51dd      	str	r5, [r3, r7]
10000c9e:	f3bf 8f5f 	dmb	sy
10000ca2:	f3bf 8f5f 	dmb	sy
10000ca6:	2200      	movs	r2, #0
10000ca8:	4b33      	ldr	r3, [pc, #204]	; (10000d78 <irq_remove_handler+0x17c>)
10000caa:	601a      	str	r2, [r3, #0]
10000cac:	f389 8810 	msr	PRIMASK, r9
10000cb0:	b003      	add	sp, #12
10000cb2:	bc3c      	pop	{r2, r3, r4, r5}
10000cb4:	4690      	mov	r8, r2
10000cb6:	4699      	mov	r9, r3
10000cb8:	46a2      	mov	sl, r4
10000cba:	46ab      	mov	fp, r5
10000cbc:	bdf0      	pop	{r4, r5, r6, r7, pc}
10000cbe:	0015      	movs	r5, r2
10000cc0:	e7ea      	b.n	10000c98 <irq_remove_handler+0x9c>
10000cc2:	4652      	mov	r2, sl
10000cc4:	4b31      	ldr	r3, [pc, #196]	; (10000d8c <irq_remove_handler+0x190>)
10000cc6:	601a      	str	r2, [r3, #0]
10000cc8:	e7e6      	b.n	10000c98 <irq_remove_handler+0x9c>
10000cca:	4293      	cmp	r3, r2
10000ccc:	d0c9      	beq.n	10000c62 <irq_remove_handler+0x66>
10000cce:	f001 fab3 	bl	10002238 <hard_assertion_failure>
10000cd2:	e7c6      	b.n	10000c62 <irq_remove_handler+0x66>
10000cd4:	2106      	movs	r1, #6
10000cd6:	5659      	ldrsb	r1, [r3, r1]
10000cd8:	2900      	cmp	r1, #0
10000cda:	db22      	blt.n	10000d22 <irq_remove_handler+0x126>
10000cdc:	004a      	lsls	r2, r1, #1
10000cde:	1850      	adds	r0, r2, r1
10000ce0:	0080      	lsls	r0, r0, #2
10000ce2:	1834      	adds	r4, r6, r0
10000ce4:	4680      	mov	r8, r0
10000ce6:	68a0      	ldr	r0, [r4, #8]
10000ce8:	6098      	str	r0, [r3, #8]
10000cea:	79e0      	ldrb	r0, [r4, #7]
10000cec:	71d8      	strb	r0, [r3, #7]
10000cee:	2006      	movs	r0, #6
10000cf0:	5620      	ldrsb	r0, [r4, r0]
10000cf2:	7198      	strb	r0, [r3, #6]
10000cf4:	79a0      	ldrb	r0, [r4, #6]
10000cf6:	287f      	cmp	r0, #127	; 0x7f
10000cf8:	d824      	bhi.n	10000d44 <irq_remove_handler+0x148>
10000cfa:	88a4      	ldrh	r4, [r4, #4]
10000cfc:	1af0      	subs	r0, r6, r3
10000cfe:	0564      	lsls	r4, r4, #21
10000d00:	1524      	asrs	r4, r4, #20
10000d02:	4444      	add	r4, r8
10000d04:	1900      	adds	r0, r0, r4
10000d06:	24e0      	movs	r4, #224	; 0xe0
10000d08:	0500      	lsls	r0, r0, #20
10000d0a:	0d40      	lsrs	r0, r0, #21
10000d0c:	0224      	lsls	r4, r4, #8
10000d0e:	4320      	orrs	r0, r4
10000d10:	8098      	strh	r0, [r3, #4]
10000d12:	1852      	adds	r2, r2, r1
10000d14:	4b1f      	ldr	r3, [pc, #124]	; (10000d94 <irq_remove_handler+0x198>)
10000d16:	0092      	lsls	r2, r2, #2
10000d18:	18b6      	adds	r6, r6, r2
10000d1a:	781a      	ldrb	r2, [r3, #0]
10000d1c:	7019      	strb	r1, [r3, #0]
10000d1e:	71b2      	strb	r2, [r6, #6]
10000d20:	e7b2      	b.n	10000c88 <irq_remove_handler+0x8c>
10000d22:	4659      	mov	r1, fp
10000d24:	2900      	cmp	r1, #0
10000d26:	d10f      	bne.n	10000d48 <irq_remove_handler+0x14c>
10000d28:	31ff      	adds	r1, #255	; 0xff
10000d2a:	7191      	strb	r1, [r2, #6]
10000d2c:	491a      	ldr	r1, [pc, #104]	; (10000d98 <irq_remove_handler+0x19c>)
10000d2e:	8091      	strh	r1, [r2, #4]
10000d30:	4918      	ldr	r1, [pc, #96]	; (10000d94 <irq_remove_handler+0x198>)
10000d32:	780a      	ldrb	r2, [r1, #0]
10000d34:	719a      	strb	r2, [r3, #6]
10000d36:	4a19      	ldr	r2, [pc, #100]	; (10000d9c <irq_remove_handler+0x1a0>)
10000d38:	1b9b      	subs	r3, r3, r6
10000d3a:	415b      	adcs	r3, r3
10000d3c:	435a      	muls	r2, r3
10000d3e:	0d12      	lsrs	r2, r2, #20
10000d40:	700a      	strb	r2, [r1, #0]
10000d42:	e7a1      	b.n	10000c88 <irq_remove_handler+0x8c>
10000d44:	4816      	ldr	r0, [pc, #88]	; (10000da0 <irq_remove_handler+0x1a4>)
10000d46:	e7e3      	b.n	10000d10 <irq_remove_handler+0x114>
10000d48:	4a16      	ldr	r2, [pc, #88]	; (10000da4 <irq_remove_handler+0x1a8>)
10000d4a:	4917      	ldr	r1, [pc, #92]	; (10000da8 <irq_remove_handler+0x1ac>)
10000d4c:	1ad2      	subs	r2, r2, r3
10000d4e:	3a08      	subs	r2, #8
10000d50:	0250      	lsls	r0, r2, #9
10000d52:	0d40      	lsrs	r0, r0, #21
10000d54:	4301      	orrs	r1, r0
10000d56:	8099      	strh	r1, [r3, #4]
10000d58:	4914      	ldr	r1, [pc, #80]	; (10000dac <irq_remove_handler+0x1b0>)
10000d5a:	0852      	lsrs	r2, r2, #1
10000d5c:	430a      	orrs	r2, r1
10000d5e:	80da      	strh	r2, [r3, #6]
10000d60:	e792      	b.n	10000c88 <irq_remove_handler+0x8c>
10000d62:	2106      	movs	r1, #6
10000d64:	5651      	ldrsb	r1, [r2, r1]
10000d66:	0013      	movs	r3, r2
10000d68:	2900      	cmp	r1, #0
10000d6a:	dab7      	bge.n	10000cdc <irq_remove_handler+0xe0>
10000d6c:	465a      	mov	r2, fp
10000d6e:	2a00      	cmp	r2, #0
10000d70:	d1ea      	bne.n	10000d48 <irq_remove_handler+0x14c>
10000d72:	4645      	mov	r5, r8
10000d74:	e7dc      	b.n	10000d30 <irq_remove_handler+0x134>
10000d76:	46c0      	nop			; (mov r8, r8)
10000d78:	d0000124 	.word	0xd0000124
10000d7c:	e000ed00 	.word	0xe000ed00
10000d80:	100001cd 	.word	0x100001cd
10000d84:	20001480 	.word	0x20001480
10000d88:	e000e100 	.word	0xe000e100
10000d8c:	e000e180 	.word	0xe000e180
10000d90:	e000e280 	.word	0xe000e280
10000d94:	20001f1a 	.word	0x20001f1a
10000d98:	ffffbd01 	.word	0xffffbd01
10000d9c:	0000aaaa 	.word	0x0000aaaa
10000da0:	0000bd01 	.word	0x0000bd01
10000da4:	200014ba 	.word	0x200014ba
10000da8:	fffff000 	.word	0xfffff000
10000dac:	fffff800 	.word	0xfffff800

10000db0 <irq_add_tail_to_free_list>:
10000db0:	b5f0      	push	{r4, r5, r6, r7, lr}
10000db2:	f3ef 8105 	mrs	r1, IPSR
10000db6:	2401      	movs	r4, #1
10000db8:	4304      	orrs	r4, r0
10000dba:	f3ef 8610 	mrs	r6, PRIMASK
10000dbe:	b672      	cpsid	i
10000dc0:	4a21      	ldr	r2, [pc, #132]	; (10000e48 <irq_add_tail_to_free_list+0x98>)
10000dc2:	6813      	ldr	r3, [r2, #0]
10000dc4:	2b00      	cmp	r3, #0
10000dc6:	d0fc      	beq.n	10000dc2 <irq_add_tail_to_free_list+0x12>
10000dc8:	f3bf 8f5f 	dmb	sy
10000dcc:	4b1f      	ldr	r3, [pc, #124]	; (10000e4c <irq_add_tail_to_free_list+0x9c>)
10000dce:	0005      	movs	r5, r0
10000dd0:	4a1f      	ldr	r2, [pc, #124]	; (10000e50 <irq_add_tail_to_free_list+0xa0>)
10000dd2:	1aed      	subs	r5, r5, r3
10000dd4:	416d      	adcs	r5, r5
10000dd6:	436a      	muls	r2, r5
10000dd8:	0d12      	lsrs	r2, r2, #20
10000dda:	4d1e      	ldr	r5, [pc, #120]	; (10000e54 <irq_add_tail_to_free_list+0xa4>)
10000ddc:	0089      	lsls	r1, r1, #2
10000dde:	68af      	ldr	r7, [r5, #8]
10000de0:	b252      	sxtb	r2, r2
10000de2:	587f      	ldr	r7, [r7, r1]
10000de4:	42a7      	cmp	r7, r4
10000de6:	d01c      	beq.n	10000e22 <irq_add_tail_to_free_list+0x72>
10000de8:	2106      	movs	r1, #6
10000dea:	5659      	ldrsb	r1, [r3, r1]
10000dec:	4291      	cmp	r1, r2
10000dee:	d01c      	beq.n	10000e2a <irq_add_tail_to_free_list+0x7a>
10000df0:	2112      	movs	r1, #18
10000df2:	5659      	ldrsb	r1, [r3, r1]
10000df4:	4291      	cmp	r1, r2
10000df6:	d022      	beq.n	10000e3e <irq_add_tail_to_free_list+0x8e>
10000df8:	211e      	movs	r1, #30
10000dfa:	5659      	ldrsb	r1, [r3, r1]
10000dfc:	4291      	cmp	r1, r2
10000dfe:	d020      	beq.n	10000e42 <irq_add_tail_to_free_list+0x92>
10000e00:	212a      	movs	r1, #42	; 0x2a
10000e02:	5659      	ldrsb	r1, [r3, r1]
10000e04:	2403      	movs	r4, #3
10000e06:	4291      	cmp	r1, r2
10000e08:	d010      	beq.n	10000e2c <irq_add_tail_to_free_list+0x7c>
10000e0a:	4b13      	ldr	r3, [pc, #76]	; (10000e58 <irq_add_tail_to_free_list+0xa8>)
10000e0c:	7819      	ldrb	r1, [r3, #0]
10000e0e:	701a      	strb	r2, [r3, #0]
10000e10:	7181      	strb	r1, [r0, #6]
10000e12:	f3bf 8f5f 	dmb	sy
10000e16:	2200      	movs	r2, #0
10000e18:	4b0b      	ldr	r3, [pc, #44]	; (10000e48 <irq_add_tail_to_free_list+0x98>)
10000e1a:	601a      	str	r2, [r3, #0]
10000e1c:	f386 8810 	msr	PRIMASK, r6
10000e20:	bdf0      	pop	{r4, r5, r6, r7, pc}
10000e22:	68ab      	ldr	r3, [r5, #8]
10000e24:	4c0d      	ldr	r4, [pc, #52]	; (10000e5c <irq_add_tail_to_free_list+0xac>)
10000e26:	505c      	str	r4, [r3, r1]
10000e28:	e7ef      	b.n	10000e0a <irq_add_tail_to_free_list+0x5a>
10000e2a:	2400      	movs	r4, #0
10000e2c:	0061      	lsls	r1, r4, #1
10000e2e:	1909      	adds	r1, r1, r4
10000e30:	0089      	lsls	r1, r1, #2
10000e32:	185b      	adds	r3, r3, r1
10000e34:	21ff      	movs	r1, #255	; 0xff
10000e36:	7199      	strb	r1, [r3, #6]
10000e38:	4909      	ldr	r1, [pc, #36]	; (10000e60 <irq_add_tail_to_free_list+0xb0>)
10000e3a:	8099      	strh	r1, [r3, #4]
10000e3c:	e7e5      	b.n	10000e0a <irq_add_tail_to_free_list+0x5a>
10000e3e:	2401      	movs	r4, #1
10000e40:	e7f4      	b.n	10000e2c <irq_add_tail_to_free_list+0x7c>
10000e42:	2402      	movs	r4, #2
10000e44:	e7f2      	b.n	10000e2c <irq_add_tail_to_free_list+0x7c>
10000e46:	46c0      	nop			; (mov r8, r8)
10000e48:	d0000124 	.word	0xd0000124
10000e4c:	20001480 	.word	0x20001480
10000e50:	0000aaaa 	.word	0x0000aaaa
10000e54:	e000ed00 	.word	0xe000ed00
10000e58:	20001f1a 	.word	0x20001f1a
10000e5c:	100001cd 	.word	0x100001cd
10000e60:	ffffbd01 	.word	0xffffbd01

10000e64 <irq_init_priorities>:
10000e64:	4b05      	ldr	r3, [pc, #20]	; (10000e7c <irq_init_priorities+0x18>)
10000e66:	4a06      	ldr	r2, [pc, #24]	; (10000e80 <irq_init_priorities+0x1c>)
10000e68:	6013      	str	r3, [r2, #0]
10000e6a:	4a06      	ldr	r2, [pc, #24]	; (10000e84 <irq_init_priorities+0x20>)
10000e6c:	6013      	str	r3, [r2, #0]
10000e6e:	6053      	str	r3, [r2, #4]
10000e70:	6093      	str	r3, [r2, #8]
10000e72:	60d3      	str	r3, [r2, #12]
10000e74:	6113      	str	r3, [r2, #16]
10000e76:	6153      	str	r3, [r2, #20]
10000e78:	6193      	str	r3, [r2, #24]
10000e7a:	4770      	bx	lr
10000e7c:	80808080 	.word	0x80808080
10000e80:	e000e400 	.word	0xe000e400
10000e84:	e000e404 	.word	0xe000e404

10000e88 <lock_init>:
10000e88:	4b02      	ldr	r3, [pc, #8]	; (10000e94 <lock_init+0xc>)
10000e8a:	469c      	mov	ip, r3
10000e8c:	4461      	add	r1, ip
10000e8e:	0089      	lsls	r1, r1, #2
10000e90:	6001      	str	r1, [r0, #0]
10000e92:	4770      	bx	lr
10000e94:	34000040 	.word	0x34000040

10000e98 <mutex_init>:
10000e98:	b510      	push	{r4, lr}
10000e9a:	0004      	movs	r4, r0
10000e9c:	f7ff fd62 	bl	10000964 <next_striped_spin_lock_num>
10000ea0:	0001      	movs	r1, r0
10000ea2:	0020      	movs	r0, r4
10000ea4:	f7ff fff0 	bl	10000e88 <lock_init>
10000ea8:	23ff      	movs	r3, #255	; 0xff
10000eaa:	7123      	strb	r3, [r4, #4]
10000eac:	f3bf 8f5f 	dmb	sy
10000eb0:	bd10      	pop	{r4, pc}
10000eb2:	46c0      	nop			; (mov r8, r8)

10000eb4 <recursive_mutex_init>:
10000eb4:	b510      	push	{r4, lr}
10000eb6:	0004      	movs	r4, r0
10000eb8:	f7ff fd54 	bl	10000964 <next_striped_spin_lock_num>
10000ebc:	0001      	movs	r1, r0
10000ebe:	0020      	movs	r0, r4
10000ec0:	f7ff ffe2 	bl	10000e88 <lock_init>
10000ec4:	23ff      	movs	r3, #255	; 0xff
10000ec6:	80a3      	strh	r3, [r4, #4]
10000ec8:	f3bf 8f5f 	dmb	sy
10000ecc:	bd10      	pop	{r4, pc}
10000ece:	46c0      	nop			; (mov r8, r8)

10000ed0 <critical_section_init>:
10000ed0:	b510      	push	{r4, lr}
10000ed2:	0004      	movs	r4, r0
10000ed4:	2001      	movs	r0, #1
10000ed6:	f7ff fd51 	bl	1000097c <spin_lock_claim_unused>
10000eda:	4b03      	ldr	r3, [pc, #12]	; (10000ee8 <critical_section_init+0x18>)
10000edc:	18c3      	adds	r3, r0, r3
10000ede:	009b      	lsls	r3, r3, #2
10000ee0:	6023      	str	r3, [r4, #0]
10000ee2:	f3bf 8f5f 	dmb	sy
10000ee6:	bd10      	pop	{r4, pc}
10000ee8:	34000040 	.word	0x34000040

10000eec <timer_pool_entry_comparator>:
10000eec:	6883      	ldr	r3, [r0, #8]
10000eee:	480b      	ldr	r0, [pc, #44]	; (10000f1c <timer_pool_entry_comparator+0x30>)
10000ef0:	b510      	push	{r4, lr}
10000ef2:	4684      	mov	ip, r0
10000ef4:	4461      	add	r1, ip
10000ef6:	4462      	add	r2, ip
10000ef8:	0109      	lsls	r1, r1, #4
10000efa:	0112      	lsls	r2, r2, #4
10000efc:	189a      	adds	r2, r3, r2
10000efe:	1859      	adds	r1, r3, r1
10000f00:	6854      	ldr	r4, [r2, #4]
10000f02:	684b      	ldr	r3, [r1, #4]
10000f04:	2001      	movs	r0, #1
10000f06:	429c      	cmp	r4, r3
10000f08:	d801      	bhi.n	10000f0e <timer_pool_entry_comparator+0x22>
10000f0a:	d002      	beq.n	10000f12 <timer_pool_entry_comparator+0x26>
10000f0c:	2000      	movs	r0, #0
10000f0e:	b2c0      	uxtb	r0, r0
10000f10:	bd10      	pop	{r4, pc}
10000f12:	6812      	ldr	r2, [r2, #0]
10000f14:	680b      	ldr	r3, [r1, #0]
10000f16:	429a      	cmp	r2, r3
10000f18:	d8f9      	bhi.n	10000f0e <timer_pool_entry_comparator+0x22>
10000f1a:	e7f7      	b.n	10000f0c <timer_pool_entry_comparator+0x20>
10000f1c:	0fffffff 	.word	0x0fffffff

10000f20 <sleep_until_callback>:
10000f20:	4b0a      	ldr	r3, [pc, #40]	; (10000f4c <sleep_until_callback+0x2c>)
10000f22:	6819      	ldr	r1, [r3, #0]
10000f24:	f3ef 8010 	mrs	r0, PRIMASK
10000f28:	b672      	cpsid	i
10000f2a:	680a      	ldr	r2, [r1, #0]
10000f2c:	2a00      	cmp	r2, #0
10000f2e:	d0fc      	beq.n	10000f2a <sleep_until_callback+0xa>
10000f30:	f3bf 8f5f 	dmb	sy
10000f34:	681b      	ldr	r3, [r3, #0]
10000f36:	f3bf 8f5f 	dmb	sy
10000f3a:	2200      	movs	r2, #0
10000f3c:	601a      	str	r2, [r3, #0]
10000f3e:	f380 8810 	msr	PRIMASK, r0
10000f42:	bf40      	sev
10000f44:	2000      	movs	r0, #0
10000f46:	2100      	movs	r1, #0
10000f48:	4770      	bx	lr
10000f4a:	46c0      	nop			; (mov r8, r8)
10000f4c:	20001ed4 	.word	0x20001ed4

10000f50 <add_alarm_under_lock>:
10000f50:	b5f8      	push	{r3, r4, r5, r6, r7, lr}
10000f52:	4657      	mov	r7, sl
10000f54:	4645      	mov	r5, r8
10000f56:	464e      	mov	r6, r9
10000f58:	46de      	mov	lr, fp
10000f5a:	b5e0      	push	{r5, r6, r7, lr}
10000f5c:	4699      	mov	r9, r3
10000f5e:	ab0c      	add	r3, sp, #48	; 0x30
10000f60:	7819      	ldrb	r1, [r3, #0]
10000f62:	ab0d      	add	r3, sp, #52	; 0x34
10000f64:	781b      	ldrb	r3, [r3, #0]
10000f66:	0005      	movs	r5, r0
10000f68:	4690      	mov	r8, r2
10000f6a:	469a      	mov	sl, r3
10000f6c:	6807      	ldr	r7, [r0, #0]
10000f6e:	2900      	cmp	r1, #0
10000f70:	d112      	bne.n	10000f98 <add_alarm_under_lock+0x48>
10000f72:	7bbe      	ldrb	r6, [r7, #14]
10000f74:	2e00      	cmp	r6, #0
10000f76:	d045      	beq.n	10001004 <add_alarm_under_lock+0xb4>
10000f78:	0074      	lsls	r4, r6, #1
10000f7a:	683b      	ldr	r3, [r7, #0]
10000f7c:	19a4      	adds	r4, r4, r6
10000f7e:	3c03      	subs	r4, #3
10000f80:	191b      	adds	r3, r3, r4
10000f82:	785a      	ldrb	r2, [r3, #1]
10000f84:	0031      	movs	r1, r6
10000f86:	73ba      	strb	r2, [r7, #14]
10000f88:	2a00      	cmp	r2, #0
10000f8a:	d100      	bne.n	10000f8e <add_alarm_under_lock+0x3e>
10000f8c:	73fa      	strb	r2, [r7, #15]
10000f8e:	2200      	movs	r2, #0
10000f90:	709a      	strb	r2, [r3, #2]
10000f92:	705a      	strb	r2, [r3, #1]
10000f94:	701a      	strb	r2, [r3, #0]
10000f96:	e003      	b.n	10000fa0 <add_alarm_under_lock+0x50>
10000f98:	000e      	movs	r6, r1
10000f9a:	004c      	lsls	r4, r1, #1
10000f9c:	1864      	adds	r4, r4, r1
10000f9e:	3c03      	subs	r4, #3
10000fa0:	4b2c      	ldr	r3, [pc, #176]	; (10001054 <add_alarm_under_lock+0x104>)
10000fa2:	2200      	movs	r2, #0
10000fa4:	469c      	mov	ip, r3
10000fa6:	68ab      	ldr	r3, [r5, #8]
10000fa8:	4461      	add	r1, ip
10000faa:	469c      	mov	ip, r3
10000fac:	4643      	mov	r3, r8
10000fae:	0109      	lsls	r1, r1, #4
10000fb0:	4461      	add	r1, ip
10000fb2:	600b      	str	r3, [r1, #0]
10000fb4:	464b      	mov	r3, r9
10000fb6:	604b      	str	r3, [r1, #4]
10000fb8:	9b0a      	ldr	r3, [sp, #40]	; 0x28
10000fba:	608b      	str	r3, [r1, #8]
10000fbc:	9b0b      	ldr	r3, [sp, #44]	; 0x2c
10000fbe:	60cb      	str	r3, [r1, #12]
10000fc0:	683b      	ldr	r3, [r7, #0]
10000fc2:	191b      	adds	r3, r3, r4
10000fc4:	709a      	strb	r2, [r3, #2]
10000fc6:	705a      	strb	r2, [r3, #1]
10000fc8:	701a      	strb	r2, [r3, #0]
10000fca:	7b7b      	ldrb	r3, [r7, #13]
10000fcc:	469b      	mov	fp, r3
10000fce:	2b00      	cmp	r3, #0
10000fd0:	d02c      	beq.n	1000102c <add_alarm_under_lock+0xdc>
10000fd2:	0032      	movs	r2, r6
10000fd4:	4659      	mov	r1, fp
10000fd6:	68b8      	ldr	r0, [r7, #8]
10000fd8:	687b      	ldr	r3, [r7, #4]
10000fda:	4798      	blx	r3
10000fdc:	683a      	ldr	r2, [r7, #0]
10000fde:	2800      	cmp	r0, #0
10000fe0:	d017      	beq.n	10001012 <add_alarm_under_lock+0xc2>
10000fe2:	465b      	mov	r3, fp
10000fe4:	4658      	mov	r0, fp
10000fe6:	005b      	lsls	r3, r3, #1
10000fe8:	445b      	add	r3, fp
10000fea:	1914      	adds	r4, r2, r4
10000fec:	3b03      	subs	r3, #3
10000fee:	70a0      	strb	r0, [r4, #2]
10000ff0:	18d1      	adds	r1, r2, r3
10000ff2:	5cd3      	ldrb	r3, [r2, r3]
10000ff4:	2b00      	cmp	r3, #0
10000ff6:	d000      	beq.n	10000ffa <add_alarm_under_lock+0xaa>
10000ff8:	7063      	strb	r3, [r4, #1]
10000ffa:	465b      	mov	r3, fp
10000ffc:	700e      	strb	r6, [r1, #0]
10000ffe:	737b      	strb	r3, [r7, #13]
10001000:	45b3      	cmp	fp, r6
10001002:	d014      	beq.n	1000102e <add_alarm_under_lock+0xde>
10001004:	0030      	movs	r0, r6
10001006:	bc3c      	pop	{r2, r3, r4, r5}
10001008:	4690      	mov	r8, r2
1000100a:	4699      	mov	r9, r3
1000100c:	46a2      	mov	sl, r4
1000100e:	46ab      	mov	fp, r5
10001010:	bdf8      	pop	{r3, r4, r5, r6, r7, pc}
10001012:	465b      	mov	r3, fp
10001014:	005b      	lsls	r3, r3, #1
10001016:	445b      	add	r3, fp
10001018:	3b03      	subs	r3, #3
1000101a:	18d3      	adds	r3, r2, r3
1000101c:	709e      	strb	r6, [r3, #2]
1000101e:	1911      	adds	r1, r2, r4
10001020:	5d12      	ldrb	r2, [r2, r4]
10001022:	2a00      	cmp	r2, #0
10001024:	d000      	beq.n	10001028 <add_alarm_under_lock+0xd8>
10001026:	705a      	strb	r2, [r3, #1]
10001028:	465b      	mov	r3, fp
1000102a:	700b      	strb	r3, [r1, #0]
1000102c:	737e      	strb	r6, [r7, #13]
1000102e:	4642      	mov	r2, r8
10001030:	464b      	mov	r3, r9
10001032:	7d28      	ldrb	r0, [r5, #20]
10001034:	f000 fb98 	bl	10001768 <hardware_alarm_set_target>
10001038:	1e04      	subs	r4, r0, #0
1000103a:	d006      	beq.n	1000104a <add_alarm_under_lock+0xfa>
1000103c:	4653      	mov	r3, sl
1000103e:	2b00      	cmp	r3, #0
10001040:	d103      	bne.n	1000104a <add_alarm_under_lock+0xfa>
10001042:	0031      	movs	r1, r6
10001044:	6828      	ldr	r0, [r5, #0]
10001046:	f000 fddd 	bl	10001c04 <ph_remove_and_free_node>
1000104a:	9b0e      	ldr	r3, [sp, #56]	; 0x38
1000104c:	2b00      	cmp	r3, #0
1000104e:	d0d9      	beq.n	10001004 <add_alarm_under_lock+0xb4>
10001050:	701c      	strb	r4, [r3, #0]
10001052:	e7d7      	b.n	10001004 <add_alarm_under_lock+0xb4>
10001054:	0fffffff 	.word	0x0fffffff

10001058 <alarm_pool_alarm_callback>:
10001058:	b5f0      	push	{r4, r5, r6, r7, lr}
1000105a:	46de      	mov	lr, fp
1000105c:	4657      	mov	r7, sl
1000105e:	464e      	mov	r6, r9
10001060:	4645      	mov	r5, r8
10001062:	2300      	movs	r3, #0
10001064:	b5e0      	push	{r5, r6, r7, lr}
10001066:	b08b      	sub	sp, #44	; 0x2c
10001068:	9308      	str	r3, [sp, #32]
1000106a:	4b66      	ldr	r3, [pc, #408]	; (10001204 <alarm_pool_alarm_callback+0x1ac>)
1000106c:	0082      	lsls	r2, r0, #2
1000106e:	58d4      	ldr	r4, [r2, r3]
10001070:	2300      	movs	r3, #0
10001072:	469b      	mov	fp, r3
10001074:	9009      	str	r0, [sp, #36]	; 0x24
10001076:	f000 fb17 	bl	100016a8 <time_us_64>
1000107a:	6862      	ldr	r2, [r4, #4]
1000107c:	0006      	movs	r6, r0
1000107e:	000f      	movs	r7, r1
10001080:	f3ef 8510 	mrs	r5, PRIMASK
10001084:	b672      	cpsid	i
10001086:	6813      	ldr	r3, [r2, #0]
10001088:	2b00      	cmp	r3, #0
1000108a:	d0fc      	beq.n	10001086 <alarm_pool_alarm_callback+0x2e>
1000108c:	f3bf 8f5f 	dmb	sy
10001090:	6823      	ldr	r3, [r4, #0]
10001092:	469c      	mov	ip, r3
10001094:	7b5b      	ldrb	r3, [r3, #13]
10001096:	4699      	mov	r9, r3
10001098:	2b00      	cmp	r3, #0
1000109a:	d068      	beq.n	1000116e <alarm_pool_alarm_callback+0x116>
1000109c:	68a2      	ldr	r2, [r4, #8]
1000109e:	4b5a      	ldr	r3, [pc, #360]	; (10001208 <alarm_pool_alarm_callback+0x1b0>)
100010a0:	4690      	mov	r8, r2
100010a2:	444b      	add	r3, r9
100010a4:	011b      	lsls	r3, r3, #4
100010a6:	4498      	add	r8, r3
100010a8:	4643      	mov	r3, r8
100010aa:	681a      	ldr	r2, [r3, #0]
100010ac:	685b      	ldr	r3, [r3, #4]
100010ae:	0010      	movs	r0, r2
100010b0:	0019      	movs	r1, r3
100010b2:	1b80      	subs	r0, r0, r6
100010b4:	41b9      	sbcs	r1, r7
100010b6:	2900      	cmp	r1, #0
100010b8:	dd63      	ble.n	10001182 <alarm_pool_alarm_callback+0x12a>
100010ba:	9809      	ldr	r0, [sp, #36]	; 0x24
100010bc:	f000 fb54 	bl	10001768 <hardware_alarm_set_target>
100010c0:	2300      	movs	r3, #0
100010c2:	2200      	movs	r2, #0
100010c4:	4698      	mov	r8, r3
100010c6:	2300      	movs	r3, #0
100010c8:	9206      	str	r2, [sp, #24]
100010ca:	9307      	str	r3, [sp, #28]
100010cc:	2300      	movs	r3, #0
100010ce:	469a      	mov	sl, r3
100010d0:	6863      	ldr	r3, [r4, #4]
100010d2:	f3bf 8f5f 	dmb	sy
100010d6:	465a      	mov	r2, fp
100010d8:	601a      	str	r2, [r3, #0]
100010da:	f385 8810 	msr	PRIMASK, r5
100010de:	4653      	mov	r3, sl
100010e0:	2b00      	cmp	r3, #0
100010e2:	d108      	bne.n	100010f6 <alarm_pool_alarm_callback+0x9e>
100010e4:	2800      	cmp	r0, #0
100010e6:	d1c6      	bne.n	10001076 <alarm_pool_alarm_callback+0x1e>
100010e8:	b00b      	add	sp, #44	; 0x2c
100010ea:	bc3c      	pop	{r2, r3, r4, r5}
100010ec:	4690      	mov	r8, r2
100010ee:	4699      	mov	r9, r3
100010f0:	46a2      	mov	sl, r4
100010f2:	46ab      	mov	fp, r5
100010f4:	bdf0      	pop	{r4, r5, r6, r7, pc}
100010f6:	9b08      	ldr	r3, [sp, #32]
100010f8:	4641      	mov	r1, r8
100010fa:	0218      	lsls	r0, r3, #8
100010fc:	464b      	mov	r3, r9
100010fe:	4318      	orrs	r0, r3
10001100:	47d0      	blx	sl
10001102:	6862      	ldr	r2, [r4, #4]
10001104:	0006      	movs	r6, r0
10001106:	000f      	movs	r7, r1
10001108:	f3ef 8510 	mrs	r5, PRIMASK
1000110c:	b672      	cpsid	i
1000110e:	6813      	ldr	r3, [r2, #0]
10001110:	2b00      	cmp	r3, #0
10001112:	d0fc      	beq.n	1000110e <alarm_pool_alarm_callback+0xb6>
10001114:	f3bf 8f5f 	dmb	sy
10001118:	2f00      	cmp	r7, #0
1000111a:	db4f      	blt.n	100011bc <alarm_pool_alarm_callback+0x164>
1000111c:	0033      	movs	r3, r6
1000111e:	433b      	orrs	r3, r7
10001120:	d002      	beq.n	10001128 <alarm_pool_alarm_callback+0xd0>
10001122:	6923      	ldr	r3, [r4, #16]
10001124:	2b00      	cmp	r3, #0
10001126:	d160      	bne.n	100011ea <alarm_pool_alarm_callback+0x192>
10001128:	6823      	ldr	r3, [r4, #0]
1000112a:	7bda      	ldrb	r2, [r3, #15]
1000112c:	2a00      	cmp	r2, #0
1000112e:	d007      	beq.n	10001140 <alarm_pool_alarm_callback+0xe8>
10001130:	0051      	lsls	r1, r2, #1
10001132:	188a      	adds	r2, r1, r2
10001134:	6819      	ldr	r1, [r3, #0]
10001136:	468c      	mov	ip, r1
10001138:	4649      	mov	r1, r9
1000113a:	4462      	add	r2, ip
1000113c:	3a03      	subs	r2, #3
1000113e:	7051      	strb	r1, [r2, #1]
10001140:	7b9a      	ldrb	r2, [r3, #14]
10001142:	2a00      	cmp	r2, #0
10001144:	d101      	bne.n	1000114a <alarm_pool_alarm_callback+0xf2>
10001146:	464a      	mov	r2, r9
10001148:	739a      	strb	r2, [r3, #14]
1000114a:	464a      	mov	r2, r9
1000114c:	73da      	strb	r2, [r3, #15]
1000114e:	464b      	mov	r3, r9
10001150:	68e1      	ldr	r1, [r4, #12]
10001152:	3b01      	subs	r3, #1
10001154:	5cca      	ldrb	r2, [r1, r3]
10001156:	3201      	adds	r2, #1
10001158:	54ca      	strb	r2, [r1, r3]
1000115a:	465b      	mov	r3, fp
1000115c:	6123      	str	r3, [r4, #16]
1000115e:	6863      	ldr	r3, [r4, #4]
10001160:	f3bf 8f5f 	dmb	sy
10001164:	465a      	mov	r2, fp
10001166:	601a      	str	r2, [r3, #0]
10001168:	f385 8810 	msr	PRIMASK, r5
1000116c:	e783      	b.n	10001076 <alarm_pool_alarm_callback+0x1e>
1000116e:	2300      	movs	r3, #0
10001170:	2200      	movs	r2, #0
10001172:	4698      	mov	r8, r3
10001174:	2300      	movs	r3, #0
10001176:	9206      	str	r2, [sp, #24]
10001178:	9307      	str	r3, [sp, #28]
1000117a:	2300      	movs	r3, #0
1000117c:	2000      	movs	r0, #0
1000117e:	469a      	mov	sl, r3
10001180:	e7a6      	b.n	100010d0 <alarm_pool_alarm_callback+0x78>
10001182:	2900      	cmp	r1, #0
10001184:	d101      	bne.n	1000118a <alarm_pool_alarm_callback+0x132>
10001186:	2800      	cmp	r0, #0
10001188:	d197      	bne.n	100010ba <alarm_pool_alarm_callback+0x62>
1000118a:	2100      	movs	r1, #0
1000118c:	4660      	mov	r0, ip
1000118e:	f000 fc97 	bl	10001ac0 <ph_remove_head>
10001192:	4643      	mov	r3, r8
10001194:	681a      	ldr	r2, [r3, #0]
10001196:	685b      	ldr	r3, [r3, #4]
10001198:	9206      	str	r2, [sp, #24]
1000119a:	9307      	str	r3, [sp, #28]
1000119c:	4643      	mov	r3, r8
1000119e:	689b      	ldr	r3, [r3, #8]
100011a0:	469a      	mov	sl, r3
100011a2:	4643      	mov	r3, r8
100011a4:	68db      	ldr	r3, [r3, #12]
100011a6:	4698      	mov	r8, r3
100011a8:	68e3      	ldr	r3, [r4, #12]
100011aa:	444b      	add	r3, r9
100011ac:	3b01      	subs	r3, #1
100011ae:	781b      	ldrb	r3, [r3, #0]
100011b0:	9308      	str	r3, [sp, #32]
100011b2:	021b      	lsls	r3, r3, #8
100011b4:	4303      	orrs	r3, r0
100011b6:	6123      	str	r3, [r4, #16]
100011b8:	2000      	movs	r0, #0
100011ba:	e789      	b.n	100010d0 <alarm_pool_alarm_callback+0x78>
100011bc:	6923      	ldr	r3, [r4, #16]
100011be:	2b00      	cmp	r3, #0
100011c0:	d0b2      	beq.n	10001128 <alarm_pool_alarm_callback+0xd0>
100011c2:	9a06      	ldr	r2, [sp, #24]
100011c4:	9b07      	ldr	r3, [sp, #28]
100011c6:	1b92      	subs	r2, r2, r6
100011c8:	41bb      	sbcs	r3, r7
100011ca:	2b00      	cmp	r3, #0
100011cc:	db15      	blt.n	100011fa <alarm_pool_alarm_callback+0x1a2>
100011ce:	4659      	mov	r1, fp
100011d0:	9104      	str	r1, [sp, #16]
100011d2:	2101      	movs	r1, #1
100011d4:	9103      	str	r1, [sp, #12]
100011d6:	4649      	mov	r1, r9
100011d8:	9102      	str	r1, [sp, #8]
100011da:	4641      	mov	r1, r8
100011dc:	9101      	str	r1, [sp, #4]
100011de:	4651      	mov	r1, sl
100011e0:	0020      	movs	r0, r4
100011e2:	9100      	str	r1, [sp, #0]
100011e4:	f7ff feb4 	bl	10000f50 <add_alarm_under_lock>
100011e8:	e7b7      	b.n	1000115a <alarm_pool_alarm_callback+0x102>
100011ea:	f000 fa5d 	bl	100016a8 <time_us_64>
100011ee:	0032      	movs	r2, r6
100011f0:	003b      	movs	r3, r7
100011f2:	1812      	adds	r2, r2, r0
100011f4:	414b      	adcs	r3, r1
100011f6:	2b00      	cmp	r3, #0
100011f8:	dae9      	bge.n	100011ce <alarm_pool_alarm_callback+0x176>
100011fa:	2201      	movs	r2, #1
100011fc:	4b03      	ldr	r3, [pc, #12]	; (1000120c <alarm_pool_alarm_callback+0x1b4>)
100011fe:	4252      	negs	r2, r2
10001200:	e7e5      	b.n	100011ce <alarm_pool_alarm_callback+0x176>
10001202:	46c0      	nop			; (mov r8, r8)
10001204:	20001eb0 	.word	0x20001eb0
10001208:	0fffffff 	.word	0x0fffffff
1000120c:	7fffffff 	.word	0x7fffffff

10001210 <alarm_pool_init_default>:
10001210:	b510      	push	{r4, lr}
10001212:	4c14      	ldr	r4, [pc, #80]	; (10001264 <alarm_pool_init_default+0x54>)
10001214:	6863      	ldr	r3, [r4, #4]
10001216:	2b00      	cmp	r3, #0
10001218:	d004      	beq.n	10001224 <alarm_pool_init_default+0x14>
1000121a:	210a      	movs	r1, #10
1000121c:	4812      	ldr	r0, [pc, #72]	; (10001268 <alarm_pool_init_default+0x58>)
1000121e:	f7ff fe33 	bl	10000e88 <lock_init>
10001222:	bd10      	pop	{r4, pc}
10001224:	0023      	movs	r3, r4
10001226:	4a11      	ldr	r2, [pc, #68]	; (1000126c <alarm_pool_init_default+0x5c>)
10001228:	2110      	movs	r1, #16
1000122a:	6820      	ldr	r0, [r4, #0]
1000122c:	f000 fb62 	bl	100018f4 <ph_post_alloc_init>
10001230:	2003      	movs	r0, #3
10001232:	f000 fa2d 	bl	10001690 <hardware_alarm_claim>
10001236:	2003      	movs	r0, #3
10001238:	f000 fb08 	bl	1000184c <hardware_alarm_cancel>
1000123c:	2003      	movs	r0, #3
1000123e:	490c      	ldr	r1, [pc, #48]	; (10001270 <alarm_pool_init_default+0x60>)
10001240:	f000 fa4c 	bl	100016dc <hardware_alarm_set_callback>
10001244:	f7ff fb8e 	bl	10000964 <next_striped_spin_lock_num>
10001248:	4b0a      	ldr	r3, [pc, #40]	; (10001274 <alarm_pool_init_default+0x64>)
1000124a:	469c      	mov	ip, r3
1000124c:	2303      	movs	r3, #3
1000124e:	7523      	strb	r3, [r4, #20]
10001250:	23d0      	movs	r3, #208	; 0xd0
10001252:	061b      	lsls	r3, r3, #24
10001254:	681b      	ldr	r3, [r3, #0]
10001256:	4460      	add	r0, ip
10001258:	7563      	strb	r3, [r4, #21]
1000125a:	4b07      	ldr	r3, [pc, #28]	; (10001278 <alarm_pool_init_default+0x68>)
1000125c:	0080      	lsls	r0, r0, #2
1000125e:	6060      	str	r0, [r4, #4]
10001260:	60dc      	str	r4, [r3, #12]
10001262:	e7da      	b.n	1000121a <alarm_pool_init_default+0xa>
10001264:	200014c8 	.word	0x200014c8
10001268:	20001ed4 	.word	0x20001ed4
1000126c:	10000eed 	.word	0x10000eed
10001270:	10001059 	.word	0x10001059
10001274:	34000040 	.word	0x34000040
10001278:	20001eb0 	.word	0x20001eb0

1000127c <alarm_pool_add_alarm_at>:
1000127c:	b5f0      	push	{r4, r5, r6, r7, lr}
1000127e:	4657      	mov	r7, sl
10001280:	4645      	mov	r5, r8
10001282:	46de      	mov	lr, fp
10001284:	464e      	mov	r6, r9
10001286:	b5e0      	push	{r5, r6, r7, lr}
10001288:	b085      	sub	sp, #20
1000128a:	9301      	str	r3, [sp, #4]
1000128c:	ab10      	add	r3, sp, #64	; 0x40
1000128e:	781b      	ldrb	r3, [r3, #0]
10001290:	2700      	movs	r7, #0
10001292:	9303      	str	r3, [sp, #12]
10001294:	2300      	movs	r3, #0
10001296:	4680      	mov	r8, r0
10001298:	469a      	mov	sl, r3
1000129a:	9200      	str	r2, [sp, #0]
1000129c:	4643      	mov	r3, r8
1000129e:	685a      	ldr	r2, [r3, #4]
100012a0:	f3ef 8910 	mrs	r9, PRIMASK
100012a4:	b672      	cpsid	i
100012a6:	6813      	ldr	r3, [r2, #0]
100012a8:	2b00      	cmp	r3, #0
100012aa:	d0fc      	beq.n	100012a6 <alarm_pool_add_alarm_at+0x2a>
100012ac:	f3bf 8f5f 	dmb	sy
100012b0:	4643      	mov	r3, r8
100012b2:	681d      	ldr	r5, [r3, #0]
100012b4:	7bac      	ldrb	r4, [r5, #14]
100012b6:	2c00      	cmp	r4, #0
100012b8:	d04f      	beq.n	1000135a <alarm_pool_add_alarm_at+0xde>
100012ba:	0066      	lsls	r6, r4, #1
100012bc:	682b      	ldr	r3, [r5, #0]
100012be:	1936      	adds	r6, r6, r4
100012c0:	3e03      	subs	r6, #3
100012c2:	199b      	adds	r3, r3, r6
100012c4:	785a      	ldrb	r2, [r3, #1]
100012c6:	73aa      	strb	r2, [r5, #14]
100012c8:	2a00      	cmp	r2, #0
100012ca:	d100      	bne.n	100012ce <alarm_pool_add_alarm_at+0x52>
100012cc:	73ea      	strb	r2, [r5, #15]
100012ce:	4642      	mov	r2, r8
100012d0:	709f      	strb	r7, [r3, #2]
100012d2:	705f      	strb	r7, [r3, #1]
100012d4:	701f      	strb	r7, [r3, #0]
100012d6:	6892      	ldr	r2, [r2, #8]
100012d8:	4b4a      	ldr	r3, [pc, #296]	; (10001404 <alarm_pool_add_alarm_at+0x188>)
100012da:	4694      	mov	ip, r2
100012dc:	9900      	ldr	r1, [sp, #0]
100012de:	9a01      	ldr	r2, [sp, #4]
100012e0:	18e3      	adds	r3, r4, r3
100012e2:	011b      	lsls	r3, r3, #4
100012e4:	4463      	add	r3, ip
100012e6:	6019      	str	r1, [r3, #0]
100012e8:	605a      	str	r2, [r3, #4]
100012ea:	9a0e      	ldr	r2, [sp, #56]	; 0x38
100012ec:	609a      	str	r2, [r3, #8]
100012ee:	9a0f      	ldr	r2, [sp, #60]	; 0x3c
100012f0:	60da      	str	r2, [r3, #12]
100012f2:	682b      	ldr	r3, [r5, #0]
100012f4:	199b      	adds	r3, r3, r6
100012f6:	709f      	strb	r7, [r3, #2]
100012f8:	705f      	strb	r7, [r3, #1]
100012fa:	701f      	strb	r7, [r3, #0]
100012fc:	7b6b      	ldrb	r3, [r5, #13]
100012fe:	469b      	mov	fp, r3
10001300:	2b00      	cmp	r3, #0
10001302:	d046      	beq.n	10001392 <alarm_pool_add_alarm_at+0x116>
10001304:	0022      	movs	r2, r4
10001306:	0019      	movs	r1, r3
10001308:	68a8      	ldr	r0, [r5, #8]
1000130a:	686b      	ldr	r3, [r5, #4]
1000130c:	4798      	blx	r3
1000130e:	682a      	ldr	r2, [r5, #0]
10001310:	2800      	cmp	r0, #0
10001312:	d031      	beq.n	10001378 <alarm_pool_add_alarm_at+0xfc>
10001314:	465b      	mov	r3, fp
10001316:	4658      	mov	r0, fp
10001318:	005b      	lsls	r3, r3, #1
1000131a:	445b      	add	r3, fp
1000131c:	1996      	adds	r6, r2, r6
1000131e:	3b03      	subs	r3, #3
10001320:	70b0      	strb	r0, [r6, #2]
10001322:	18d1      	adds	r1, r2, r3
10001324:	5cd3      	ldrb	r3, [r2, r3]
10001326:	2b00      	cmp	r3, #0
10001328:	d000      	beq.n	1000132c <alarm_pool_add_alarm_at+0xb0>
1000132a:	7073      	strb	r3, [r6, #1]
1000132c:	465b      	mov	r3, fp
1000132e:	700c      	strb	r4, [r1, #0]
10001330:	736b      	strb	r3, [r5, #13]
10001332:	455c      	cmp	r4, fp
10001334:	d02e      	beq.n	10001394 <alarm_pool_add_alarm_at+0x118>
10001336:	4643      	mov	r3, r8
10001338:	68db      	ldr	r3, [r3, #12]
1000133a:	191b      	adds	r3, r3, r4
1000133c:	3b01      	subs	r3, #1
1000133e:	7818      	ldrb	r0, [r3, #0]
10001340:	4643      	mov	r3, r8
10001342:	685b      	ldr	r3, [r3, #4]
10001344:	f3bf 8f5f 	dmb	sy
10001348:	601f      	str	r7, [r3, #0]
1000134a:	f389 8810 	msr	PRIMASK, r9
1000134e:	4653      	mov	r3, sl
10001350:	2b00      	cmp	r3, #0
10001352:	d12e      	bne.n	100013b2 <alarm_pool_add_alarm_at+0x136>
10001354:	0200      	lsls	r0, r0, #8
10001356:	4320      	orrs	r0, r4
10001358:	e007      	b.n	1000136a <alarm_pool_add_alarm_at+0xee>
1000135a:	685b      	ldr	r3, [r3, #4]
1000135c:	f3bf 8f5f 	dmb	sy
10001360:	601c      	str	r4, [r3, #0]
10001362:	f389 8810 	msr	PRIMASK, r9
10001366:	2001      	movs	r0, #1
10001368:	4240      	negs	r0, r0
1000136a:	b005      	add	sp, #20
1000136c:	bc3c      	pop	{r2, r3, r4, r5}
1000136e:	4690      	mov	r8, r2
10001370:	4699      	mov	r9, r3
10001372:	46a2      	mov	sl, r4
10001374:	46ab      	mov	fp, r5
10001376:	bdf0      	pop	{r4, r5, r6, r7, pc}
10001378:	465b      	mov	r3, fp
1000137a:	005b      	lsls	r3, r3, #1
1000137c:	445b      	add	r3, fp
1000137e:	3b03      	subs	r3, #3
10001380:	18d3      	adds	r3, r2, r3
10001382:	709c      	strb	r4, [r3, #2]
10001384:	1991      	adds	r1, r2, r6
10001386:	5d92      	ldrb	r2, [r2, r6]
10001388:	2a00      	cmp	r2, #0
1000138a:	d000      	beq.n	1000138e <alarm_pool_add_alarm_at+0x112>
1000138c:	705a      	strb	r2, [r3, #1]
1000138e:	465b      	mov	r3, fp
10001390:	700b      	strb	r3, [r1, #0]
10001392:	736c      	strb	r4, [r5, #13]
10001394:	4643      	mov	r3, r8
10001396:	7d18      	ldrb	r0, [r3, #20]
10001398:	9a00      	ldr	r2, [sp, #0]
1000139a:	9b01      	ldr	r3, [sp, #4]
1000139c:	f000 f9e4 	bl	10001768 <hardware_alarm_set_target>
100013a0:	4682      	mov	sl, r0
100013a2:	2800      	cmp	r0, #0
100013a4:	d0c7      	beq.n	10001336 <alarm_pool_add_alarm_at+0xba>
100013a6:	4643      	mov	r3, r8
100013a8:	0021      	movs	r1, r4
100013aa:	6818      	ldr	r0, [r3, #0]
100013ac:	f000 fc2a 	bl	10001c04 <ph_remove_and_free_node>
100013b0:	e7c1      	b.n	10001336 <alarm_pool_add_alarm_at+0xba>
100013b2:	9b03      	ldr	r3, [sp, #12]
100013b4:	2b00      	cmp	r3, #0
100013b6:	d023      	beq.n	10001400 <alarm_pool_add_alarm_at+0x184>
100013b8:	9b0e      	ldr	r3, [sp, #56]	; 0x38
100013ba:	2000      	movs	r0, #0
100013bc:	990f      	ldr	r1, [sp, #60]	; 0x3c
100013be:	4798      	blx	r3
100013c0:	0003      	movs	r3, r0
100013c2:	0004      	movs	r4, r0
100013c4:	000d      	movs	r5, r1
100013c6:	430b      	orrs	r3, r1
100013c8:	d01a      	beq.n	10001400 <alarm_pool_add_alarm_at+0x184>
100013ca:	2900      	cmp	r1, #0
100013cc:	da0a      	bge.n	100013e4 <alarm_pool_add_alarm_at+0x168>
100013ce:	9a00      	ldr	r2, [sp, #0]
100013d0:	9b01      	ldr	r3, [sp, #4]
100013d2:	1b12      	subs	r2, r2, r4
100013d4:	41ab      	sbcs	r3, r5
100013d6:	9200      	str	r2, [sp, #0]
100013d8:	9301      	str	r3, [sp, #4]
100013da:	2b00      	cmp	r3, #0
100013dc:	db0a      	blt.n	100013f4 <alarm_pool_add_alarm_at+0x178>
100013de:	9b03      	ldr	r3, [sp, #12]
100013e0:	469a      	mov	sl, r3
100013e2:	e75b      	b.n	1000129c <alarm_pool_add_alarm_at+0x20>
100013e4:	f000 f960 	bl	100016a8 <time_us_64>
100013e8:	1824      	adds	r4, r4, r0
100013ea:	414d      	adcs	r5, r1
100013ec:	9400      	str	r4, [sp, #0]
100013ee:	9501      	str	r5, [sp, #4]
100013f0:	2d00      	cmp	r5, #0
100013f2:	daf4      	bge.n	100013de <alarm_pool_add_alarm_at+0x162>
100013f4:	2301      	movs	r3, #1
100013f6:	4c04      	ldr	r4, [pc, #16]	; (10001408 <alarm_pool_add_alarm_at+0x18c>)
100013f8:	425b      	negs	r3, r3
100013fa:	9300      	str	r3, [sp, #0]
100013fc:	9401      	str	r4, [sp, #4]
100013fe:	e7ee      	b.n	100013de <alarm_pool_add_alarm_at+0x162>
10001400:	2000      	movs	r0, #0
10001402:	e7b2      	b.n	1000136a <alarm_pool_add_alarm_at+0xee>
10001404:	0fffffff 	.word	0x0fffffff
10001408:	7fffffff 	.word	0x7fffffff

1000140c <alarm_pool_cancel_alarm>:
1000140c:	b570      	push	{r4, r5, r6, lr}
1000140e:	6842      	ldr	r2, [r0, #4]
10001410:	0004      	movs	r4, r0
10001412:	f3ef 8510 	mrs	r5, PRIMASK
10001416:	b672      	cpsid	i
10001418:	6813      	ldr	r3, [r2, #0]
1000141a:	2b00      	cmp	r3, #0
1000141c:	d0fc      	beq.n	10001418 <alarm_pool_cancel_alarm+0xc>
1000141e:	f3bf 8f5f 	dmb	sy
10001422:	6820      	ldr	r0, [r4, #0]
10001424:	b2ca      	uxtb	r2, r1
10001426:	7b43      	ldrb	r3, [r0, #13]
10001428:	4293      	cmp	r3, r2
1000142a:	d00a      	beq.n	10001442 <alarm_pool_cancel_alarm+0x36>
1000142c:	23ff      	movs	r3, #255	; 0xff
1000142e:	400b      	ands	r3, r1
10001430:	005e      	lsls	r6, r3, #1
10001432:	18f3      	adds	r3, r6, r3
10001434:	6806      	ldr	r6, [r0, #0]
10001436:	46b4      	mov	ip, r6
10001438:	4463      	add	r3, ip
1000143a:	3b03      	subs	r3, #3
1000143c:	789b      	ldrb	r3, [r3, #2]
1000143e:	2b00      	cmp	r3, #0
10001440:	d013      	beq.n	1000146a <alarm_pool_cancel_alarm+0x5e>
10001442:	68e6      	ldr	r6, [r4, #12]
10001444:	23ff      	movs	r3, #255	; 0xff
10001446:	46b4      	mov	ip, r6
10001448:	400b      	ands	r3, r1
1000144a:	4463      	add	r3, ip
1000144c:	3b01      	subs	r3, #1
1000144e:	0a09      	lsrs	r1, r1, #8
10001450:	781e      	ldrb	r6, [r3, #0]
10001452:	b2c9      	uxtb	r1, r1
10001454:	428e      	cmp	r6, r1
10001456:	d00d      	beq.n	10001474 <alarm_pool_cancel_alarm+0x68>
10001458:	2000      	movs	r0, #0
1000145a:	6863      	ldr	r3, [r4, #4]
1000145c:	f3bf 8f5f 	dmb	sy
10001460:	2200      	movs	r2, #0
10001462:	601a      	str	r2, [r3, #0]
10001464:	f385 8810 	msr	PRIMASK, r5
10001468:	bd70      	pop	{r4, r5, r6, pc}
1000146a:	6922      	ldr	r2, [r4, #16]
1000146c:	428a      	cmp	r2, r1
1000146e:	d1f3      	bne.n	10001458 <alarm_pool_cancel_alarm+0x4c>
10001470:	6123      	str	r3, [r4, #16]
10001472:	e7f1      	b.n	10001458 <alarm_pool_cancel_alarm+0x4c>
10001474:	0011      	movs	r1, r2
10001476:	f000 fbc5 	bl	10001c04 <ph_remove_and_free_node>
1000147a:	e7ee      	b.n	1000145a <alarm_pool_cancel_alarm+0x4e>

1000147c <sleep_until>:
1000147c:	b5f0      	push	{r4, r5, r6, r7, lr}
1000147e:	0004      	movs	r4, r0
10001480:	000d      	movs	r5, r1
10001482:	2606      	movs	r6, #6
10001484:	4276      	negs	r6, r6
10001486:	17f7      	asrs	r7, r6, #31
10001488:	46c6      	mov	lr, r8
1000148a:	1936      	adds	r6, r6, r4
1000148c:	416f      	adcs	r7, r5
1000148e:	b500      	push	{lr}
10001490:	b084      	sub	sp, #16
10001492:	428f      	cmp	r7, r1
10001494:	d814      	bhi.n	100014c0 <sleep_until+0x44>
10001496:	d011      	beq.n	100014bc <sleep_until+0x40>
10001498:	f000 f906 	bl	100016a8 <time_us_64>
1000149c:	0032      	movs	r2, r6
1000149e:	003b      	movs	r3, r7
100014a0:	1a12      	subs	r2, r2, r0
100014a2:	418b      	sbcs	r3, r1
100014a4:	2b00      	cmp	r3, #0
100014a6:	dc15      	bgt.n	100014d4 <sleep_until+0x58>
100014a8:	2b00      	cmp	r3, #0
100014aa:	d03e      	beq.n	1000152a <sleep_until+0xae>
100014ac:	0020      	movs	r0, r4
100014ae:	0029      	movs	r1, r5
100014b0:	f000 f904 	bl	100016bc <busy_wait_until>
100014b4:	b004      	add	sp, #16
100014b6:	bc04      	pop	{r2}
100014b8:	4690      	mov	r8, r2
100014ba:	bdf0      	pop	{r4, r5, r6, r7, pc}
100014bc:	4286      	cmp	r6, r0
100014be:	d9eb      	bls.n	10001498 <sleep_until+0x1c>
100014c0:	2600      	movs	r6, #0
100014c2:	2700      	movs	r7, #0
100014c4:	f000 f8f0 	bl	100016a8 <time_us_64>
100014c8:	0032      	movs	r2, r6
100014ca:	003b      	movs	r3, r7
100014cc:	1a12      	subs	r2, r2, r0
100014ce:	418b      	sbcs	r3, r1
100014d0:	2b00      	cmp	r3, #0
100014d2:	dde9      	ble.n	100014a8 <sleep_until+0x2c>
100014d4:	2300      	movs	r3, #0
100014d6:	9302      	str	r3, [sp, #8]
100014d8:	9301      	str	r3, [sp, #4]
100014da:	4b15      	ldr	r3, [pc, #84]	; (10001530 <sleep_until+0xb4>)
100014dc:	0032      	movs	r2, r6
100014de:	9300      	str	r3, [sp, #0]
100014e0:	4814      	ldr	r0, [pc, #80]	; (10001534 <sleep_until+0xb8>)
100014e2:	003b      	movs	r3, r7
100014e4:	f7ff feca 	bl	1000127c <alarm_pool_add_alarm_at>
100014e8:	2800      	cmp	r0, #0
100014ea:	dbdf      	blt.n	100014ac <sleep_until+0x30>
100014ec:	2300      	movs	r3, #0
100014ee:	4698      	mov	r8, r3
100014f0:	46bc      	mov	ip, r7
100014f2:	4a11      	ldr	r2, [pc, #68]	; (10001538 <sleep_until+0xbc>)
100014f4:	4f11      	ldr	r7, [pc, #68]	; (1000153c <sleep_until+0xc0>)
100014f6:	6a7b      	ldr	r3, [r7, #36]	; 0x24
100014f8:	459c      	cmp	ip, r3
100014fa:	d804      	bhi.n	10001506 <sleep_until+0x8a>
100014fc:	6ab9      	ldr	r1, [r7, #40]	; 0x28
100014fe:	428e      	cmp	r6, r1
10001500:	d9d4      	bls.n	100014ac <sleep_until+0x30>
10001502:	459c      	cmp	ip, r3
10001504:	d1d2      	bne.n	100014ac <sleep_until+0x30>
10001506:	6811      	ldr	r1, [r2, #0]
10001508:	f3ef 8010 	mrs	r0, PRIMASK
1000150c:	b672      	cpsid	i
1000150e:	680b      	ldr	r3, [r1, #0]
10001510:	2b00      	cmp	r3, #0
10001512:	d0fc      	beq.n	1000150e <sleep_until+0x92>
10001514:	f3bf 8f5f 	dmb	sy
10001518:	6813      	ldr	r3, [r2, #0]
1000151a:	f3bf 8f5f 	dmb	sy
1000151e:	4641      	mov	r1, r8
10001520:	6019      	str	r1, [r3, #0]
10001522:	f380 8810 	msr	PRIMASK, r0
10001526:	bf20      	wfe
10001528:	e7e5      	b.n	100014f6 <sleep_until+0x7a>
1000152a:	2a00      	cmp	r2, #0
1000152c:	d0be      	beq.n	100014ac <sleep_until+0x30>
1000152e:	e7d1      	b.n	100014d4 <sleep_until+0x58>
10001530:	10000f21 	.word	0x10000f21
10001534:	200014c8 	.word	0x200014c8
10001538:	20001ed4 	.word	0x20001ed4
1000153c:	40054000 	.word	0x40054000

10001540 <sleep_ms>:
10001540:	b570      	push	{r4, r5, r6, lr}
10001542:	0006      	movs	r6, r0
10001544:	f000 f8b0 	bl	100016a8 <time_us_64>
10001548:	22fa      	movs	r2, #250	; 0xfa
1000154a:	0004      	movs	r4, r0
1000154c:	000d      	movs	r5, r1
1000154e:	2300      	movs	r3, #0
10001550:	0030      	movs	r0, r6
10001552:	2100      	movs	r1, #0
10001554:	0092      	lsls	r2, r2, #2
10001556:	f000 ff6d 	bl	10002434 <__wrap___aeabi_lmul>
1000155a:	1900      	adds	r0, r0, r4
1000155c:	4169      	adcs	r1, r5
1000155e:	2900      	cmp	r1, #0
10001560:	db02      	blt.n	10001568 <sleep_ms+0x28>
10001562:	f7ff ff8b 	bl	1000147c <sleep_until>
10001566:	bd70      	pop	{r4, r5, r6, pc}
10001568:	2001      	movs	r0, #1
1000156a:	4901      	ldr	r1, [pc, #4]	; (10001570 <sleep_ms+0x30>)
1000156c:	4240      	negs	r0, r0
1000156e:	e7f8      	b.n	10001562 <sleep_ms+0x22>
10001570:	7fffffff 	.word	0x7fffffff

10001574 <best_effort_wfe_or_timeout>:
10001574:	b570      	push	{r4, r5, r6, lr}
10001576:	f3ef 8305 	mrs	r3, IPSR
1000157a:	0005      	movs	r5, r0
1000157c:	000c      	movs	r4, r1
1000157e:	b084      	sub	sp, #16
10001580:	2b00      	cmp	r3, #0
10001582:	d00f      	beq.n	100015a4 <best_effort_wfe_or_timeout+0x30>
10001584:	4b10      	ldr	r3, [pc, #64]	; (100015c8 <best_effort_wfe_or_timeout+0x54>)
10001586:	2000      	movs	r0, #0
10001588:	6a59      	ldr	r1, [r3, #36]	; 0x24
1000158a:	428c      	cmp	r4, r1
1000158c:	d803      	bhi.n	10001596 <best_effort_wfe_or_timeout+0x22>
1000158e:	6a9b      	ldr	r3, [r3, #40]	; 0x28
10001590:	3001      	adds	r0, #1
10001592:	42ab      	cmp	r3, r5
10001594:	d301      	bcc.n	1000159a <best_effort_wfe_or_timeout+0x26>
10001596:	b004      	add	sp, #16
10001598:	bd70      	pop	{r4, r5, r6, pc}
1000159a:	1a64      	subs	r4, r4, r1
1000159c:	1e61      	subs	r1, r4, #1
1000159e:	418c      	sbcs	r4, r1
100015a0:	b2e0      	uxtb	r0, r4
100015a2:	e7f8      	b.n	10001596 <best_effort_wfe_or_timeout+0x22>
100015a4:	4e09      	ldr	r6, [pc, #36]	; (100015cc <best_effort_wfe_or_timeout+0x58>)
100015a6:	9302      	str	r3, [sp, #8]
100015a8:	9301      	str	r3, [sp, #4]
100015aa:	4b09      	ldr	r3, [pc, #36]	; (100015d0 <best_effort_wfe_or_timeout+0x5c>)
100015ac:	0002      	movs	r2, r0
100015ae:	9300      	str	r3, [sp, #0]
100015b0:	0030      	movs	r0, r6
100015b2:	000b      	movs	r3, r1
100015b4:	f7ff fe62 	bl	1000127c <alarm_pool_add_alarm_at>
100015b8:	1e01      	subs	r1, r0, #0
100015ba:	dde3      	ble.n	10001584 <best_effort_wfe_or_timeout+0x10>
100015bc:	bf20      	wfe
100015be:	0030      	movs	r0, r6
100015c0:	f7ff ff24 	bl	1000140c <alarm_pool_cancel_alarm>
100015c4:	e7de      	b.n	10001584 <best_effort_wfe_or_timeout+0x10>
100015c6:	46c0      	nop			; (mov r8, r8)
100015c8:	40054000 	.word	0x40054000
100015cc:	200014c8 	.word	0x200014c8
100015d0:	10000f21 	.word	0x10000f21

100015d4 <hardware_alarm_irq_handler>:
100015d4:	b5f0      	push	{r4, r5, r6, r7, lr}
100015d6:	f3ef 8205 	mrs	r2, IPSR
100015da:	46d6      	mov	lr, sl
100015dc:	464f      	mov	r7, r9
100015de:	4646      	mov	r6, r8
100015e0:	0010      	movs	r0, r2
100015e2:	b5c0      	push	{r6, r7, lr}
100015e4:	3810      	subs	r0, #16
100015e6:	f3ef 8810 	mrs	r8, PRIMASK
100015ea:	b672      	cpsid	i
100015ec:	4c21      	ldr	r4, [pc, #132]	; (10001674 <hardware_alarm_irq_handler+0xa0>)
100015ee:	6823      	ldr	r3, [r4, #0]
100015f0:	2b00      	cmp	r3, #0
100015f2:	d0fc      	beq.n	100015ee <hardware_alarm_irq_handler+0x1a>
100015f4:	f3bf 8f5f 	dmb	sy
100015f8:	2301      	movs	r3, #1
100015fa:	0019      	movs	r1, r3
100015fc:	4081      	lsls	r1, r0
100015fe:	4d1e      	ldr	r5, [pc, #120]	; (10001678 <hardware_alarm_irq_handler+0xa4>)
10001600:	001f      	movs	r7, r3
10001602:	6369      	str	r1, [r5, #52]	; 0x34
10001604:	46aa      	mov	sl, r5
10001606:	4d1d      	ldr	r5, [pc, #116]	; (1000167c <hardware_alarm_irq_handler+0xa8>)
10001608:	6029      	str	r1, [r5, #0]
1000160a:	4d1d      	ldr	r5, [pc, #116]	; (10001680 <hardware_alarm_irq_handler+0xac>)
1000160c:	782e      	ldrb	r6, [r5, #0]
1000160e:	46ac      	mov	ip, r5
10001610:	0035      	movs	r5, r6
10001612:	40c5      	lsrs	r5, r0
10001614:	402f      	ands	r7, r5
10001616:	422b      	tst	r3, r5
10001618:	d015      	beq.n	10001646 <hardware_alarm_irq_handler+0x72>
1000161a:	4653      	mov	r3, sl
1000161c:	4d19      	ldr	r5, [pc, #100]	; (10001684 <hardware_alarm_irq_handler+0xb0>)
1000161e:	6a5f      	ldr	r7, [r3, #36]	; 0x24
10001620:	0083      	lsls	r3, r0, #2
10001622:	595d      	ldr	r5, [r3, r5]
10001624:	42af      	cmp	r7, r5
10001626:	d318      	bcc.n	1000165a <hardware_alarm_irq_handler+0x86>
10001628:	4a17      	ldr	r2, [pc, #92]	; (10001688 <hardware_alarm_irq_handler+0xb4>)
1000162a:	438e      	bics	r6, r1
1000162c:	589b      	ldr	r3, [r3, r2]
1000162e:	4662      	mov	r2, ip
10001630:	7016      	strb	r6, [r2, #0]
10001632:	f3bf 8f5f 	dmb	sy
10001636:	2200      	movs	r2, #0
10001638:	6022      	str	r2, [r4, #0]
1000163a:	f388 8810 	msr	PRIMASK, r8
1000163e:	2b00      	cmp	r3, #0
10001640:	d006      	beq.n	10001650 <hardware_alarm_irq_handler+0x7c>
10001642:	4798      	blx	r3
10001644:	e004      	b.n	10001650 <hardware_alarm_irq_handler+0x7c>
10001646:	f3bf 8f5f 	dmb	sy
1000164a:	6027      	str	r7, [r4, #0]
1000164c:	f388 8810 	msr	PRIMASK, r8
10001650:	bc1c      	pop	{r2, r3, r4}
10001652:	4690      	mov	r8, r2
10001654:	4699      	mov	r9, r3
10001656:	46a2      	mov	sl, r4
10001658:	bdf0      	pop	{r4, r5, r6, r7, pc}
1000165a:	4b0c      	ldr	r3, [pc, #48]	; (1000168c <hardware_alarm_irq_handler+0xb8>)
1000165c:	0092      	lsls	r2, r2, #2
1000165e:	469c      	mov	ip, r3
10001660:	4462      	add	r2, ip
10001662:	6813      	ldr	r3, [r2, #0]
10001664:	6013      	str	r3, [r2, #0]
10001666:	f3bf 8f5f 	dmb	sy
1000166a:	2300      	movs	r3, #0
1000166c:	6023      	str	r3, [r4, #0]
1000166e:	f388 8810 	msr	PRIMASK, r8
10001672:	e7ed      	b.n	10001650 <hardware_alarm_irq_handler+0x7c>
10001674:	d0000128 	.word	0xd0000128
10001678:	40054000 	.word	0x40054000
1000167c:	4005703c 	.word	0x4005703c
10001680:	20001f1b 	.word	0x20001f1b
10001684:	20001ed8 	.word	0x20001ed8
10001688:	20001914 	.word	0x20001914
1000168c:	40053fd0 	.word	0x40053fd0

10001690 <hardware_alarm_claim>:
10001690:	b510      	push	{r4, lr}
10001692:	0001      	movs	r1, r0
10001694:	4a02      	ldr	r2, [pc, #8]	; (100016a0 <hardware_alarm_claim+0x10>)
10001696:	4803      	ldr	r0, [pc, #12]	; (100016a4 <hardware_alarm_claim+0x14>)
10001698:	f7ff f8e4 	bl	10000864 <hw_claim_or_assert>
1000169c:	bd10      	pop	{r4, pc}
1000169e:	46c0      	nop			; (mov r8, r8)
100016a0:	1000477c 	.word	0x1000477c
100016a4:	20001f19 	.word	0x20001f19

100016a8 <time_us_64>:
100016a8:	4b03      	ldr	r3, [pc, #12]	; (100016b8 <time_us_64+0x10>)
100016aa:	6a59      	ldr	r1, [r3, #36]	; 0x24
100016ac:	000a      	movs	r2, r1
100016ae:	6a98      	ldr	r0, [r3, #40]	; 0x28
100016b0:	6a59      	ldr	r1, [r3, #36]	; 0x24
100016b2:	428a      	cmp	r2, r1
100016b4:	d1fa      	bne.n	100016ac <time_us_64+0x4>
100016b6:	4770      	bx	lr
100016b8:	40054000 	.word	0x40054000

100016bc <busy_wait_until>:
100016bc:	4a06      	ldr	r2, [pc, #24]	; (100016d8 <busy_wait_until+0x1c>)
100016be:	6a53      	ldr	r3, [r2, #36]	; 0x24
100016c0:	4299      	cmp	r1, r3
100016c2:	d8fc      	bhi.n	100016be <busy_wait_until+0x2>
100016c4:	d107      	bne.n	100016d6 <busy_wait_until+0x1a>
100016c6:	4b04      	ldr	r3, [pc, #16]	; (100016d8 <busy_wait_until+0x1c>)
100016c8:	e002      	b.n	100016d0 <busy_wait_until+0x14>
100016ca:	6a5a      	ldr	r2, [r3, #36]	; 0x24
100016cc:	4291      	cmp	r1, r2
100016ce:	d102      	bne.n	100016d6 <busy_wait_until+0x1a>
100016d0:	6a9a      	ldr	r2, [r3, #40]	; 0x28
100016d2:	4282      	cmp	r2, r0
100016d4:	d3f9      	bcc.n	100016ca <busy_wait_until+0xe>
100016d6:	4770      	bx	lr
100016d8:	40054000 	.word	0x40054000

100016dc <hardware_alarm_set_callback>:
100016dc:	b570      	push	{r4, r5, r6, lr}
100016de:	0004      	movs	r4, r0
100016e0:	000d      	movs	r5, r1
100016e2:	f3ef 8610 	mrs	r6, PRIMASK
100016e6:	b672      	cpsid	i
100016e8:	4a1a      	ldr	r2, [pc, #104]	; (10001754 <hardware_alarm_set_callback+0x78>)
100016ea:	6813      	ldr	r3, [r2, #0]
100016ec:	2b00      	cmp	r3, #0
100016ee:	d0fc      	beq.n	100016ea <hardware_alarm_set_callback+0xe>
100016f0:	f3bf 8f5f 	dmb	sy
100016f4:	2d00      	cmp	r5, #0
100016f6:	d01b      	beq.n	10001730 <hardware_alarm_set_callback+0x54>
100016f8:	0020      	movs	r0, r4
100016fa:	f7ff f96d 	bl	100009d8 <irq_get_vtable_handler>
100016fe:	4916      	ldr	r1, [pc, #88]	; (10001758 <hardware_alarm_set_callback+0x7c>)
10001700:	4281      	cmp	r1, r0
10001702:	d00a      	beq.n	1000171a <hardware_alarm_set_callback+0x3e>
10001704:	0020      	movs	r0, r4
10001706:	f7ff f96f 	bl	100009e8 <irq_set_exclusive_handler>
1000170a:	2101      	movs	r1, #1
1000170c:	0020      	movs	r0, r4
1000170e:	f7ff f945 	bl	1000099c <irq_set_enabled>
10001712:	2301      	movs	r3, #1
10001714:	40a3      	lsls	r3, r4
10001716:	4a11      	ldr	r2, [pc, #68]	; (1000175c <hardware_alarm_set_callback+0x80>)
10001718:	6013      	str	r3, [r2, #0]
1000171a:	4b11      	ldr	r3, [pc, #68]	; (10001760 <hardware_alarm_set_callback+0x84>)
1000171c:	00a4      	lsls	r4, r4, #2
1000171e:	50e5      	str	r5, [r4, r3]
10001720:	f3bf 8f5f 	dmb	sy
10001724:	2200      	movs	r2, #0
10001726:	4b0b      	ldr	r3, [pc, #44]	; (10001754 <hardware_alarm_set_callback+0x78>)
10001728:	601a      	str	r2, [r3, #0]
1000172a:	f386 8810 	msr	PRIMASK, r6
1000172e:	bd70      	pop	{r4, r5, r6, pc}
10001730:	4b0b      	ldr	r3, [pc, #44]	; (10001760 <hardware_alarm_set_callback+0x84>)
10001732:	00a2      	lsls	r2, r4, #2
10001734:	50d5      	str	r5, [r2, r3]
10001736:	2201      	movs	r2, #1
10001738:	40a2      	lsls	r2, r4
1000173a:	490a      	ldr	r1, [pc, #40]	; (10001764 <hardware_alarm_set_callback+0x88>)
1000173c:	0020      	movs	r0, r4
1000173e:	780b      	ldrb	r3, [r1, #0]
10001740:	4393      	bics	r3, r2
10001742:	700b      	strb	r3, [r1, #0]
10001744:	4904      	ldr	r1, [pc, #16]	; (10001758 <hardware_alarm_set_callback+0x7c>)
10001746:	f7ff fa59 	bl	10000bfc <irq_remove_handler>
1000174a:	2100      	movs	r1, #0
1000174c:	0020      	movs	r0, r4
1000174e:	f7ff f925 	bl	1000099c <irq_set_enabled>
10001752:	e7e5      	b.n	10001720 <hardware_alarm_set_callback+0x44>
10001754:	d0000128 	.word	0xd0000128
10001758:	100015d5 	.word	0x100015d5
1000175c:	40056038 	.word	0x40056038
10001760:	20001914 	.word	0x20001914
10001764:	20001f1b 	.word	0x20001f1b

10001768 <hardware_alarm_set_target>:
10001768:	b5f0      	push	{r4, r5, r6, r7, lr}
1000176a:	464f      	mov	r7, r9
1000176c:	46d6      	mov	lr, sl
1000176e:	4646      	mov	r6, r8
10001770:	b5c0      	push	{r6, r7, lr}
10001772:	0007      	movs	r7, r0
10001774:	4c30      	ldr	r4, [pc, #192]	; (10001838 <hardware_alarm_set_target+0xd0>)
10001776:	6a61      	ldr	r1, [r4, #36]	; 0x24
10001778:	000d      	movs	r5, r1
1000177a:	6aa6      	ldr	r6, [r4, #40]	; 0x28
1000177c:	6a61      	ldr	r1, [r4, #36]	; 0x24
1000177e:	42a9      	cmp	r1, r5
10001780:	d1fa      	bne.n	10001778 <hardware_alarm_set_target+0x10>
10001782:	428b      	cmp	r3, r1
10001784:	d808      	bhi.n	10001798 <hardware_alarm_set_target+0x30>
10001786:	d005      	beq.n	10001794 <hardware_alarm_set_target+0x2c>
10001788:	2001      	movs	r0, #1
1000178a:	bc1c      	pop	{r2, r3, r4}
1000178c:	4690      	mov	r8, r2
1000178e:	4699      	mov	r9, r3
10001790:	46a2      	mov	sl, r4
10001792:	bdf0      	pop	{r4, r5, r6, r7, pc}
10001794:	42b2      	cmp	r2, r6
10001796:	d9f7      	bls.n	10001788 <hardware_alarm_set_target+0x20>
10001798:	f3ef 8910 	mrs	r9, PRIMASK
1000179c:	b672      	cpsid	i
1000179e:	4827      	ldr	r0, [pc, #156]	; (1000183c <hardware_alarm_set_target+0xd4>)
100017a0:	6801      	ldr	r1, [r0, #0]
100017a2:	2900      	cmp	r1, #0
100017a4:	d0fc      	beq.n	100017a0 <hardware_alarm_set_target+0x38>
100017a6:	f3bf 8f5f 	dmb	sy
100017aa:	2501      	movs	r5, #1
100017ac:	4924      	ldr	r1, [pc, #144]	; (10001840 <hardware_alarm_set_target+0xd8>)
100017ae:	40bd      	lsls	r5, r7
100017b0:	468c      	mov	ip, r1
100017b2:	7809      	ldrb	r1, [r1, #0]
100017b4:	4c20      	ldr	r4, [pc, #128]	; (10001838 <hardware_alarm_set_target+0xd0>)
100017b6:	000e      	movs	r6, r1
100017b8:	432e      	orrs	r6, r5
100017ba:	4688      	mov	r8, r1
100017bc:	b2f1      	uxtb	r1, r6
100017be:	468a      	mov	sl, r1
100017c0:	4661      	mov	r1, ip
100017c2:	4650      	mov	r0, sl
100017c4:	7008      	strb	r0, [r1, #0]
100017c6:	1d39      	adds	r1, r7, #4
100017c8:	481e      	ldr	r0, [pc, #120]	; (10001844 <hardware_alarm_set_target+0xdc>)
100017ca:	0089      	lsls	r1, r1, #2
100017cc:	6365      	str	r5, [r4, #52]	; 0x34
100017ce:	510a      	str	r2, [r1, r4]
100017d0:	00b9      	lsls	r1, r7, #2
100017d2:	500b      	str	r3, [r1, r0]
100017d4:	6a21      	ldr	r1, [r4, #32]
100017d6:	2000      	movs	r0, #0
100017d8:	4229      	tst	r1, r5
100017da:	d019      	beq.n	10001810 <hardware_alarm_set_target+0xa8>
100017dc:	6a61      	ldr	r1, [r4, #36]	; 0x24
100017de:	0008      	movs	r0, r1
100017e0:	6aa6      	ldr	r6, [r4, #40]	; 0x28
100017e2:	6a61      	ldr	r1, [r4, #36]	; 0x24
100017e4:	4281      	cmp	r1, r0
100017e6:	d1fa      	bne.n	100017de <hardware_alarm_set_target+0x76>
100017e8:	428b      	cmp	r3, r1
100017ea:	d819      	bhi.n	10001820 <hardware_alarm_set_target+0xb8>
100017ec:	d101      	bne.n	100017f2 <hardware_alarm_set_target+0x8a>
100017ee:	42b2      	cmp	r2, r6
100017f0:	d816      	bhi.n	10001820 <hardware_alarm_set_target+0xb8>
100017f2:	45c2      	cmp	sl, r8
100017f4:	d01d      	beq.n	10001832 <hardware_alarm_set_target+0xca>
100017f6:	4b10      	ldr	r3, [pc, #64]	; (10001838 <hardware_alarm_set_target+0xd0>)
100017f8:	201f      	movs	r0, #31
100017fa:	621d      	str	r5, [r3, #32]
100017fc:	635d      	str	r5, [r3, #52]	; 0x34
100017fe:	2301      	movs	r3, #1
10001800:	4007      	ands	r7, r0
10001802:	40bb      	lsls	r3, r7
10001804:	4a10      	ldr	r2, [pc, #64]	; (10001848 <hardware_alarm_set_target+0xe0>)
10001806:	381e      	subs	r0, #30
10001808:	6013      	str	r3, [r2, #0]
1000180a:	4663      	mov	r3, ip
1000180c:	4642      	mov	r2, r8
1000180e:	701a      	strb	r2, [r3, #0]
10001810:	f3bf 8f5f 	dmb	sy
10001814:	2200      	movs	r2, #0
10001816:	4b09      	ldr	r3, [pc, #36]	; (1000183c <hardware_alarm_set_target+0xd4>)
10001818:	601a      	str	r2, [r3, #0]
1000181a:	f389 8810 	msr	PRIMASK, r9
1000181e:	e7b4      	b.n	1000178a <hardware_alarm_set_target+0x22>
10001820:	2000      	movs	r0, #0
10001822:	f3bf 8f5f 	dmb	sy
10001826:	2200      	movs	r2, #0
10001828:	4b04      	ldr	r3, [pc, #16]	; (1000183c <hardware_alarm_set_target+0xd4>)
1000182a:	601a      	str	r2, [r3, #0]
1000182c:	f389 8810 	msr	PRIMASK, r9
10001830:	e7ab      	b.n	1000178a <hardware_alarm_set_target+0x22>
10001832:	2001      	movs	r0, #1
10001834:	e7ec      	b.n	10001810 <hardware_alarm_set_target+0xa8>
10001836:	46c0      	nop			; (mov r8, r8)
10001838:	40054000 	.word	0x40054000
1000183c:	d0000128 	.word	0xd0000128
10001840:	20001f1b 	.word	0x20001f1b
10001844:	20001ed8 	.word	0x20001ed8
10001848:	e000e280 	.word	0xe000e280

1000184c <hardware_alarm_cancel>:
1000184c:	b510      	push	{r4, lr}
1000184e:	f3ef 8410 	mrs	r4, PRIMASK
10001852:	b672      	cpsid	i
10001854:	490a      	ldr	r1, [pc, #40]	; (10001880 <hardware_alarm_cancel+0x34>)
10001856:	680b      	ldr	r3, [r1, #0]
10001858:	2b00      	cmp	r3, #0
1000185a:	d0fc      	beq.n	10001856 <hardware_alarm_cancel+0xa>
1000185c:	f3bf 8f5f 	dmb	sy
10001860:	2301      	movs	r3, #1
10001862:	4083      	lsls	r3, r0
10001864:	4a07      	ldr	r2, [pc, #28]	; (10001884 <hardware_alarm_cancel+0x38>)
10001866:	4808      	ldr	r0, [pc, #32]	; (10001888 <hardware_alarm_cancel+0x3c>)
10001868:	6213      	str	r3, [r2, #32]
1000186a:	7802      	ldrb	r2, [r0, #0]
1000186c:	439a      	bics	r2, r3
1000186e:	7002      	strb	r2, [r0, #0]
10001870:	f3bf 8f5f 	dmb	sy
10001874:	2300      	movs	r3, #0
10001876:	600b      	str	r3, [r1, #0]
10001878:	f384 8810 	msr	PRIMASK, r4
1000187c:	bd10      	pop	{r4, pc}
1000187e:	46c0      	nop			; (mov r8, r8)
10001880:	d0000128 	.word	0xd0000128
10001884:	40054000 	.word	0x40054000
10001888:	20001f1b 	.word	0x20001f1b

1000188c <ph_merge_nodes>:
1000188c:	b570      	push	{r4, r5, r6, lr}
1000188e:	0005      	movs	r5, r0
10001890:	000e      	movs	r6, r1
10001892:	0014      	movs	r4, r2
10001894:	2900      	cmp	r1, #0
10001896:	d024      	beq.n	100018e2 <ph_merge_nodes+0x56>
10001898:	2a00      	cmp	r2, #0
1000189a:	d024      	beq.n	100018e6 <ph_merge_nodes+0x5a>
1000189c:	6880      	ldr	r0, [r0, #8]
1000189e:	686b      	ldr	r3, [r5, #4]
100018a0:	4798      	blx	r3
100018a2:	6829      	ldr	r1, [r5, #0]
100018a4:	2800      	cmp	r0, #0
100018a6:	d00e      	beq.n	100018c6 <ph_merge_nodes+0x3a>
100018a8:	0063      	lsls	r3, r4, #1
100018aa:	191b      	adds	r3, r3, r4
100018ac:	0072      	lsls	r2, r6, #1
100018ae:	3b03      	subs	r3, #3
100018b0:	1992      	adds	r2, r2, r6
100018b2:	18cb      	adds	r3, r1, r3
100018b4:	3a03      	subs	r2, #3
100018b6:	709e      	strb	r6, [r3, #2]
100018b8:	1888      	adds	r0, r1, r2
100018ba:	5c8a      	ldrb	r2, [r1, r2]
100018bc:	2a00      	cmp	r2, #0
100018be:	d114      	bne.n	100018ea <ph_merge_nodes+0x5e>
100018c0:	7004      	strb	r4, [r0, #0]
100018c2:	0030      	movs	r0, r6
100018c4:	e00e      	b.n	100018e4 <ph_merge_nodes+0x58>
100018c6:	0073      	lsls	r3, r6, #1
100018c8:	199b      	adds	r3, r3, r6
100018ca:	0062      	lsls	r2, r4, #1
100018cc:	3b03      	subs	r3, #3
100018ce:	1912      	adds	r2, r2, r4
100018d0:	18cb      	adds	r3, r1, r3
100018d2:	3a03      	subs	r2, #3
100018d4:	709c      	strb	r4, [r3, #2]
100018d6:	1888      	adds	r0, r1, r2
100018d8:	5c8a      	ldrb	r2, [r1, r2]
100018da:	2a00      	cmp	r2, #0
100018dc:	d000      	beq.n	100018e0 <ph_merge_nodes+0x54>
100018de:	705a      	strb	r2, [r3, #1]
100018e0:	7006      	strb	r6, [r0, #0]
100018e2:	0020      	movs	r0, r4
100018e4:	bd70      	pop	{r4, r5, r6, pc}
100018e6:	0008      	movs	r0, r1
100018e8:	e7fc      	b.n	100018e4 <ph_merge_nodes+0x58>
100018ea:	705a      	strb	r2, [r3, #1]
100018ec:	7004      	strb	r4, [r0, #0]
100018ee:	0030      	movs	r0, r6
100018f0:	e7f8      	b.n	100018e4 <ph_merge_nodes+0x58>
100018f2:	46c0      	nop			; (mov r8, r8)

100018f4 <ph_post_alloc_init>:
100018f4:	b530      	push	{r4, r5, lr}
100018f6:	6083      	str	r3, [r0, #8]
100018f8:	2300      	movs	r3, #0
100018fa:	b2cc      	uxtb	r4, r1
100018fc:	7343      	strb	r3, [r0, #13]
100018fe:	3301      	adds	r3, #1
10001900:	7304      	strb	r4, [r0, #12]
10001902:	6042      	str	r2, [r0, #4]
10001904:	7383      	strb	r3, [r0, #14]
10001906:	73c4      	strb	r4, [r0, #15]
10001908:	000d      	movs	r5, r1
1000190a:	6800      	ldr	r0, [r0, #0]
1000190c:	2c01      	cmp	r4, #1
1000190e:	d906      	bls.n	1000191e <ph_post_alloc_init+0x2a>
10001910:	1c42      	adds	r2, r0, #1
10001912:	3301      	adds	r3, #1
10001914:	b2db      	uxtb	r3, r3
10001916:	7013      	strb	r3, [r2, #0]
10001918:	3203      	adds	r2, #3
1000191a:	429c      	cmp	r4, r3
1000191c:	d1f9      	bne.n	10001912 <ph_post_alloc_init+0x1e>
1000191e:	21ff      	movs	r1, #255	; 0xff
10001920:	4029      	ands	r1, r5
10001922:	004b      	lsls	r3, r1, #1
10001924:	1859      	adds	r1, r3, r1
10001926:	2300      	movs	r3, #0
10001928:	1840      	adds	r0, r0, r1
1000192a:	3803      	subs	r0, #3
1000192c:	7043      	strb	r3, [r0, #1]
1000192e:	bd30      	pop	{r4, r5, pc}

10001930 <ph_merge_two_pass>:
10001930:	b5f8      	push	{r3, r4, r5, r6, r7, lr}
10001932:	46ce      	mov	lr, r9
10001934:	4647      	mov	r7, r8
10001936:	0006      	movs	r6, r0
10001938:	000c      	movs	r4, r1
1000193a:	b580      	push	{r7, lr}
1000193c:	2900      	cmp	r1, #0
1000193e:	d007      	beq.n	10001950 <ph_merge_two_pass+0x20>
10001940:	004d      	lsls	r5, r1, #1
10001942:	6803      	ldr	r3, [r0, #0]
10001944:	186d      	adds	r5, r5, r1
10001946:	3d03      	subs	r5, #3
10001948:	195a      	adds	r2, r3, r5
1000194a:	7857      	ldrb	r7, [r2, #1]
1000194c:	2f00      	cmp	r7, #0
1000194e:	d104      	bne.n	1000195a <ph_merge_two_pass+0x2a>
10001950:	0020      	movs	r0, r4
10001952:	bc0c      	pop	{r2, r3}
10001954:	4690      	mov	r8, r2
10001956:	4699      	mov	r9, r3
10001958:	bdf8      	pop	{r3, r4, r5, r6, r7, pc}
1000195a:	0079      	lsls	r1, r7, #1
1000195c:	19c9      	adds	r1, r1, r7
1000195e:	3903      	subs	r1, #3
10001960:	4688      	mov	r8, r1
10001962:	4443      	add	r3, r8
10001964:	7859      	ldrb	r1, [r3, #1]
10001966:	4689      	mov	r9, r1
10001968:	2100      	movs	r1, #0
1000196a:	7059      	strb	r1, [r3, #1]
1000196c:	7051      	strb	r1, [r2, #1]
1000196e:	6873      	ldr	r3, [r6, #4]
10001970:	003a      	movs	r2, r7
10001972:	0021      	movs	r1, r4
10001974:	6880      	ldr	r0, [r0, #8]
10001976:	4798      	blx	r3
10001978:	6833      	ldr	r3, [r6, #0]
1000197a:	2800      	cmp	r0, #0
1000197c:	d014      	beq.n	100019a8 <ph_merge_two_pass+0x78>
1000197e:	4642      	mov	r2, r8
10001980:	189a      	adds	r2, r3, r2
10001982:	7094      	strb	r4, [r2, #2]
10001984:	1959      	adds	r1, r3, r5
10001986:	5d5b      	ldrb	r3, [r3, r5]
10001988:	2b00      	cmp	r3, #0
1000198a:	d000      	beq.n	1000198e <ph_merge_two_pass+0x5e>
1000198c:	7053      	strb	r3, [r2, #1]
1000198e:	700f      	strb	r7, [r1, #0]
10001990:	0027      	movs	r7, r4
10001992:	4649      	mov	r1, r9
10001994:	0030      	movs	r0, r6
10001996:	f7ff ffcb 	bl	10001930 <ph_merge_two_pass>
1000199a:	0039      	movs	r1, r7
1000199c:	0002      	movs	r2, r0
1000199e:	0030      	movs	r0, r6
100019a0:	f7ff ff74 	bl	1000188c <ph_merge_nodes>
100019a4:	0004      	movs	r4, r0
100019a6:	e7d3      	b.n	10001950 <ph_merge_two_pass+0x20>
100019a8:	4642      	mov	r2, r8
100019aa:	4641      	mov	r1, r8
100019ac:	195d      	adds	r5, r3, r5
100019ae:	70af      	strb	r7, [r5, #2]
100019b0:	189a      	adds	r2, r3, r2
100019b2:	5c5b      	ldrb	r3, [r3, r1]
100019b4:	2b00      	cmp	r3, #0
100019b6:	d000      	beq.n	100019ba <ph_merge_two_pass+0x8a>
100019b8:	706b      	strb	r3, [r5, #1]
100019ba:	7014      	strb	r4, [r2, #0]
100019bc:	e7e9      	b.n	10001992 <ph_merge_two_pass+0x62>
100019be:	46c0      	nop			; (mov r8, r8)

100019c0 <ph_remove_any_head>:
100019c0:	b5f0      	push	{r4, r5, r6, r7, lr}
100019c2:	4657      	mov	r7, sl
100019c4:	4645      	mov	r5, r8
100019c6:	46de      	mov	lr, fp
100019c8:	464e      	mov	r6, r9
100019ca:	b5e0      	push	{r5, r6, r7, lr}
100019cc:	000d      	movs	r5, r1
100019ce:	006b      	lsls	r3, r5, #1
100019d0:	6801      	ldr	r1, [r0, #0]
100019d2:	195b      	adds	r3, r3, r5
100019d4:	1edf      	subs	r7, r3, #3
100019d6:	0004      	movs	r4, r0
100019d8:	5dc8      	ldrb	r0, [r1, r7]
100019da:	b083      	sub	sp, #12
100019dc:	9201      	str	r2, [sp, #4]
100019de:	19ca      	adds	r2, r1, r7
100019e0:	2800      	cmp	r0, #0
100019e2:	d050      	beq.n	10001a86 <ph_remove_any_head+0xc6>
100019e4:	0043      	lsls	r3, r0, #1
100019e6:	181b      	adds	r3, r3, r0
100019e8:	3b03      	subs	r3, #3
100019ea:	18cb      	adds	r3, r1, r3
100019ec:	785e      	ldrb	r6, [r3, #1]
100019ee:	46b4      	mov	ip, r6
100019f0:	2e00      	cmp	r6, #0
100019f2:	d11a      	bne.n	10001a2a <ph_remove_any_head+0x6a>
100019f4:	9e01      	ldr	r6, [sp, #4]
100019f6:	2e00      	cmp	r6, #0
100019f8:	d042      	beq.n	10001a80 <ph_remove_any_head+0xc0>
100019fa:	7be6      	ldrb	r6, [r4, #15]
100019fc:	2e00      	cmp	r6, #0
100019fe:	d004      	beq.n	10001a0a <ph_remove_any_head+0x4a>
10001a00:	0073      	lsls	r3, r6, #1
10001a02:	199b      	adds	r3, r3, r6
10001a04:	18cb      	adds	r3, r1, r3
10001a06:	3b03      	subs	r3, #3
10001a08:	705d      	strb	r5, [r3, #1]
10001a0a:	7ba3      	ldrb	r3, [r4, #14]
10001a0c:	2b00      	cmp	r3, #0
10001a0e:	d100      	bne.n	10001a12 <ph_remove_any_head+0x52>
10001a10:	73a5      	strb	r5, [r4, #14]
10001a12:	73e5      	strb	r5, [r4, #15]
10001a14:	2800      	cmp	r0, #0
10001a16:	d12f      	bne.n	10001a78 <ph_remove_any_head+0xb8>
10001a18:	2300      	movs	r3, #0
10001a1a:	7053      	strb	r3, [r2, #1]
10001a1c:	b003      	add	sp, #12
10001a1e:	bc3c      	pop	{r2, r3, r4, r5}
10001a20:	4690      	mov	r8, r2
10001a22:	4699      	mov	r9, r3
10001a24:	46a2      	mov	sl, r4
10001a26:	46ab      	mov	fp, r5
10001a28:	bdf0      	pop	{r4, r5, r6, r7, pc}
10001a2a:	0072      	lsls	r2, r6, #1
10001a2c:	4462      	add	r2, ip
10001a2e:	3a03      	subs	r2, #3
10001a30:	1889      	adds	r1, r1, r2
10001a32:	784a      	ldrb	r2, [r1, #1]
10001a34:	4690      	mov	r8, r2
10001a36:	2200      	movs	r2, #0
10001a38:	704a      	strb	r2, [r1, #1]
10001a3a:	4691      	mov	r9, r2
10001a3c:	705a      	strb	r2, [r3, #1]
10001a3e:	0001      	movs	r1, r0
10001a40:	0032      	movs	r2, r6
10001a42:	0020      	movs	r0, r4
10001a44:	f7ff ff22 	bl	1000188c <ph_merge_nodes>
10001a48:	4643      	mov	r3, r8
10001a4a:	4682      	mov	sl, r0
10001a4c:	2b00      	cmp	r3, #0
10001a4e:	d007      	beq.n	10001a60 <ph_remove_any_head+0xa0>
10001a50:	005b      	lsls	r3, r3, #1
10001a52:	6821      	ldr	r1, [r4, #0]
10001a54:	4443      	add	r3, r8
10001a56:	3b03      	subs	r3, #3
10001a58:	18cb      	adds	r3, r1, r3
10001a5a:	785a      	ldrb	r2, [r3, #1]
10001a5c:	2a00      	cmp	r2, #0
10001a5e:	d116      	bne.n	10001a8e <ph_remove_any_head+0xce>
10001a60:	4642      	mov	r2, r8
10001a62:	4651      	mov	r1, sl
10001a64:	0020      	movs	r0, r4
10001a66:	f7ff ff11 	bl	1000188c <ph_merge_nodes>
10001a6a:	6821      	ldr	r1, [r4, #0]
10001a6c:	9b01      	ldr	r3, [sp, #4]
10001a6e:	19ca      	adds	r2, r1, r7
10001a70:	2b00      	cmp	r3, #0
10001a72:	d1c2      	bne.n	100019fa <ph_remove_any_head+0x3a>
10001a74:	2800      	cmp	r0, #0
10001a76:	d0cf      	beq.n	10001a18 <ph_remove_any_head+0x58>
10001a78:	0043      	lsls	r3, r0, #1
10001a7a:	181b      	adds	r3, r3, r0
10001a7c:	3b03      	subs	r3, #3
10001a7e:	18cb      	adds	r3, r1, r3
10001a80:	2100      	movs	r1, #0
10001a82:	7099      	strb	r1, [r3, #2]
10001a84:	e7c8      	b.n	10001a18 <ph_remove_any_head+0x58>
10001a86:	9b01      	ldr	r3, [sp, #4]
10001a88:	2b00      	cmp	r3, #0
10001a8a:	d1b6      	bne.n	100019fa <ph_remove_any_head+0x3a>
10001a8c:	e7c4      	b.n	10001a18 <ph_remove_any_head+0x58>
10001a8e:	0050      	lsls	r0, r2, #1
10001a90:	1880      	adds	r0, r0, r2
10001a92:	3803      	subs	r0, #3
10001a94:	1809      	adds	r1, r1, r0
10001a96:	7848      	ldrb	r0, [r1, #1]
10001a98:	4683      	mov	fp, r0
10001a9a:	4648      	mov	r0, r9
10001a9c:	7048      	strb	r0, [r1, #1]
10001a9e:	7058      	strb	r0, [r3, #1]
10001aa0:	4641      	mov	r1, r8
10001aa2:	0020      	movs	r0, r4
10001aa4:	f7ff fef2 	bl	1000188c <ph_merge_nodes>
10001aa8:	4659      	mov	r1, fp
10001aaa:	4680      	mov	r8, r0
10001aac:	0020      	movs	r0, r4
10001aae:	f7ff ff3f 	bl	10001930 <ph_merge_two_pass>
10001ab2:	4641      	mov	r1, r8
10001ab4:	0002      	movs	r2, r0
10001ab6:	0020      	movs	r0, r4
10001ab8:	f7ff fee8 	bl	1000188c <ph_merge_nodes>
10001abc:	4680      	mov	r8, r0
10001abe:	e7cf      	b.n	10001a60 <ph_remove_any_head+0xa0>

10001ac0 <ph_remove_head>:
10001ac0:	b5f0      	push	{r4, r5, r6, r7, lr}
10001ac2:	464e      	mov	r6, r9
10001ac4:	4645      	mov	r5, r8
10001ac6:	46de      	mov	lr, fp
10001ac8:	4657      	mov	r7, sl
10001aca:	b5e0      	push	{r5, r6, r7, lr}
10001acc:	7b46      	ldrb	r6, [r0, #13]
10001ace:	0004      	movs	r4, r0
10001ad0:	0075      	lsls	r5, r6, #1
10001ad2:	6800      	ldr	r0, [r0, #0]
10001ad4:	19ad      	adds	r5, r5, r6
10001ad6:	3d03      	subs	r5, #3
10001ad8:	b083      	sub	sp, #12
10001ada:	9101      	str	r1, [sp, #4]
10001adc:	5d41      	ldrb	r1, [r0, r5]
10001ade:	1942      	adds	r2, r0, r5
10001ae0:	2900      	cmp	r1, #0
10001ae2:	d052      	beq.n	10001b8a <ph_remove_head+0xca>
10001ae4:	004b      	lsls	r3, r1, #1
10001ae6:	185b      	adds	r3, r3, r1
10001ae8:	3b03      	subs	r3, #3
10001aea:	18c3      	adds	r3, r0, r3
10001aec:	785f      	ldrb	r7, [r3, #1]
10001aee:	46bc      	mov	ip, r7
10001af0:	2f00      	cmp	r7, #0
10001af2:	d11c      	bne.n	10001b2e <ph_remove_head+0x6e>
10001af4:	9d01      	ldr	r5, [sp, #4]
10001af6:	2d00      	cmp	r5, #0
10001af8:	d044      	beq.n	10001b84 <ph_remove_head+0xc4>
10001afa:	7be5      	ldrb	r5, [r4, #15]
10001afc:	2d00      	cmp	r5, #0
10001afe:	d004      	beq.n	10001b0a <ph_remove_head+0x4a>
10001b00:	006b      	lsls	r3, r5, #1
10001b02:	195b      	adds	r3, r3, r5
10001b04:	18c3      	adds	r3, r0, r3
10001b06:	3b03      	subs	r3, #3
10001b08:	705e      	strb	r6, [r3, #1]
10001b0a:	7ba3      	ldrb	r3, [r4, #14]
10001b0c:	2b00      	cmp	r3, #0
10001b0e:	d100      	bne.n	10001b12 <ph_remove_head+0x52>
10001b10:	73a6      	strb	r6, [r4, #14]
10001b12:	73e6      	strb	r6, [r4, #15]
10001b14:	2900      	cmp	r1, #0
10001b16:	d131      	bne.n	10001b7c <ph_remove_head+0xbc>
10001b18:	2300      	movs	r3, #0
10001b1a:	0030      	movs	r0, r6
10001b1c:	7053      	strb	r3, [r2, #1]
10001b1e:	7361      	strb	r1, [r4, #13]
10001b20:	b003      	add	sp, #12
10001b22:	bc3c      	pop	{r2, r3, r4, r5}
10001b24:	4690      	mov	r8, r2
10001b26:	4699      	mov	r9, r3
10001b28:	46a2      	mov	sl, r4
10001b2a:	46ab      	mov	fp, r5
10001b2c:	bdf0      	pop	{r4, r5, r6, r7, pc}
10001b2e:	007a      	lsls	r2, r7, #1
10001b30:	4462      	add	r2, ip
10001b32:	3a03      	subs	r2, #3
10001b34:	1880      	adds	r0, r0, r2
10001b36:	7842      	ldrb	r2, [r0, #1]
10001b38:	4693      	mov	fp, r2
10001b3a:	2200      	movs	r2, #0
10001b3c:	7042      	strb	r2, [r0, #1]
10001b3e:	4691      	mov	r9, r2
10001b40:	705a      	strb	r2, [r3, #1]
10001b42:	0020      	movs	r0, r4
10001b44:	003a      	movs	r2, r7
10001b46:	f7ff fea1 	bl	1000188c <ph_merge_nodes>
10001b4a:	465b      	mov	r3, fp
10001b4c:	4680      	mov	r8, r0
10001b4e:	2b00      	cmp	r3, #0
10001b50:	d007      	beq.n	10001b62 <ph_remove_head+0xa2>
10001b52:	005b      	lsls	r3, r3, #1
10001b54:	6821      	ldr	r1, [r4, #0]
10001b56:	445b      	add	r3, fp
10001b58:	3b03      	subs	r3, #3
10001b5a:	18cb      	adds	r3, r1, r3
10001b5c:	785a      	ldrb	r2, [r3, #1]
10001b5e:	2a00      	cmp	r2, #0
10001b60:	d117      	bne.n	10001b92 <ph_remove_head+0xd2>
10001b62:	465a      	mov	r2, fp
10001b64:	4641      	mov	r1, r8
10001b66:	0020      	movs	r0, r4
10001b68:	f7ff fe90 	bl	1000188c <ph_merge_nodes>
10001b6c:	9b01      	ldr	r3, [sp, #4]
10001b6e:	0001      	movs	r1, r0
10001b70:	6820      	ldr	r0, [r4, #0]
10001b72:	1942      	adds	r2, r0, r5
10001b74:	2b00      	cmp	r3, #0
10001b76:	d1c0      	bne.n	10001afa <ph_remove_head+0x3a>
10001b78:	2900      	cmp	r1, #0
10001b7a:	d0cd      	beq.n	10001b18 <ph_remove_head+0x58>
10001b7c:	004b      	lsls	r3, r1, #1
10001b7e:	185b      	adds	r3, r3, r1
10001b80:	3b03      	subs	r3, #3
10001b82:	18c3      	adds	r3, r0, r3
10001b84:	2000      	movs	r0, #0
10001b86:	7098      	strb	r0, [r3, #2]
10001b88:	e7c6      	b.n	10001b18 <ph_remove_head+0x58>
10001b8a:	9b01      	ldr	r3, [sp, #4]
10001b8c:	2b00      	cmp	r3, #0
10001b8e:	d1b4      	bne.n	10001afa <ph_remove_head+0x3a>
10001b90:	e7c2      	b.n	10001b18 <ph_remove_head+0x58>
10001b92:	0050      	lsls	r0, r2, #1
10001b94:	1880      	adds	r0, r0, r2
10001b96:	3803      	subs	r0, #3
10001b98:	1809      	adds	r1, r1, r0
10001b9a:	7848      	ldrb	r0, [r1, #1]
10001b9c:	4682      	mov	sl, r0
10001b9e:	4648      	mov	r0, r9
10001ba0:	7048      	strb	r0, [r1, #1]
10001ba2:	7058      	strb	r0, [r3, #1]
10001ba4:	4659      	mov	r1, fp
10001ba6:	0020      	movs	r0, r4
10001ba8:	f7ff fe70 	bl	1000188c <ph_merge_nodes>
10001bac:	4653      	mov	r3, sl
10001bae:	4683      	mov	fp, r0
10001bb0:	2b00      	cmp	r3, #0
10001bb2:	d007      	beq.n	10001bc4 <ph_remove_head+0x104>
10001bb4:	005b      	lsls	r3, r3, #1
10001bb6:	6821      	ldr	r1, [r4, #0]
10001bb8:	4453      	add	r3, sl
10001bba:	3b03      	subs	r3, #3
10001bbc:	18cb      	adds	r3, r1, r3
10001bbe:	785a      	ldrb	r2, [r3, #1]
10001bc0:	2a00      	cmp	r2, #0
10001bc2:	d106      	bne.n	10001bd2 <ph_remove_head+0x112>
10001bc4:	4659      	mov	r1, fp
10001bc6:	4652      	mov	r2, sl
10001bc8:	0020      	movs	r0, r4
10001bca:	f7ff fe5f 	bl	1000188c <ph_merge_nodes>
10001bce:	4683      	mov	fp, r0
10001bd0:	e7c7      	b.n	10001b62 <ph_remove_head+0xa2>
10001bd2:	0050      	lsls	r0, r2, #1
10001bd4:	1880      	adds	r0, r0, r2
10001bd6:	3803      	subs	r0, #3
10001bd8:	1809      	adds	r1, r1, r0
10001bda:	4648      	mov	r0, r9
10001bdc:	784f      	ldrb	r7, [r1, #1]
10001bde:	7048      	strb	r0, [r1, #1]
10001be0:	7058      	strb	r0, [r3, #1]
10001be2:	4651      	mov	r1, sl
10001be4:	0020      	movs	r0, r4
10001be6:	f7ff fe51 	bl	1000188c <ph_merge_nodes>
10001bea:	0039      	movs	r1, r7
10001bec:	4681      	mov	r9, r0
10001bee:	0020      	movs	r0, r4
10001bf0:	f7ff fe9e 	bl	10001930 <ph_merge_two_pass>
10001bf4:	4649      	mov	r1, r9
10001bf6:	0002      	movs	r2, r0
10001bf8:	0020      	movs	r0, r4
10001bfa:	f7ff fe47 	bl	1000188c <ph_merge_nodes>
10001bfe:	4682      	mov	sl, r0
10001c00:	e7e0      	b.n	10001bc4 <ph_remove_head+0x104>
10001c02:	46c0      	nop			; (mov r8, r8)

10001c04 <ph_remove_and_free_node>:
10001c04:	b570      	push	{r4, r5, r6, lr}
10001c06:	0004      	movs	r4, r0
10001c08:	2900      	cmp	r1, #0
10001c0a:	d02c      	beq.n	10001c66 <ph_remove_and_free_node+0x62>
10001c0c:	7b43      	ldrb	r3, [r0, #13]
10001c0e:	428b      	cmp	r3, r1
10001c10:	d02e      	beq.n	10001c70 <ph_remove_and_free_node+0x6c>
10001c12:	6805      	ldr	r5, [r0, #0]
10001c14:	0048      	lsls	r0, r1, #1
10001c16:	1840      	adds	r0, r0, r1
10001c18:	3803      	subs	r0, #3
10001c1a:	1828      	adds	r0, r5, r0
10001c1c:	7882      	ldrb	r2, [r0, #2]
10001c1e:	2a00      	cmp	r2, #0
10001c20:	d021      	beq.n	10001c66 <ph_remove_and_free_node+0x62>
10001c22:	0053      	lsls	r3, r2, #1
10001c24:	189b      	adds	r3, r3, r2
10001c26:	3b03      	subs	r3, #3
10001c28:	5cea      	ldrb	r2, [r5, r3]
10001c2a:	18ee      	adds	r6, r5, r3
10001c2c:	428a      	cmp	r2, r1
10001c2e:	d102      	bne.n	10001c36 <ph_remove_and_free_node+0x32>
10001c30:	e01b      	b.n	10001c6a <ph_remove_and_free_node+0x66>
10001c32:	2a00      	cmp	r2, #0
10001c34:	d008      	beq.n	10001c48 <ph_remove_and_free_node+0x44>
10001c36:	0053      	lsls	r3, r2, #1
10001c38:	189b      	adds	r3, r3, r2
10001c3a:	3b03      	subs	r3, #3
10001c3c:	18eb      	adds	r3, r5, r3
10001c3e:	785a      	ldrb	r2, [r3, #1]
10001c40:	428a      	cmp	r2, r1
10001c42:	d1f6      	bne.n	10001c32 <ph_remove_and_free_node+0x2e>
10001c44:	7842      	ldrb	r2, [r0, #1]
10001c46:	705a      	strb	r2, [r3, #1]
10001c48:	2300      	movs	r3, #0
10001c4a:	2201      	movs	r2, #1
10001c4c:	7083      	strb	r3, [r0, #2]
10001c4e:	7043      	strb	r3, [r0, #1]
10001c50:	0020      	movs	r0, r4
10001c52:	f7ff feb5 	bl	100019c0 <ph_remove_any_head>
10001c56:	7b61      	ldrb	r1, [r4, #13]
10001c58:	0002      	movs	r2, r0
10001c5a:	0020      	movs	r0, r4
10001c5c:	f7ff fe16 	bl	1000188c <ph_merge_nodes>
10001c60:	7360      	strb	r0, [r4, #13]
10001c62:	2001      	movs	r0, #1
10001c64:	e000      	b.n	10001c68 <ph_remove_and_free_node+0x64>
10001c66:	2000      	movs	r0, #0
10001c68:	bd70      	pop	{r4, r5, r6, pc}
10001c6a:	7843      	ldrb	r3, [r0, #1]
10001c6c:	7033      	strb	r3, [r6, #0]
10001c6e:	e7eb      	b.n	10001c48 <ph_remove_and_free_node+0x44>
10001c70:	2201      	movs	r2, #1
10001c72:	0019      	movs	r1, r3
10001c74:	f7ff fea4 	bl	100019c0 <ph_remove_any_head>
10001c78:	7360      	strb	r0, [r4, #13]
10001c7a:	2001      	movs	r0, #1
10001c7c:	e7f4      	b.n	10001c68 <ph_remove_and_free_node+0x64>
10001c7e:	46c0      	nop			; (mov r8, r8)

10001c80 <uart_init>:
10001c80:	b5f8      	push	{r3, r4, r5, r6, r7, lr}
10001c82:	0004      	movs	r4, r0
10001c84:	2006      	movs	r0, #6
10001c86:	000d      	movs	r5, r1
10001c88:	f000 f9ca 	bl	10002020 <clock_get_hz>
10001c8c:	2800      	cmp	r0, #0
10001c8e:	d045      	beq.n	10001d1c <uart_init+0x9c>
10001c90:	4b2b      	ldr	r3, [pc, #172]	; (10001d40 <uart_init+0xc0>)
10001c92:	492c      	ldr	r1, [pc, #176]	; (10001d44 <uart_init+0xc4>)
10001c94:	18e3      	adds	r3, r4, r3
10001c96:	425a      	negs	r2, r3
10001c98:	4153      	adcs	r3, r2
10001c9a:	2280      	movs	r2, #128	; 0x80
10001c9c:	03d2      	lsls	r2, r2, #15
10001c9e:	4694      	mov	ip, r2
10001ca0:	425b      	negs	r3, r3
10001ca2:	4013      	ands	r3, r2
10001ca4:	4a28      	ldr	r2, [pc, #160]	; (10001d48 <uart_init+0xc8>)
10001ca6:	4463      	add	r3, ip
10001ca8:	6013      	str	r3, [r2, #0]
10001caa:	4a28      	ldr	r2, [pc, #160]	; (10001d4c <uart_init+0xcc>)
10001cac:	6013      	str	r3, [r2, #0]
10001cae:	0018      	movs	r0, r3
10001cb0:	688a      	ldr	r2, [r1, #8]
10001cb2:	4390      	bics	r0, r2
10001cb4:	d1fb      	bne.n	10001cae <uart_init+0x2e>
10001cb6:	4b22      	ldr	r3, [pc, #136]	; (10001d40 <uart_init+0xc0>)
10001cb8:	2180      	movs	r1, #128	; 0x80
10001cba:	18e3      	adds	r3, r4, r3
10001cbc:	425a      	negs	r2, r3
10001cbe:	4153      	adcs	r3, r2
10001cc0:	4a23      	ldr	r2, [pc, #140]	; (10001d50 <uart_init+0xd0>)
10001cc2:	005b      	lsls	r3, r3, #1
10001cc4:	0049      	lsls	r1, r1, #1
10001cc6:	2006      	movs	r0, #6
10001cc8:	5299      	strh	r1, [r3, r2]
10001cca:	f000 f9a9 	bl	10002020 <clock_get_hz>
10001cce:	0029      	movs	r1, r5
10001cd0:	00c0      	lsls	r0, r0, #3
10001cd2:	f000 fb13 	bl	100022fc <__wrap___aeabi_uidiv>
10001cd6:	09c3      	lsrs	r3, r0, #7
10001cd8:	d121      	bne.n	10001d1e <uart_init+0x9e>
10001cda:	2740      	movs	r7, #64	; 0x40
10001cdc:	2201      	movs	r2, #1
10001cde:	0026      	movs	r6, r4
10001ce0:	2580      	movs	r5, #128	; 0x80
10001ce2:	6262      	str	r2, [r4, #36]	; 0x24
10001ce4:	62a3      	str	r3, [r4, #40]	; 0x28
10001ce6:	2300      	movs	r3, #0
10001ce8:	362c      	adds	r6, #44	; 0x2c
10001cea:	01ad      	lsls	r5, r5, #6
10001cec:	4335      	orrs	r5, r6
10001cee:	602b      	str	r3, [r5, #0]
10001cf0:	2006      	movs	r0, #6
10001cf2:	f000 f995 	bl	10002020 <clock_get_hz>
10001cf6:	0039      	movs	r1, r7
10001cf8:	0080      	lsls	r0, r0, #2
10001cfa:	f000 faff 	bl	100022fc <__wrap___aeabi_uidiv>
10001cfe:	2360      	movs	r3, #96	; 0x60
10001d00:	6ae2      	ldr	r2, [r4, #44]	; 0x2c
10001d02:	4053      	eors	r3, r2
10001d04:	226e      	movs	r2, #110	; 0x6e
10001d06:	401a      	ands	r2, r3
10001d08:	2380      	movs	r3, #128	; 0x80
10001d0a:	015b      	lsls	r3, r3, #5
10001d0c:	4333      	orrs	r3, r6
10001d0e:	601a      	str	r2, [r3, #0]
10001d10:	4b10      	ldr	r3, [pc, #64]	; (10001d54 <uart_init+0xd4>)
10001d12:	6323      	str	r3, [r4, #48]	; 0x30
10001d14:	2310      	movs	r3, #16
10001d16:	602b      	str	r3, [r5, #0]
10001d18:	3b0d      	subs	r3, #13
10001d1a:	64a3      	str	r3, [r4, #72]	; 0x48
10001d1c:	bdf8      	pop	{r3, r4, r5, r6, r7, pc}
10001d1e:	4a0e      	ldr	r2, [pc, #56]	; (10001d58 <uart_init+0xd8>)
10001d20:	4293      	cmp	r3, r2
10001d22:	d903      	bls.n	10001d2c <uart_init+0xac>
10001d24:	2300      	movs	r3, #0
10001d26:	4f0d      	ldr	r7, [pc, #52]	; (10001d5c <uart_init+0xdc>)
10001d28:	4a0d      	ldr	r2, [pc, #52]	; (10001d60 <uart_init+0xe0>)
10001d2a:	e7d8      	b.n	10001cde <uart_init+0x5e>
10001d2c:	227f      	movs	r2, #127	; 0x7f
10001d2e:	4010      	ands	r0, r2
10001d30:	3001      	adds	r0, #1
10001d32:	0840      	lsrs	r0, r0, #1
10001d34:	019f      	lsls	r7, r3, #6
10001d36:	001a      	movs	r2, r3
10001d38:	183f      	adds	r7, r7, r0
10001d3a:	0003      	movs	r3, r0
10001d3c:	e7cf      	b.n	10001cde <uart_init+0x5e>
10001d3e:	46c0      	nop			; (mov r8, r8)
10001d40:	bffc8000 	.word	0xbffc8000
10001d44:	4000c000 	.word	0x4000c000
10001d48:	4000e000 	.word	0x4000e000
10001d4c:	4000f000 	.word	0x4000f000
10001d50:	20002044 	.word	0x20002044
10001d54:	00000301 	.word	0x00000301
10001d58:	0000fffe 	.word	0x0000fffe
10001d5c:	003fffc0 	.word	0x003fffc0
10001d60:	0000ffff 	.word	0x0000ffff

10001d64 <clocks_init>:
10001d64:	b530      	push	{r4, r5, lr}
10001d66:	200c      	movs	r0, #12
10001d68:	b083      	sub	sp, #12
10001d6a:	f000 f9b3 	bl	100020d4 <watchdog_start_tick>
10001d6e:	f7fe fd5b 	bl	10000828 <running_on_fpga>
10001d72:	2800      	cmp	r0, #0
10001d74:	d00e      	beq.n	10001d94 <clocks_init+0x30>
10001d76:	4b94      	ldr	r3, [pc, #592]	; (10001fc8 <clocks_init+0x264>)
10001d78:	4a94      	ldr	r2, [pc, #592]	; (10001fcc <clocks_init+0x268>)
10001d7a:	601a      	str	r2, [r3, #0]
10001d7c:	605a      	str	r2, [r3, #4]
10001d7e:	609a      	str	r2, [r3, #8]
10001d80:	60da      	str	r2, [r3, #12]
10001d82:	611a      	str	r2, [r3, #16]
10001d84:	615a      	str	r2, [r3, #20]
10001d86:	619a      	str	r2, [r3, #24]
10001d88:	61da      	str	r2, [r3, #28]
10001d8a:	621a      	str	r2, [r3, #32]
10001d8c:	4a90      	ldr	r2, [pc, #576]	; (10001fd0 <clocks_init+0x26c>)
10001d8e:	625a      	str	r2, [r3, #36]	; 0x24
10001d90:	b003      	add	sp, #12
10001d92:	bd30      	pop	{r4, r5, pc}
10001d94:	4c8f      	ldr	r4, [pc, #572]	; (10001fd4 <clocks_init+0x270>)
10001d96:	67a0      	str	r0, [r4, #120]	; 0x78
10001d98:	f000 f9a4 	bl	100020e4 <xosc_init>
10001d9c:	2201      	movs	r2, #1
10001d9e:	4b8e      	ldr	r3, [pc, #568]	; (10001fd8 <clocks_init+0x274>)
10001da0:	601a      	str	r2, [r3, #0]
10001da2:	6c63      	ldr	r3, [r4, #68]	; 0x44
10001da4:	2b01      	cmp	r3, #1
10001da6:	d1fc      	bne.n	10001da2 <clocks_init+0x3e>
10001da8:	2203      	movs	r2, #3
10001daa:	4b8c      	ldr	r3, [pc, #560]	; (10001fdc <clocks_init+0x278>)
10001dac:	601a      	str	r2, [r3, #0]
10001dae:	4a89      	ldr	r2, [pc, #548]	; (10001fd4 <clocks_init+0x270>)
10001db0:	6b93      	ldr	r3, [r2, #56]	; 0x38
10001db2:	2b01      	cmp	r3, #1
10001db4:	d1fc      	bne.n	10001db0 <clocks_init+0x4c>
10001db6:	3301      	adds	r3, #1
10001db8:	2101      	movs	r1, #1
10001dba:	4a89      	ldr	r2, [pc, #548]	; (10001fe0 <clocks_init+0x27c>)
10001dbc:	4889      	ldr	r0, [pc, #548]	; (10001fe4 <clocks_init+0x280>)
10001dbe:	9300      	str	r3, [sp, #0]
10001dc0:	3304      	adds	r3, #4
10001dc2:	f000 f933 	bl	1000202c <pll_init>
10001dc6:	2305      	movs	r3, #5
10001dc8:	4a87      	ldr	r2, [pc, #540]	; (10001fe8 <clocks_init+0x284>)
10001dca:	9300      	str	r3, [sp, #0]
10001dcc:	2101      	movs	r1, #1
10001dce:	4887      	ldr	r0, [pc, #540]	; (10001fec <clocks_init+0x288>)
10001dd0:	f000 f92c 	bl	1000202c <pll_init>
10001dd4:	4b86      	ldr	r3, [pc, #536]	; (10001ff0 <clocks_init+0x28c>)
10001dd6:	685a      	ldr	r2, [r3, #4]
10001dd8:	2aff      	cmp	r2, #255	; 0xff
10001dda:	d802      	bhi.n	10001de2 <clocks_init+0x7e>
10001ddc:	2280      	movs	r2, #128	; 0x80
10001dde:	0052      	lsls	r2, r2, #1
10001de0:	605a      	str	r2, [r3, #4]
10001de2:	2280      	movs	r2, #128	; 0x80
10001de4:	4c78      	ldr	r4, [pc, #480]	; (10001fc8 <clocks_init+0x264>)
10001de6:	4b7d      	ldr	r3, [pc, #500]	; (10001fdc <clocks_init+0x278>)
10001de8:	6921      	ldr	r1, [r4, #16]
10001dea:	0112      	lsls	r2, r2, #4
10001dec:	4d80      	ldr	r5, [pc, #512]	; (10001ff0 <clocks_init+0x28c>)
10001dee:	601a      	str	r2, [r3, #0]
10001df0:	2900      	cmp	r1, #0
10001df2:	d005      	beq.n	10001e00 <clocks_init+0x9c>
10001df4:	6960      	ldr	r0, [r4, #20]
10001df6:	f000 fa81 	bl	100022fc <__wrap___aeabi_uidiv>
10001dfa:	3001      	adds	r0, #1
10001dfc:	3801      	subs	r0, #1
10001dfe:	d1fd      	bne.n	10001dfc <clocks_init+0x98>
10001e00:	21e0      	movs	r1, #224	; 0xe0
10001e02:	4b7b      	ldr	r3, [pc, #492]	; (10001ff0 <clocks_init+0x28c>)
10001e04:	2002      	movs	r0, #2
10001e06:	681a      	ldr	r2, [r3, #0]
10001e08:	4011      	ands	r1, r2
10001e0a:	2280      	movs	r2, #128	; 0x80
10001e0c:	0152      	lsls	r2, r2, #5
10001e0e:	432a      	orrs	r2, r5
10001e10:	6011      	str	r1, [r2, #0]
10001e12:	6819      	ldr	r1, [r3, #0]
10001e14:	4048      	eors	r0, r1
10001e16:	2103      	movs	r1, #3
10001e18:	4001      	ands	r1, r0
10001e1a:	6011      	str	r1, [r2, #0]
10001e1c:	2104      	movs	r1, #4
10001e1e:	689a      	ldr	r2, [r3, #8]
10001e20:	4211      	tst	r1, r2
10001e22:	d0fc      	beq.n	10001e1e <clocks_init+0xba>
10001e24:	2280      	movs	r2, #128	; 0x80
10001e26:	2180      	movs	r1, #128	; 0x80
10001e28:	0192      	lsls	r2, r2, #6
10001e2a:	432a      	orrs	r2, r5
10001e2c:	0109      	lsls	r1, r1, #4
10001e2e:	6011      	str	r1, [r2, #0]
10001e30:	2280      	movs	r2, #128	; 0x80
10001e32:	0052      	lsls	r2, r2, #1
10001e34:	605a      	str	r2, [r3, #4]
10001e36:	4b6f      	ldr	r3, [pc, #444]	; (10001ff4 <clocks_init+0x290>)
10001e38:	6123      	str	r3, [r4, #16]
10001e3a:	4b6f      	ldr	r3, [pc, #444]	; (10001ff8 <clocks_init+0x294>)
10001e3c:	6859      	ldr	r1, [r3, #4]
10001e3e:	29ff      	cmp	r1, #255	; 0xff
10001e40:	d800      	bhi.n	10001e44 <clocks_init+0xe0>
10001e42:	605a      	str	r2, [r3, #4]
10001e44:	2203      	movs	r2, #3
10001e46:	486c      	ldr	r0, [pc, #432]	; (10001ff8 <clocks_init+0x294>)
10001e48:	4b63      	ldr	r3, [pc, #396]	; (10001fd8 <clocks_init+0x274>)
10001e4a:	2101      	movs	r1, #1
10001e4c:	601a      	str	r2, [r3, #0]
10001e4e:	0002      	movs	r2, r0
10001e50:	6893      	ldr	r3, [r2, #8]
10001e52:	4219      	tst	r1, r3
10001e54:	d0fc      	beq.n	10001e50 <clocks_init+0xec>
10001e56:	25e0      	movs	r5, #224	; 0xe0
10001e58:	6813      	ldr	r3, [r2, #0]
10001e5a:	401d      	ands	r5, r3
10001e5c:	2380      	movs	r3, #128	; 0x80
10001e5e:	015b      	lsls	r3, r3, #5
10001e60:	4303      	orrs	r3, r0
10001e62:	601d      	str	r5, [r3, #0]
10001e64:	6812      	ldr	r2, [r2, #0]
10001e66:	404a      	eors	r2, r1
10001e68:	2103      	movs	r1, #3
10001e6a:	4011      	ands	r1, r2
10001e6c:	6019      	str	r1, [r3, #0]
10001e6e:	2102      	movs	r1, #2
10001e70:	4a61      	ldr	r2, [pc, #388]	; (10001ff8 <clocks_init+0x294>)
10001e72:	6893      	ldr	r3, [r2, #8]
10001e74:	4219      	tst	r1, r3
10001e76:	d0fc      	beq.n	10001e72 <clocks_init+0x10e>
10001e78:	2380      	movs	r3, #128	; 0x80
10001e7a:	2180      	movs	r1, #128	; 0x80
10001e7c:	019b      	lsls	r3, r3, #6
10001e7e:	4303      	orrs	r3, r0
10001e80:	0109      	lsls	r1, r1, #4
10001e82:	6019      	str	r1, [r3, #0]
10001e84:	2180      	movs	r1, #128	; 0x80
10001e86:	4b5d      	ldr	r3, [pc, #372]	; (10001ffc <clocks_init+0x298>)
10001e88:	0049      	lsls	r1, r1, #1
10001e8a:	6051      	str	r1, [r2, #4]
10001e8c:	6163      	str	r3, [r4, #20]
10001e8e:	4b5c      	ldr	r3, [pc, #368]	; (10002000 <clocks_init+0x29c>)
10001e90:	685a      	ldr	r2, [r3, #4]
10001e92:	2aff      	cmp	r2, #255	; 0xff
10001e94:	d800      	bhi.n	10001e98 <clocks_init+0x134>
10001e96:	6059      	str	r1, [r3, #4]
10001e98:	2280      	movs	r2, #128	; 0x80
10001e9a:	4b5a      	ldr	r3, [pc, #360]	; (10002004 <clocks_init+0x2a0>)
10001e9c:	69e1      	ldr	r1, [r4, #28]
10001e9e:	0112      	lsls	r2, r2, #4
10001ea0:	4d57      	ldr	r5, [pc, #348]	; (10002000 <clocks_init+0x29c>)
10001ea2:	601a      	str	r2, [r3, #0]
10001ea4:	2900      	cmp	r1, #0
10001ea6:	d005      	beq.n	10001eb4 <clocks_init+0x150>
10001ea8:	6960      	ldr	r0, [r4, #20]
10001eaa:	f000 fa27 	bl	100022fc <__wrap___aeabi_uidiv>
10001eae:	3001      	adds	r0, #1
10001eb0:	3801      	subs	r0, #1
10001eb2:	d1fd      	bne.n	10001eb0 <clocks_init+0x14c>
10001eb4:	22e0      	movs	r2, #224	; 0xe0
10001eb6:	4952      	ldr	r1, [pc, #328]	; (10002000 <clocks_init+0x29c>)
10001eb8:	680b      	ldr	r3, [r1, #0]
10001eba:	401a      	ands	r2, r3
10001ebc:	2380      	movs	r3, #128	; 0x80
10001ebe:	015b      	lsls	r3, r3, #5
10001ec0:	432b      	orrs	r3, r5
10001ec2:	601a      	str	r2, [r3, #0]
10001ec4:	2380      	movs	r3, #128	; 0x80
10001ec6:	2280      	movs	r2, #128	; 0x80
10001ec8:	019b      	lsls	r3, r3, #6
10001eca:	432b      	orrs	r3, r5
10001ecc:	0112      	lsls	r2, r2, #4
10001ece:	601a      	str	r2, [r3, #0]
10001ed0:	2280      	movs	r2, #128	; 0x80
10001ed2:	4b3e      	ldr	r3, [pc, #248]	; (10001fcc <clocks_init+0x268>)
10001ed4:	0052      	lsls	r2, r2, #1
10001ed6:	604a      	str	r2, [r1, #4]
10001ed8:	61e3      	str	r3, [r4, #28]
10001eda:	4b4b      	ldr	r3, [pc, #300]	; (10002008 <clocks_init+0x2a4>)
10001edc:	6859      	ldr	r1, [r3, #4]
10001ede:	29ff      	cmp	r1, #255	; 0xff
10001ee0:	d800      	bhi.n	10001ee4 <clocks_init+0x180>
10001ee2:	605a      	str	r2, [r3, #4]
10001ee4:	2280      	movs	r2, #128	; 0x80
10001ee6:	4b49      	ldr	r3, [pc, #292]	; (1000200c <clocks_init+0x2a8>)
10001ee8:	6a21      	ldr	r1, [r4, #32]
10001eea:	0112      	lsls	r2, r2, #4
10001eec:	4d46      	ldr	r5, [pc, #280]	; (10002008 <clocks_init+0x2a4>)
10001eee:	601a      	str	r2, [r3, #0]
10001ef0:	2900      	cmp	r1, #0
10001ef2:	d005      	beq.n	10001f00 <clocks_init+0x19c>
10001ef4:	6960      	ldr	r0, [r4, #20]
10001ef6:	f000 fa01 	bl	100022fc <__wrap___aeabi_uidiv>
10001efa:	3001      	adds	r0, #1
10001efc:	3801      	subs	r0, #1
10001efe:	d1fd      	bne.n	10001efc <clocks_init+0x198>
10001f00:	22e0      	movs	r2, #224	; 0xe0
10001f02:	4941      	ldr	r1, [pc, #260]	; (10002008 <clocks_init+0x2a4>)
10001f04:	680b      	ldr	r3, [r1, #0]
10001f06:	401a      	ands	r2, r3
10001f08:	2380      	movs	r3, #128	; 0x80
10001f0a:	015b      	lsls	r3, r3, #5
10001f0c:	432b      	orrs	r3, r5
10001f0e:	601a      	str	r2, [r3, #0]
10001f10:	2380      	movs	r3, #128	; 0x80
10001f12:	2280      	movs	r2, #128	; 0x80
10001f14:	019b      	lsls	r3, r3, #6
10001f16:	432b      	orrs	r3, r5
10001f18:	0112      	lsls	r2, r2, #4
10001f1a:	601a      	str	r2, [r3, #0]
10001f1c:	2380      	movs	r3, #128	; 0x80
10001f1e:	2280      	movs	r2, #128	; 0x80
10001f20:	005b      	lsls	r3, r3, #1
10001f22:	604b      	str	r3, [r1, #4]
10001f24:	4b29      	ldr	r3, [pc, #164]	; (10001fcc <clocks_init+0x268>)
10001f26:	02d2      	lsls	r2, r2, #11
10001f28:	6223      	str	r3, [r4, #32]
10001f2a:	4b39      	ldr	r3, [pc, #228]	; (10002010 <clocks_init+0x2ac>)
10001f2c:	6859      	ldr	r1, [r3, #4]
10001f2e:	4291      	cmp	r1, r2
10001f30:	d200      	bcs.n	10001f34 <clocks_init+0x1d0>
10001f32:	605a      	str	r2, [r3, #4]
10001f34:	2280      	movs	r2, #128	; 0x80
10001f36:	4b37      	ldr	r3, [pc, #220]	; (10002014 <clocks_init+0x2b0>)
10001f38:	6a61      	ldr	r1, [r4, #36]	; 0x24
10001f3a:	0112      	lsls	r2, r2, #4
10001f3c:	4d34      	ldr	r5, [pc, #208]	; (10002010 <clocks_init+0x2ac>)
10001f3e:	601a      	str	r2, [r3, #0]
10001f40:	2900      	cmp	r1, #0
10001f42:	d005      	beq.n	10001f50 <clocks_init+0x1ec>
10001f44:	6960      	ldr	r0, [r4, #20]
10001f46:	f000 f9d9 	bl	100022fc <__wrap___aeabi_uidiv>
10001f4a:	3001      	adds	r0, #1
10001f4c:	3801      	subs	r0, #1
10001f4e:	d1fd      	bne.n	10001f4c <clocks_init+0x1e8>
10001f50:	22e0      	movs	r2, #224	; 0xe0
10001f52:	492f      	ldr	r1, [pc, #188]	; (10002010 <clocks_init+0x2ac>)
10001f54:	680b      	ldr	r3, [r1, #0]
10001f56:	401a      	ands	r2, r3
10001f58:	2380      	movs	r3, #128	; 0x80
10001f5a:	015b      	lsls	r3, r3, #5
10001f5c:	432b      	orrs	r3, r5
10001f5e:	601a      	str	r2, [r3, #0]
10001f60:	2380      	movs	r3, #128	; 0x80
10001f62:	2280      	movs	r2, #128	; 0x80
10001f64:	019b      	lsls	r3, r3, #6
10001f66:	432b      	orrs	r3, r5
10001f68:	0112      	lsls	r2, r2, #4
10001f6a:	601a      	str	r2, [r3, #0]
10001f6c:	2380      	movs	r3, #128	; 0x80
10001f6e:	02db      	lsls	r3, r3, #11
10001f70:	604b      	str	r3, [r1, #4]
10001f72:	4b17      	ldr	r3, [pc, #92]	; (10001fd0 <clocks_init+0x26c>)
10001f74:	6263      	str	r3, [r4, #36]	; 0x24
10001f76:	4b28      	ldr	r3, [pc, #160]	; (10002018 <clocks_init+0x2b4>)
10001f78:	685a      	ldr	r2, [r3, #4]
10001f7a:	2aff      	cmp	r2, #255	; 0xff
10001f7c:	d802      	bhi.n	10001f84 <clocks_init+0x220>
10001f7e:	2280      	movs	r2, #128	; 0x80
10001f80:	0052      	lsls	r2, r2, #1
10001f82:	605a      	str	r2, [r3, #4]
10001f84:	2280      	movs	r2, #128	; 0x80
10001f86:	4b25      	ldr	r3, [pc, #148]	; (1000201c <clocks_init+0x2b8>)
10001f88:	69a1      	ldr	r1, [r4, #24]
10001f8a:	0112      	lsls	r2, r2, #4
10001f8c:	4d22      	ldr	r5, [pc, #136]	; (10002018 <clocks_init+0x2b4>)
10001f8e:	601a      	str	r2, [r3, #0]
10001f90:	2900      	cmp	r1, #0
10001f92:	d005      	beq.n	10001fa0 <clocks_init+0x23c>
10001f94:	6960      	ldr	r0, [r4, #20]
10001f96:	f000 f9b1 	bl	100022fc <__wrap___aeabi_uidiv>
10001f9a:	3001      	adds	r0, #1
10001f9c:	3801      	subs	r0, #1
10001f9e:	d1fd      	bne.n	10001f9c <clocks_init+0x238>
10001fa0:	22e0      	movs	r2, #224	; 0xe0
10001fa2:	491d      	ldr	r1, [pc, #116]	; (10002018 <clocks_init+0x2b4>)
10001fa4:	680b      	ldr	r3, [r1, #0]
10001fa6:	401a      	ands	r2, r3
10001fa8:	2380      	movs	r3, #128	; 0x80
10001faa:	015b      	lsls	r3, r3, #5
10001fac:	432b      	orrs	r3, r5
10001fae:	601a      	str	r2, [r3, #0]
10001fb0:	2380      	movs	r3, #128	; 0x80
10001fb2:	2280      	movs	r2, #128	; 0x80
10001fb4:	019b      	lsls	r3, r3, #6
10001fb6:	432b      	orrs	r3, r5
10001fb8:	0112      	lsls	r2, r2, #4
10001fba:	601a      	str	r2, [r3, #0]
10001fbc:	2380      	movs	r3, #128	; 0x80
10001fbe:	005b      	lsls	r3, r3, #1
10001fc0:	604b      	str	r3, [r1, #4]
10001fc2:	4b0e      	ldr	r3, [pc, #56]	; (10001ffc <clocks_init+0x298>)
10001fc4:	61a3      	str	r3, [r4, #24]
10001fc6:	e6e3      	b.n	10001d90 <clocks_init+0x2c>
10001fc8:	20001a30 	.word	0x20001a30
10001fcc:	02dc6c00 	.word	0x02dc6c00
10001fd0:	0000b71b 	.word	0x0000b71b
10001fd4:	40008000 	.word	0x40008000
10001fd8:	4000b03c 	.word	0x4000b03c
10001fdc:	4000b030 	.word	0x4000b030
10001fe0:	59682f00 	.word	0x59682f00
10001fe4:	40028000 	.word	0x40028000
10001fe8:	47868c00 	.word	0x47868c00
10001fec:	4002c000 	.word	0x4002c000
10001ff0:	40008030 	.word	0x40008030
10001ff4:	00b71b00 	.word	0x00b71b00
10001ff8:	4000803c 	.word	0x4000803c
10001ffc:	07735940 	.word	0x07735940
10002000:	40008054 	.word	0x40008054
10002004:	4000b054 	.word	0x4000b054
10002008:	40008060 	.word	0x40008060
1000200c:	4000b060 	.word	0x4000b060
10002010:	4000806c 	.word	0x4000806c
10002014:	4000b06c 	.word	0x4000b06c
10002018:	40008048 	.word	0x40008048
1000201c:	4000b048 	.word	0x4000b048

10002020 <clock_get_hz>:
10002020:	4b01      	ldr	r3, [pc, #4]	; (10002028 <clock_get_hz+0x8>)
10002022:	0080      	lsls	r0, r0, #2
10002024:	58c0      	ldr	r0, [r0, r3]
10002026:	4770      	bx	lr
10002028:	20001a30 	.word	0x20001a30

1000202c <pll_init>:
1000202c:	b5f8      	push	{r3, r4, r5, r6, r7, lr}
1000202e:	0004      	movs	r4, r0
10002030:	200c      	movs	r0, #12
10002032:	0017      	movs	r7, r2
10002034:	001d      	movs	r5, r3
10002036:	000e      	movs	r6, r1
10002038:	f000 f960 	bl	100022fc <__wrap___aeabi_uidiv>
1000203c:	0141      	lsls	r1, r0, #5
1000203e:	1a09      	subs	r1, r1, r0
10002040:	018b      	lsls	r3, r1, #6
10002042:	1a59      	subs	r1, r3, r1
10002044:	00c9      	lsls	r1, r1, #3
10002046:	1809      	adds	r1, r1, r0
10002048:	0189      	lsls	r1, r1, #6
1000204a:	0038      	movs	r0, r7
1000204c:	f000 f956 	bl	100022fc <__wrap___aeabi_uidiv>
10002050:	9a06      	ldr	r2, [sp, #24]
10002052:	042b      	lsls	r3, r5, #16
10002054:	0312      	lsls	r2, r2, #12
10002056:	4313      	orrs	r3, r2
10002058:	6822      	ldr	r2, [r4, #0]
1000205a:	2a00      	cmp	r2, #0
1000205c:	db21      	blt.n	100020a2 <pll_init+0x76>
1000205e:	4a19      	ldr	r2, [pc, #100]	; (100020c4 <pll_init+0x98>)
10002060:	18a2      	adds	r2, r4, r2
10002062:	4251      	negs	r1, r2
10002064:	414a      	adcs	r2, r1
10002066:	2180      	movs	r1, #128	; 0x80
10002068:	0149      	lsls	r1, r1, #5
1000206a:	468c      	mov	ip, r1
1000206c:	4252      	negs	r2, r2
1000206e:	400a      	ands	r2, r1
10002070:	4915      	ldr	r1, [pc, #84]	; (100020c8 <pll_init+0x9c>)
10002072:	4462      	add	r2, ip
10002074:	600a      	str	r2, [r1, #0]
10002076:	4915      	ldr	r1, [pc, #84]	; (100020cc <pll_init+0xa0>)
10002078:	600a      	str	r2, [r1, #0]
1000207a:	4915      	ldr	r1, [pc, #84]	; (100020d0 <pll_init+0xa4>)
1000207c:	0017      	movs	r7, r2
1000207e:	688d      	ldr	r5, [r1, #8]
10002080:	43af      	bics	r7, r5
10002082:	d1fb      	bne.n	1000207c <pll_init+0x50>
10002084:	21c0      	movs	r1, #192	; 0xc0
10002086:	1d22      	adds	r2, r4, #4
10002088:	0189      	lsls	r1, r1, #6
1000208a:	4311      	orrs	r1, r2
1000208c:	2221      	movs	r2, #33	; 0x21
1000208e:	6026      	str	r6, [r4, #0]
10002090:	60a0      	str	r0, [r4, #8]
10002092:	600a      	str	r2, [r1, #0]
10002094:	6822      	ldr	r2, [r4, #0]
10002096:	2a00      	cmp	r2, #0
10002098:	dafc      	bge.n	10002094 <pll_init+0x68>
1000209a:	60e3      	str	r3, [r4, #12]
1000209c:	2308      	movs	r3, #8
1000209e:	600b      	str	r3, [r1, #0]
100020a0:	bdf8      	pop	{r3, r4, r5, r6, r7, pc}
100020a2:	223f      	movs	r2, #63	; 0x3f
100020a4:	6821      	ldr	r1, [r4, #0]
100020a6:	400a      	ands	r2, r1
100020a8:	42b2      	cmp	r2, r6
100020aa:	d1d8      	bne.n	1000205e <pll_init+0x32>
100020ac:	68a2      	ldr	r2, [r4, #8]
100020ae:	0512      	lsls	r2, r2, #20
100020b0:	0d12      	lsrs	r2, r2, #20
100020b2:	4282      	cmp	r2, r0
100020b4:	d1d3      	bne.n	1000205e <pll_init+0x32>
100020b6:	21ee      	movs	r1, #238	; 0xee
100020b8:	68e2      	ldr	r2, [r4, #12]
100020ba:	02c9      	lsls	r1, r1, #11
100020bc:	400a      	ands	r2, r1
100020be:	429a      	cmp	r2, r3
100020c0:	d1cd      	bne.n	1000205e <pll_init+0x32>
100020c2:	e7ed      	b.n	100020a0 <pll_init+0x74>
100020c4:	bffd4000 	.word	0xbffd4000
100020c8:	4000e000 	.word	0x4000e000
100020cc:	4000f000 	.word	0x4000f000
100020d0:	4000c000 	.word	0x4000c000

100020d4 <watchdog_start_tick>:
100020d4:	2380      	movs	r3, #128	; 0x80
100020d6:	4a02      	ldr	r2, [pc, #8]	; (100020e0 <watchdog_start_tick+0xc>)
100020d8:	009b      	lsls	r3, r3, #2
100020da:	4303      	orrs	r3, r0
100020dc:	62d3      	str	r3, [r2, #44]	; 0x2c
100020de:	4770      	bx	lr
100020e0:	40058000 	.word	0x40058000

100020e4 <xosc_init>:
100020e4:	23aa      	movs	r3, #170	; 0xaa
100020e6:	4a06      	ldr	r2, [pc, #24]	; (10002100 <xosc_init+0x1c>)
100020e8:	011b      	lsls	r3, r3, #4
100020ea:	6013      	str	r3, [r2, #0]
100020ec:	232f      	movs	r3, #47	; 0x2f
100020ee:	4905      	ldr	r1, [pc, #20]	; (10002104 <xosc_init+0x20>)
100020f0:	60d3      	str	r3, [r2, #12]
100020f2:	4b05      	ldr	r3, [pc, #20]	; (10002108 <xosc_init+0x24>)
100020f4:	6019      	str	r1, [r3, #0]
100020f6:	6853      	ldr	r3, [r2, #4]
100020f8:	2b00      	cmp	r3, #0
100020fa:	dafc      	bge.n	100020f6 <xosc_init+0x12>
100020fc:	4770      	bx	lr
100020fe:	46c0      	nop			; (mov r8, r8)
10002100:	40024000 	.word	0x40024000
10002104:	00fab000 	.word	0x00fab000
10002108:	40026000 	.word	0x40026000

1000210c <runtime_init>:
1000210c:	4b2c      	ldr	r3, [pc, #176]	; (100021c0 <runtime_init+0xb4>)
1000210e:	4a2d      	ldr	r2, [pc, #180]	; (100021c4 <runtime_init+0xb8>)
10002110:	b570      	push	{r4, r5, r6, lr}
10002112:	601a      	str	r2, [r3, #0]
10002114:	4a2c      	ldr	r2, [pc, #176]	; (100021c8 <runtime_init+0xbc>)
10002116:	4b2d      	ldr	r3, [pc, #180]	; (100021cc <runtime_init+0xc0>)
10002118:	492d      	ldr	r1, [pc, #180]	; (100021d0 <runtime_init+0xc4>)
1000211a:	601a      	str	r2, [r3, #0]
1000211c:	0010      	movs	r0, r2
1000211e:	688b      	ldr	r3, [r1, #8]
10002120:	4398      	bics	r0, r3
10002122:	d1fb      	bne.n	1000211c <runtime_init+0x10>
10002124:	4c2b      	ldr	r4, [pc, #172]	; (100021d4 <runtime_init+0xc8>)
10002126:	4b2c      	ldr	r3, [pc, #176]	; (100021d8 <runtime_init+0xcc>)
10002128:	429c      	cmp	r4, r3
1000212a:	d209      	bcs.n	10002140 <runtime_init+0x34>
1000212c:	3b01      	subs	r3, #1
1000212e:	1b1d      	subs	r5, r3, r4
10002130:	08ad      	lsrs	r5, r5, #2
10002132:	3501      	adds	r5, #1
10002134:	00ad      	lsls	r5, r5, #2
10002136:	192d      	adds	r5, r5, r4
10002138:	cc08      	ldmia	r4!, {r3}
1000213a:	4798      	blx	r3
1000213c:	42ac      	cmp	r4, r5
1000213e:	d1fb      	bne.n	10002138 <runtime_init+0x2c>
10002140:	f7ff fe10 	bl	10001d64 <clocks_init>
10002144:	4a25      	ldr	r2, [pc, #148]	; (100021dc <runtime_init+0xd0>)
10002146:	4b21      	ldr	r3, [pc, #132]	; (100021cc <runtime_init+0xc0>)
10002148:	601a      	str	r2, [r3, #0]
1000214a:	4a21      	ldr	r2, [pc, #132]	; (100021d0 <runtime_init+0xc4>)
1000214c:	6893      	ldr	r3, [r2, #8]
1000214e:	01db      	lsls	r3, r3, #7
10002150:	3380      	adds	r3, #128	; 0x80
10002152:	d1fb      	bne.n	1000214c <runtime_init+0x40>
10002154:	2240      	movs	r2, #64	; 0x40
10002156:	4b22      	ldr	r3, [pc, #136]	; (100021e0 <runtime_init+0xd4>)
10002158:	4c22      	ldr	r4, [pc, #136]	; (100021e4 <runtime_init+0xd8>)
1000215a:	4d23      	ldr	r5, [pc, #140]	; (100021e8 <runtime_init+0xdc>)
1000215c:	679a      	str	r2, [r3, #120]	; 0x78
1000215e:	675a      	str	r2, [r3, #116]	; 0x74
10002160:	671a      	str	r2, [r3, #112]	; 0x70
10002162:	66da      	str	r2, [r3, #108]	; 0x6c
10002164:	42ac      	cmp	r4, r5
10002166:	d208      	bcs.n	1000217a <runtime_init+0x6e>
10002168:	6823      	ldr	r3, [r4, #0]
1000216a:	0020      	movs	r0, r4
1000216c:	2b00      	cmp	r3, #0
1000216e:	d021      	beq.n	100021b4 <runtime_init+0xa8>
10002170:	3408      	adds	r4, #8
10002172:	f7fe fe9f 	bl	10000eb4 <recursive_mutex_init>
10002176:	42ac      	cmp	r4, r5
10002178:	d3f6      	bcc.n	10002168 <runtime_init+0x5c>
1000217a:	4c1c      	ldr	r4, [pc, #112]	; (100021ec <runtime_init+0xe0>)
1000217c:	4d1c      	ldr	r5, [pc, #112]	; (100021f0 <runtime_init+0xe4>)
1000217e:	68a1      	ldr	r1, [r4, #8]
10002180:	22c0      	movs	r2, #192	; 0xc0
10002182:	0028      	movs	r0, r5
10002184:	f000 f9c6 	bl	10002514 <__wrap___aeabi_memcpy>
10002188:	60a5      	str	r5, [r4, #8]
1000218a:	f7fe fbdd 	bl	10000948 <spin_locks_reset>
1000218e:	f7fe fe69 	bl	10000e64 <irq_init_priorities>
10002192:	f7ff f83d 	bl	10001210 <alarm_pool_init_default>
10002196:	4c17      	ldr	r4, [pc, #92]	; (100021f4 <runtime_init+0xe8>)
10002198:	4b17      	ldr	r3, [pc, #92]	; (100021f8 <runtime_init+0xec>)
1000219a:	429c      	cmp	r4, r3
1000219c:	d209      	bcs.n	100021b2 <runtime_init+0xa6>
1000219e:	3b01      	subs	r3, #1
100021a0:	1b1d      	subs	r5, r3, r4
100021a2:	08ad      	lsrs	r5, r5, #2
100021a4:	3501      	adds	r5, #1
100021a6:	00ad      	lsls	r5, r5, #2
100021a8:	192d      	adds	r5, r5, r4
100021aa:	cc08      	ldmia	r4!, {r3}
100021ac:	4798      	blx	r3
100021ae:	42a5      	cmp	r5, r4
100021b0:	d1fb      	bne.n	100021aa <runtime_init+0x9e>
100021b2:	bd70      	pop	{r4, r5, r6, pc}
100021b4:	3408      	adds	r4, #8
100021b6:	f7fe fe6f 	bl	10000e98 <mutex_init>
100021ba:	42ac      	cmp	r4, r5
100021bc:	d3d4      	bcc.n	10002168 <runtime_init+0x5c>
100021be:	e7dc      	b.n	1000217a <runtime_init+0x6e>
100021c0:	4000e000 	.word	0x4000e000
100021c4:	fefbcdbf 	.word	0xfefbcdbf
100021c8:	003c7ffe 	.word	0x003c7ffe
100021cc:	4000f000 	.word	0x4000f000
100021d0:	4000c000 	.word	0x4000c000
100021d4:	20001560 	.word	0x20001560
100021d8:	20001570 	.word	0x20001570
100021dc:	01ffffff 	.word	0x01ffffff
100021e0:	4001f000 	.word	0x4001f000
100021e4:	20001550 	.word	0x20001550
100021e8:	20001560 	.word	0x20001560
100021ec:	e000ed00 	.word	0xe000ed00
100021f0:	20000000 	.word	0x20000000
100021f4:	20001570 	.word	0x20001570
100021f8:	20001578 	.word	0x20001578

100021fc <_exit>:
100021fc:	be00      	bkpt	0x0000
100021fe:	e7fd      	b.n	100021fc <_exit>

10002200 <exit>:
10002200:	b510      	push	{r4, lr}
10002202:	f7ff fffb 	bl	100021fc <_exit>
10002206:	46c0      	nop			; (mov r8, r8)

10002208 <panic>:
10002208:	b40f      	push	{r0, r1, r2, r3}
1000220a:	b500      	push	{lr}
1000220c:	4808      	ldr	r0, [pc, #32]	; (10002230 <panic+0x28>)
1000220e:	b083      	sub	sp, #12
10002210:	f000 faa6 	bl	10002760 <__wrap_puts>
10002214:	9b04      	ldr	r3, [sp, #16]
10002216:	2b00      	cmp	r3, #0
10002218:	d007      	beq.n	1000222a <panic+0x22>
1000221a:	a905      	add	r1, sp, #20
1000221c:	0018      	movs	r0, r3
1000221e:	9101      	str	r1, [sp, #4]
10002220:	f000 f818 	bl	10002254 <weak_raw_vprintf>
10002224:	4803      	ldr	r0, [pc, #12]	; (10002234 <panic+0x2c>)
10002226:	f000 fa9b 	bl	10002760 <__wrap_puts>
1000222a:	2001      	movs	r0, #1
1000222c:	f7ff ffe6 	bl	100021fc <_exit>
10002230:	100047a0 	.word	0x100047a0
10002234:	100047b0 	.word	0x100047b0

10002238 <hard_assertion_failure>:
10002238:	b510      	push	{r4, lr}
1000223a:	4801      	ldr	r0, [pc, #4]	; (10002240 <hard_assertion_failure+0x8>)
1000223c:	f7ff ffe4 	bl	10002208 <panic>
10002240:	100047b4 	.word	0x100047b4

10002244 <_out_char>:
10002244:	b510      	push	{r4, lr}
10002246:	2800      	cmp	r0, #0
10002248:	d100      	bne.n	1000224c <_out_char+0x8>
1000224a:	bd10      	pop	{r4, pc}
1000224c:	f000 fa3c 	bl	100026c8 <__wrap_putchar>
10002250:	e7fb      	b.n	1000224a <_out_char+0x6>
10002252:	46c0      	nop			; (mov r8, r8)

10002254 <weak_raw_vprintf>:
10002254:	b510      	push	{r4, lr}
10002256:	4a09      	ldr	r2, [pc, #36]	; (1000227c <weak_raw_vprintf+0x28>)
10002258:	0003      	movs	r3, r0
1000225a:	6814      	ldr	r4, [r2, #0]
1000225c:	b084      	sub	sp, #16
1000225e:	2c00      	cmp	r4, #0
10002260:	d008      	beq.n	10002274 <weak_raw_vprintf+0x20>
10002262:	2201      	movs	r2, #1
10002264:	9100      	str	r1, [sp, #0]
10002266:	4806      	ldr	r0, [pc, #24]	; (10002280 <weak_raw_vprintf+0x2c>)
10002268:	4252      	negs	r2, r2
1000226a:	a903      	add	r1, sp, #12
1000226c:	47a0      	blx	r4
1000226e:	2001      	movs	r0, #1
10002270:	b004      	add	sp, #16
10002272:	bd10      	pop	{r4, pc}
10002274:	f000 fa74 	bl	10002760 <__wrap_puts>
10002278:	2000      	movs	r0, #0
1000227a:	e7f9      	b.n	10002270 <weak_raw_vprintf+0x1c>
1000227c:	20001ea8 	.word	0x20001ea8
10002280:	10002245 	.word	0x10002245

10002284 <__aeabi_bits_init>:
10002284:	4801      	ldr	r0, [pc, #4]	; (1000228c <__aeabi_bits_init+0x8>)
10002286:	2104      	movs	r1, #4
10002288:	4b01      	ldr	r3, [pc, #4]	; (10002290 <__aeabi_bits_init+0xc>)
1000228a:	4718      	bx	r3
1000228c:	200014f0 	.word	0x200014f0
10002290:	100022c1 	.word	0x100022c1

10002294 <__wrap___ctzsi2>:
10002294:	4b01      	ldr	r3, [pc, #4]	; (1000229c <__wrap___ctzsi2+0x8>)
10002296:	689b      	ldr	r3, [r3, #8]
10002298:	4718      	bx	r3
1000229a:	0000      	.short	0x0000
1000229c:	200014f0 	.word	0x200014f0

100022a0 <rom_func_lookup>:
100022a0:	2314      	movs	r3, #20
100022a2:	b510      	push	{r4, lr}
100022a4:	0001      	movs	r1, r0
100022a6:	8818      	ldrh	r0, [r3, #0]
100022a8:	3304      	adds	r3, #4
100022aa:	881b      	ldrh	r3, [r3, #0]
100022ac:	4798      	blx	r3
100022ae:	bd10      	pop	{r4, pc}

100022b0 <rom_data_lookup>:
100022b0:	2316      	movs	r3, #22
100022b2:	b510      	push	{r4, lr}
100022b4:	0001      	movs	r1, r0
100022b6:	8818      	ldrh	r0, [r3, #0]
100022b8:	3302      	adds	r3, #2
100022ba:	881b      	ldrh	r3, [r3, #0]
100022bc:	4798      	blx	r3
100022be:	bd10      	pop	{r4, pc}

100022c0 <rom_funcs_lookup>:
100022c0:	b5f0      	push	{r4, r5, r6, r7, lr}
100022c2:	46c6      	mov	lr, r8
100022c4:	b500      	push	{lr}
100022c6:	2900      	cmp	r1, #0
100022c8:	d016      	beq.n	100022f8 <rom_funcs_lookup+0x38>
100022ca:	2314      	movs	r3, #20
100022cc:	0004      	movs	r4, r0
100022ce:	2501      	movs	r5, #1
100022d0:	4698      	mov	r8, r3
100022d2:	2718      	movs	r7, #24
100022d4:	0089      	lsls	r1, r1, #2
100022d6:	1846      	adds	r6, r0, r1
100022d8:	4643      	mov	r3, r8
100022da:	6821      	ldr	r1, [r4, #0]
100022dc:	8818      	ldrh	r0, [r3, #0]
100022de:	883b      	ldrh	r3, [r7, #0]
100022e0:	4798      	blx	r3
100022e2:	c401      	stmia	r4!, {r0}
100022e4:	1e43      	subs	r3, r0, #1
100022e6:	4198      	sbcs	r0, r3
100022e8:	4240      	negs	r0, r0
100022ea:	4005      	ands	r5, r0
100022ec:	42a6      	cmp	r6, r4
100022ee:	d1f3      	bne.n	100022d8 <rom_funcs_lookup+0x18>
100022f0:	0028      	movs	r0, r5
100022f2:	bc04      	pop	{r2}
100022f4:	4690      	mov	r8, r2
100022f6:	bdf0      	pop	{r4, r5, r6, r7, pc}
100022f8:	2501      	movs	r5, #1
100022fa:	e7f9      	b.n	100022f0 <rom_funcs_lookup+0x30>

100022fc <__wrap___aeabi_uidiv>:
100022fc:	4a11      	ldr	r2, [pc, #68]	; (10002344 <divmod_u32u32_savestate+0x18>)
100022fe:	6f93      	ldr	r3, [r2, #120]	; 0x78
10002300:	089b      	lsrs	r3, r3, #2
10002302:	d213      	bcs.n	1000232c <divmod_u32u32_savestate>

10002304 <divmod_u32u32_unsafe>:
10002304:	6610      	str	r0, [r2, #96]	; 0x60
10002306:	6651      	str	r1, [r2, #100]	; 0x64
10002308:	2900      	cmp	r1, #0
1000230a:	d005      	beq.n	10002318 <divmod_u32u32_unsafe+0x14>
1000230c:	e7ff      	b.n	1000230e <divmod_u32u32_unsafe+0xa>
1000230e:	e7ff      	b.n	10002310 <divmod_u32u32_unsafe+0xc>
10002310:	e7ff      	b.n	10002312 <divmod_u32u32_unsafe+0xe>
10002312:	6f51      	ldr	r1, [r2, #116]	; 0x74
10002314:	6f10      	ldr	r0, [r2, #112]	; 0x70
10002316:	4770      	bx	lr
10002318:	b504      	push	{r2, lr}
1000231a:	2800      	cmp	r0, #0
1000231c:	d001      	beq.n	10002322 <divmod_u32u32_unsafe+0x1e>
1000231e:	2000      	movs	r0, #0
10002320:	43c0      	mvns	r0, r0
10002322:	f002 f981 	bl	10004628 <____aeabi_idiv0_veneer>
10002326:	2100      	movs	r1, #0
10002328:	bd04      	pop	{r2, pc}
1000232a:	46c0      	nop			; (mov r8, r8)

1000232c <divmod_u32u32_savestate>:
1000232c:	b5f0      	push	{r4, r5, r6, r7, lr}
1000232e:	6e14      	ldr	r4, [r2, #96]	; 0x60
10002330:	6e55      	ldr	r5, [r2, #100]	; 0x64
10002332:	6f57      	ldr	r7, [r2, #116]	; 0x74
10002334:	6f16      	ldr	r6, [r2, #112]	; 0x70
10002336:	f7ff ffe5 	bl	10002304 <divmod_u32u32_unsafe>
1000233a:	6614      	str	r4, [r2, #96]	; 0x60
1000233c:	6655      	str	r5, [r2, #100]	; 0x64
1000233e:	6757      	str	r7, [r2, #116]	; 0x74
10002340:	6716      	str	r6, [r2, #112]	; 0x70
10002342:	bdf0      	pop	{r4, r5, r6, r7, pc}
10002344:	d0000000 	.word	0xd0000000

10002348 <__aeabi_double_init>:
10002348:	2313      	movs	r3, #19
1000234a:	b570      	push	{r4, r5, r6, lr}
1000234c:	781d      	ldrb	r5, [r3, #0]
1000234e:	2d01      	cmp	r5, #1
10002350:	d015      	beq.n	1000237e <__aeabi_double_init+0x36>
10002352:	dd10      	ble.n	10002376 <__aeabi_double_init+0x2e>
10002354:	4827      	ldr	r0, [pc, #156]	; (100023f4 <__aeabi_double_init+0xac>)
10002356:	f7ff ffab 	bl	100022b0 <rom_data_lookup>
1000235a:	4c27      	ldr	r4, [pc, #156]	; (100023f8 <__aeabi_double_init+0xb0>)
1000235c:	0001      	movs	r1, r0
1000235e:	2280      	movs	r2, #128	; 0x80
10002360:	0020      	movs	r0, r4
10002362:	f000 f8d7 	bl	10002514 <__wrap___aeabi_memcpy>
10002366:	2d02      	cmp	r5, #2
10002368:	d006      	beq.n	10002378 <__aeabi_double_init+0x30>
1000236a:	4824      	ldr	r0, [pc, #144]	; (100023fc <__aeabi_double_init+0xb4>)
1000236c:	f7ff ff98 	bl	100022a0 <rom_func_lookup>
10002370:	4b23      	ldr	r3, [pc, #140]	; (10002400 <__aeabi_double_init+0xb8>)
10002372:	6018      	str	r0, [r3, #0]
10002374:	bd70      	pop	{r4, r5, r6, pc}
10002376:	4c20      	ldr	r4, [pc, #128]	; (100023f8 <__aeabi_double_init+0xb0>)
10002378:	4a22      	ldr	r2, [pc, #136]	; (10002404 <__aeabi_double_init+0xbc>)
1000237a:	64a2      	str	r2, [r4, #72]	; 0x48
1000237c:	e7f5      	b.n	1000236a <__aeabi_double_init+0x22>
1000237e:	002e      	movs	r6, r5
10002380:	4c1d      	ldr	r4, [pc, #116]	; (100023f8 <__aeabi_double_init+0xb0>)
10002382:	4a20      	ldr	r2, [pc, #128]	; (10002404 <__aeabi_double_init+0xbc>)
10002384:	08a3      	lsrs	r3, r4, #2
10002386:	425b      	negs	r3, r3
10002388:	401e      	ands	r6, r3
1000238a:	421d      	tst	r5, r3
1000238c:	d02f      	beq.n	100023ee <__aeabi_double_init+0xa6>
1000238e:	0033      	movs	r3, r6
10002390:	6022      	str	r2, [r4, #0]
10002392:	2020      	movs	r0, #32
10002394:	00b1      	lsls	r1, r6, #2
10002396:	1861      	adds	r1, r4, r1
10002398:	1b80      	subs	r0, r0, r6
1000239a:	600a      	str	r2, [r1, #0]
1000239c:	604a      	str	r2, [r1, #4]
1000239e:	608a      	str	r2, [r1, #8]
100023a0:	60ca      	str	r2, [r1, #12]
100023a2:	610a      	str	r2, [r1, #16]
100023a4:	614a      	str	r2, [r1, #20]
100023a6:	618a      	str	r2, [r1, #24]
100023a8:	61ca      	str	r2, [r1, #28]
100023aa:	620a      	str	r2, [r1, #32]
100023ac:	624a      	str	r2, [r1, #36]	; 0x24
100023ae:	628a      	str	r2, [r1, #40]	; 0x28
100023b0:	62ca      	str	r2, [r1, #44]	; 0x2c
100023b2:	630a      	str	r2, [r1, #48]	; 0x30
100023b4:	634a      	str	r2, [r1, #52]	; 0x34
100023b6:	638a      	str	r2, [r1, #56]	; 0x38
100023b8:	63ca      	str	r2, [r1, #60]	; 0x3c
100023ba:	640a      	str	r2, [r1, #64]	; 0x40
100023bc:	644a      	str	r2, [r1, #68]	; 0x44
100023be:	648a      	str	r2, [r1, #72]	; 0x48
100023c0:	64ca      	str	r2, [r1, #76]	; 0x4c
100023c2:	650a      	str	r2, [r1, #80]	; 0x50
100023c4:	654a      	str	r2, [r1, #84]	; 0x54
100023c6:	658a      	str	r2, [r1, #88]	; 0x58
100023c8:	65ca      	str	r2, [r1, #92]	; 0x5c
100023ca:	660a      	str	r2, [r1, #96]	; 0x60
100023cc:	664a      	str	r2, [r1, #100]	; 0x64
100023ce:	668a      	str	r2, [r1, #104]	; 0x68
100023d0:	66ca      	str	r2, [r1, #108]	; 0x6c
100023d2:	670a      	str	r2, [r1, #112]	; 0x70
100023d4:	674a      	str	r2, [r1, #116]	; 0x74
100023d6:	0840      	lsrs	r0, r0, #1
100023d8:	2810      	cmp	r0, #16
100023da:	d103      	bne.n	100023e4 <__aeabi_double_init+0x9c>
100023dc:	678a      	str	r2, [r1, #120]	; 0x78
100023de:	67ca      	str	r2, [r1, #124]	; 0x7c
100023e0:	64a2      	str	r2, [r4, #72]	; 0x48
100023e2:	e7c2      	b.n	1000236a <__aeabi_double_init+0x22>
100023e4:	331e      	adds	r3, #30
100023e6:	009b      	lsls	r3, r3, #2
100023e8:	50e2      	str	r2, [r4, r3]
100023ea:	64a2      	str	r2, [r4, #72]	; 0x48
100023ec:	e7bd      	b.n	1000236a <__aeabi_double_init+0x22>
100023ee:	2300      	movs	r3, #0
100023f0:	e7cf      	b.n	10002392 <__aeabi_double_init+0x4a>
100023f2:	46c0      	nop			; (mov r8, r8)
100023f4:	00004453 	.word	0x00004453
100023f8:	20002048 	.word	0x20002048
100023fc:	0000334c 	.word	0x0000334c
10002400:	20001ed0 	.word	0x20001ed0
10002404:	10002409 	.word	0x10002409

10002408 <double_table_shim_on_use_helper>:
10002408:	b507      	push	{r0, r1, r2, lr}
1000240a:	4660      	mov	r0, ip
1000240c:	8801      	ldrh	r1, [r0, #0]
1000240e:	0a0a      	lsrs	r2, r1, #8
10002410:	3002      	adds	r0, #2
10002412:	2adf      	cmp	r2, #223	; 0xdf
10002414:	d1fa      	bne.n	1000240c <double_table_shim_on_use_helper+0x4>
10002416:	b2c9      	uxtb	r1, r1
10002418:	0882      	lsrs	r2, r0, #2
1000241a:	d304      	bcc.n	10002426 <double_table_shim_on_use_helper+0x1e>
1000241c:	8802      	ldrh	r2, [r0, #0]
1000241e:	8840      	ldrh	r0, [r0, #2]
10002420:	0400      	lsls	r0, r0, #16
10002422:	4310      	orrs	r0, r2
10002424:	e000      	b.n	10002428 <double_table_shim_on_use_helper+0x20>
10002426:	6800      	ldr	r0, [r0, #0]
10002428:	4a01      	ldr	r2, [pc, #4]	; (10002430 <double_table_shim_on_use_helper+0x28>)
1000242a:	5050      	str	r0, [r2, r1]
1000242c:	9003      	str	r0, [sp, #12]
1000242e:	bd07      	pop	{r0, r1, r2, pc}
10002430:	20002048 	.word	0x20002048

10002434 <__wrap___aeabi_lmul>:
10002434:	4351      	muls	r1, r2
10002436:	4343      	muls	r3, r0
10002438:	18c9      	adds	r1, r1, r3
1000243a:	468c      	mov	ip, r1
1000243c:	0c11      	lsrs	r1, r2, #16
1000243e:	b283      	uxth	r3, r0
10002440:	434b      	muls	r3, r1
10002442:	b410      	push	{r4}
10002444:	0c04      	lsrs	r4, r0, #16
10002446:	4361      	muls	r1, r4
10002448:	b292      	uxth	r2, r2
1000244a:	b280      	uxth	r0, r0
1000244c:	4350      	muls	r0, r2
1000244e:	4362      	muls	r2, r4
10002450:	041c      	lsls	r4, r3, #16
10002452:	0c1b      	lsrs	r3, r3, #16
10002454:	1900      	adds	r0, r0, r4
10002456:	bc10      	pop	{r4}
10002458:	4159      	adcs	r1, r3
1000245a:	0413      	lsls	r3, r2, #16
1000245c:	0c12      	lsrs	r2, r2, #16
1000245e:	18c0      	adds	r0, r0, r3
10002460:	4151      	adcs	r1, r2
10002462:	4461      	add	r1, ip
10002464:	4770      	bx	lr
	...

10002468 <__aeabi_float_init>:
10002468:	2313      	movs	r3, #19
1000246a:	b510      	push	{r4, lr}
1000246c:	4812      	ldr	r0, [pc, #72]	; (100024b8 <__aeabi_float_init+0x50>)
1000246e:	781c      	ldrb	r4, [r3, #0]
10002470:	f7ff ff1e 	bl	100022b0 <rom_data_lookup>
10002474:	0001      	movs	r1, r0
10002476:	2c01      	cmp	r4, #1
10002478:	d00a      	beq.n	10002490 <__aeabi_float_init+0x28>
1000247a:	dd03      	ble.n	10002484 <__aeabi_float_init+0x1c>
1000247c:	2280      	movs	r2, #128	; 0x80
1000247e:	480f      	ldr	r0, [pc, #60]	; (100024bc <__aeabi_float_init+0x54>)
10002480:	f000 f848 	bl	10002514 <__wrap___aeabi_memcpy>
10002484:	480e      	ldr	r0, [pc, #56]	; (100024c0 <__aeabi_float_init+0x58>)
10002486:	f7ff ff0b 	bl	100022a0 <rom_func_lookup>
1000248a:	4b0e      	ldr	r3, [pc, #56]	; (100024c4 <__aeabi_float_init+0x5c>)
1000248c:	6018      	str	r0, [r3, #0]
1000248e:	bd10      	pop	{r4, pc}
10002490:	4c0a      	ldr	r4, [pc, #40]	; (100024bc <__aeabi_float_init+0x54>)
10002492:	2254      	movs	r2, #84	; 0x54
10002494:	0020      	movs	r0, r4
10002496:	f000 f83d 	bl	10002514 <__wrap___aeabi_memcpy>
1000249a:	4b0b      	ldr	r3, [pc, #44]	; (100024c8 <__aeabi_float_init+0x60>)
1000249c:	6563      	str	r3, [r4, #84]	; 0x54
1000249e:	65a3      	str	r3, [r4, #88]	; 0x58
100024a0:	65e3      	str	r3, [r4, #92]	; 0x5c
100024a2:	6623      	str	r3, [r4, #96]	; 0x60
100024a4:	6663      	str	r3, [r4, #100]	; 0x64
100024a6:	66a3      	str	r3, [r4, #104]	; 0x68
100024a8:	66e3      	str	r3, [r4, #108]	; 0x6c
100024aa:	6723      	str	r3, [r4, #112]	; 0x70
100024ac:	6763      	str	r3, [r4, #116]	; 0x74
100024ae:	67a3      	str	r3, [r4, #120]	; 0x78
100024b0:	67e3      	str	r3, [r4, #124]	; 0x7c
100024b2:	6223      	str	r3, [r4, #32]
100024b4:	61e3      	str	r3, [r4, #28]
100024b6:	e7e5      	b.n	10002484 <__aeabi_float_init+0x1c>
100024b8:	00004653 	.word	0x00004653
100024bc:	20002148 	.word	0x20002148
100024c0:	0000334c 	.word	0x0000334c
100024c4:	20001ed0 	.word	0x20001ed0
100024c8:	100024cd 	.word	0x100024cd

100024cc <float_table_shim_on_use_helper>:
100024cc:	b507      	push	{r0, r1, r2, lr}
100024ce:	4660      	mov	r0, ip
100024d0:	8801      	ldrh	r1, [r0, #0]
100024d2:	0a0a      	lsrs	r2, r1, #8
100024d4:	3002      	adds	r0, #2
100024d6:	2adf      	cmp	r2, #223	; 0xdf
100024d8:	d1fa      	bne.n	100024d0 <float_table_shim_on_use_helper+0x4>
100024da:	b2c9      	uxtb	r1, r1
100024dc:	0882      	lsrs	r2, r0, #2
100024de:	d304      	bcc.n	100024ea <float_table_shim_on_use_helper+0x1e>
100024e0:	8802      	ldrh	r2, [r0, #0]
100024e2:	8840      	ldrh	r0, [r0, #2]
100024e4:	0400      	lsls	r0, r0, #16
100024e6:	4310      	orrs	r0, r2
100024e8:	e000      	b.n	100024ec <float_table_shim_on_use_helper+0x20>
100024ea:	6800      	ldr	r0, [r0, #0]
100024ec:	4a01      	ldr	r2, [pc, #4]	; (100024f4 <float_table_shim_on_use_helper+0x28>)
100024ee:	5050      	str	r0, [r2, r1]
100024f0:	9003      	str	r0, [sp, #12]
100024f2:	bd07      	pop	{r0, r1, r2, pc}
100024f4:	20002148 	.word	0x20002148

100024f8 <__aeabi_mem_init>:
100024f8:	4801      	ldr	r0, [pc, #4]	; (10002500 <__aeabi_mem_init+0x8>)
100024fa:	2104      	movs	r1, #4
100024fc:	4b01      	ldr	r3, [pc, #4]	; (10002504 <__aeabi_mem_init+0xc>)
100024fe:	4718      	bx	r3
10002500:	20001500 	.word	0x20001500
10002504:	100022c1 	.word	0x100022c1

10002508 <__wrap_memset>:
10002508:	4b01      	ldr	r3, [pc, #4]	; (10002510 <__wrap_memset+0x8>)
1000250a:	681b      	ldr	r3, [r3, #0]
1000250c:	4718      	bx	r3
1000250e:	0000      	.short	0x0000
10002510:	20001500 	.word	0x20001500

10002514 <__wrap___aeabi_memcpy>:
10002514:	4b01      	ldr	r3, [pc, #4]	; (1000251c <__wrap___aeabi_memcpy+0x8>)
10002516:	685b      	ldr	r3, [r3, #4]
10002518:	4718      	bx	r3
1000251a:	0000      	.short	0x0000
1000251c:	20001500 	.word	0x20001500

10002520 <stdio_out_chars_no_crlf>:
10002520:	0003      	movs	r3, r0
10002522:	b510      	push	{r4, lr}
10002524:	0008      	movs	r0, r1
10002526:	681b      	ldr	r3, [r3, #0]
10002528:	0011      	movs	r1, r2
1000252a:	4798      	blx	r3
1000252c:	bd10      	pop	{r4, pc}
1000252e:	46c0      	nop			; (mov r8, r8)

10002530 <stdio_out_chars_crlf>:
10002530:	b5f8      	push	{r3, r4, r5, r6, r7, lr}
10002532:	4647      	mov	r7, r8
10002534:	46ce      	mov	lr, r9
10002536:	b580      	push	{r7, lr}
10002538:	7d43      	ldrb	r3, [r0, #21]
1000253a:	0007      	movs	r7, r0
1000253c:	000d      	movs	r5, r1
1000253e:	0016      	movs	r6, r2
10002540:	2b00      	cmp	r3, #0
10002542:	d037      	beq.n	100025b4 <stdio_out_chars_crlf+0x84>
10002544:	2400      	movs	r4, #0
10002546:	2000      	movs	r0, #0
10002548:	2a00      	cmp	r2, #0
1000254a:	dd1e      	ble.n	1000258a <stdio_out_chars_crlf+0x5a>
1000254c:	1e4b      	subs	r3, r1, #1
1000254e:	4698      	mov	r8, r3
10002550:	4b1b      	ldr	r3, [pc, #108]	; (100025c0 <stdio_out_chars_crlf+0x90>)
10002552:	4699      	mov	r9, r3
10002554:	2c00      	cmp	r4, #0
10002556:	d02b      	beq.n	100025b0 <stdio_out_chars_crlf+0x80>
10002558:	4643      	mov	r3, r8
1000255a:	5d1b      	ldrb	r3, [r3, r4]
1000255c:	3b0d      	subs	r3, #13
1000255e:	425a      	negs	r2, r3
10002560:	4153      	adcs	r3, r2
10002562:	b2db      	uxtb	r3, r3
10002564:	5d2a      	ldrb	r2, [r5, r4]
10002566:	2a0a      	cmp	r2, #10
10002568:	d013      	beq.n	10002592 <stdio_out_chars_crlf+0x62>
1000256a:	3401      	adds	r4, #1
1000256c:	42a6      	cmp	r6, r4
1000256e:	dcf1      	bgt.n	10002554 <stdio_out_chars_crlf+0x24>
10002570:	4286      	cmp	r6, r0
10002572:	dd03      	ble.n	1000257c <stdio_out_chars_crlf+0x4c>
10002574:	1a31      	subs	r1, r6, r0
10002576:	683b      	ldr	r3, [r7, #0]
10002578:	1828      	adds	r0, r5, r0
1000257a:	4798      	blx	r3
1000257c:	19ad      	adds	r5, r5, r6
1000257e:	3d01      	subs	r5, #1
10002580:	782b      	ldrb	r3, [r5, #0]
10002582:	3b0d      	subs	r3, #13
10002584:	425a      	negs	r2, r3
10002586:	4153      	adcs	r3, r2
10002588:	753b      	strb	r3, [r7, #20]
1000258a:	bc0c      	pop	{r2, r3}
1000258c:	4690      	mov	r8, r2
1000258e:	4699      	mov	r9, r3
10002590:	bdf8      	pop	{r3, r4, r5, r6, r7, pc}
10002592:	2b00      	cmp	r3, #0
10002594:	d1e9      	bne.n	1000256a <stdio_out_chars_crlf+0x3a>
10002596:	42a0      	cmp	r0, r4
10002598:	da03      	bge.n	100025a2 <stdio_out_chars_crlf+0x72>
1000259a:	1a21      	subs	r1, r4, r0
1000259c:	683b      	ldr	r3, [r7, #0]
1000259e:	1828      	adds	r0, r5, r0
100025a0:	4798      	blx	r3
100025a2:	4648      	mov	r0, r9
100025a4:	2102      	movs	r1, #2
100025a6:	683b      	ldr	r3, [r7, #0]
100025a8:	3401      	adds	r4, #1
100025aa:	4798      	blx	r3
100025ac:	0020      	movs	r0, r4
100025ae:	e7dd      	b.n	1000256c <stdio_out_chars_crlf+0x3c>
100025b0:	7d3b      	ldrb	r3, [r7, #20]
100025b2:	e7d7      	b.n	10002564 <stdio_out_chars_crlf+0x34>
100025b4:	6803      	ldr	r3, [r0, #0]
100025b6:	0011      	movs	r1, r2
100025b8:	0028      	movs	r0, r5
100025ba:	4798      	blx	r3
100025bc:	e7e5      	b.n	1000258a <stdio_out_chars_crlf+0x5a>
100025be:	46c0      	nop			; (mov r8, r8)
100025c0:	10004884 	.word	0x10004884

100025c4 <stdio_put_string>:
100025c4:	b5f0      	push	{r4, r5, r6, r7, lr}
100025c6:	46de      	mov	lr, fp
100025c8:	4657      	mov	r7, sl
100025ca:	464e      	mov	r6, r9
100025cc:	4645      	mov	r5, r8
100025ce:	b5e0      	push	{r5, r6, r7, lr}
100025d0:	b085      	sub	sp, #20
100025d2:	0017      	movs	r7, r2
100025d4:	001c      	movs	r4, r3
100025d6:	0006      	movs	r6, r0
100025d8:	000d      	movs	r5, r1
100025da:	f7ff f865 	bl	100016a8 <time_us_64>
100025de:	2300      	movs	r3, #0
100025e0:	4a32      	ldr	r2, [pc, #200]	; (100026ac <stdio_put_string+0xe8>)
100025e2:	1812      	adds	r2, r2, r0
100025e4:	414b      	adcs	r3, r1
100025e6:	2b00      	cmp	r3, #0
100025e8:	db5b      	blt.n	100026a2 <stdio_put_string+0xde>
100025ea:	4931      	ldr	r1, [pc, #196]	; (100026b0 <stdio_put_string+0xec>)
100025ec:	0008      	movs	r0, r1
100025ee:	468a      	mov	sl, r1
100025f0:	f002 f82a 	bl	10004648 <__mutex_try_enter_block_until_veneer>
100025f4:	9001      	str	r0, [sp, #4]
100025f6:	1c6b      	adds	r3, r5, #1
100025f8:	d103      	bne.n	10002602 <stdio_put_string+0x3e>
100025fa:	0030      	movs	r0, r6
100025fc:	f001 ffb4 	bl	10004568 <strlen>
10002600:	0005      	movs	r5, r0
10002602:	2c00      	cmp	r4, #0
10002604:	d128      	bne.n	10002658 <stdio_put_string+0x94>
10002606:	4b2b      	ldr	r3, [pc, #172]	; (100026b4 <stdio_put_string+0xf0>)
10002608:	4698      	mov	r8, r3
1000260a:	4b2b      	ldr	r3, [pc, #172]	; (100026b8 <stdio_put_string+0xf4>)
1000260c:	681c      	ldr	r4, [r3, #0]
1000260e:	2c00      	cmp	r4, #0
10002610:	d015      	beq.n	1000263e <stdio_put_string+0x7a>
10002612:	2f00      	cmp	r7, #0
10002614:	d123      	bne.n	1000265e <stdio_put_string+0x9a>
10002616:	4f29      	ldr	r7, [pc, #164]	; (100026bc <stdio_put_string+0xf8>)
10002618:	e002      	b.n	10002620 <stdio_put_string+0x5c>
1000261a:	6924      	ldr	r4, [r4, #16]
1000261c:	2c00      	cmp	r4, #0
1000261e:	d00e      	beq.n	1000263e <stdio_put_string+0x7a>
10002620:	6823      	ldr	r3, [r4, #0]
10002622:	2b00      	cmp	r3, #0
10002624:	d0f9      	beq.n	1000261a <stdio_put_string+0x56>
10002626:	683b      	ldr	r3, [r7, #0]
10002628:	2b00      	cmp	r3, #0
1000262a:	d001      	beq.n	10002630 <stdio_put_string+0x6c>
1000262c:	42a3      	cmp	r3, r4
1000262e:	d1f4      	bne.n	1000261a <stdio_put_string+0x56>
10002630:	0020      	movs	r0, r4
10002632:	002a      	movs	r2, r5
10002634:	0031      	movs	r1, r6
10002636:	47c0      	blx	r8
10002638:	6924      	ldr	r4, [r4, #16]
1000263a:	2c00      	cmp	r4, #0
1000263c:	d1f0      	bne.n	10002620 <stdio_put_string+0x5c>
1000263e:	9b01      	ldr	r3, [sp, #4]
10002640:	2b00      	cmp	r3, #0
10002642:	d12a      	bne.n	1000269a <stdio_put_string+0xd6>
10002644:	1e68      	subs	r0, r5, #1
10002646:	4185      	sbcs	r5, r0
10002648:	b2e8      	uxtb	r0, r5
1000264a:	b005      	add	sp, #20
1000264c:	bc3c      	pop	{r2, r3, r4, r5}
1000264e:	4690      	mov	r8, r2
10002650:	4699      	mov	r9, r3
10002652:	46a2      	mov	sl, r4
10002654:	46ab      	mov	fp, r5
10002656:	bdf0      	pop	{r4, r5, r6, r7, pc}
10002658:	4b19      	ldr	r3, [pc, #100]	; (100026c0 <stdio_put_string+0xfc>)
1000265a:	4698      	mov	r8, r3
1000265c:	e7d5      	b.n	1000260a <stdio_put_string+0x46>
1000265e:	4b17      	ldr	r3, [pc, #92]	; (100026bc <stdio_put_string+0xf8>)
10002660:	4699      	mov	r9, r3
10002662:	ab02      	add	r3, sp, #8
10002664:	1ddf      	adds	r7, r3, #7
10002666:	230a      	movs	r3, #10
10002668:	469b      	mov	fp, r3
1000266a:	e002      	b.n	10002672 <stdio_put_string+0xae>
1000266c:	6924      	ldr	r4, [r4, #16]
1000266e:	2c00      	cmp	r4, #0
10002670:	d0e5      	beq.n	1000263e <stdio_put_string+0x7a>
10002672:	6823      	ldr	r3, [r4, #0]
10002674:	2b00      	cmp	r3, #0
10002676:	d0f9      	beq.n	1000266c <stdio_put_string+0xa8>
10002678:	464b      	mov	r3, r9
1000267a:	681b      	ldr	r3, [r3, #0]
1000267c:	2b00      	cmp	r3, #0
1000267e:	d001      	beq.n	10002684 <stdio_put_string+0xc0>
10002680:	42a3      	cmp	r3, r4
10002682:	d1f3      	bne.n	1000266c <stdio_put_string+0xa8>
10002684:	002a      	movs	r2, r5
10002686:	0031      	movs	r1, r6
10002688:	0020      	movs	r0, r4
1000268a:	47c0      	blx	r8
1000268c:	465b      	mov	r3, fp
1000268e:	2201      	movs	r2, #1
10002690:	0039      	movs	r1, r7
10002692:	0020      	movs	r0, r4
10002694:	703b      	strb	r3, [r7, #0]
10002696:	47c0      	blx	r8
10002698:	e7e8      	b.n	1000266c <stdio_put_string+0xa8>
1000269a:	4650      	mov	r0, sl
1000269c:	f001 ffac 	bl	100045f8 <__mutex_exit_veneer>
100026a0:	e7d0      	b.n	10002644 <stdio_put_string+0x80>
100026a2:	2201      	movs	r2, #1
100026a4:	4b07      	ldr	r3, [pc, #28]	; (100026c4 <stdio_put_string+0x100>)
100026a6:	4252      	negs	r2, r2
100026a8:	e79f      	b.n	100025ea <stdio_put_string+0x26>
100026aa:	46c0      	nop			; (mov r8, r8)
100026ac:	000f4240 	.word	0x000f4240
100026b0:	20001558 	.word	0x20001558
100026b4:	10002531 	.word	0x10002531
100026b8:	20001a98 	.word	0x20001a98
100026bc:	20001aa0 	.word	0x20001aa0
100026c0:	10002521 	.word	0x10002521
100026c4:	7fffffff 	.word	0x7fffffff

100026c8 <__wrap_putchar>:
100026c8:	b5f0      	push	{r4, r5, r6, r7, lr}
100026ca:	46ce      	mov	lr, r9
100026cc:	4647      	mov	r7, r8
100026ce:	b580      	push	{r7, lr}
100026d0:	b083      	sub	sp, #12
100026d2:	466b      	mov	r3, sp
100026d4:	0005      	movs	r5, r0
100026d6:	1dde      	adds	r6, r3, #7
100026d8:	7030      	strb	r0, [r6, #0]
100026da:	f7fe ffe5 	bl	100016a8 <time_us_64>
100026de:	2300      	movs	r3, #0
100026e0:	4a1a      	ldr	r2, [pc, #104]	; (1000274c <__wrap_putchar+0x84>)
100026e2:	1812      	adds	r2, r2, r0
100026e4:	414b      	adcs	r3, r1
100026e6:	2b00      	cmp	r3, #0
100026e8:	db2c      	blt.n	10002744 <__wrap_putchar+0x7c>
100026ea:	4919      	ldr	r1, [pc, #100]	; (10002750 <__wrap_putchar+0x88>)
100026ec:	0008      	movs	r0, r1
100026ee:	4688      	mov	r8, r1
100026f0:	f001 ffaa 	bl	10004648 <__mutex_try_enter_block_until_veneer>
100026f4:	4b17      	ldr	r3, [pc, #92]	; (10002754 <__wrap_putchar+0x8c>)
100026f6:	0007      	movs	r7, r0
100026f8:	681c      	ldr	r4, [r3, #0]
100026fa:	2c00      	cmp	r4, #0
100026fc:	d016      	beq.n	1000272c <__wrap_putchar+0x64>
100026fe:	4b16      	ldr	r3, [pc, #88]	; (10002758 <__wrap_putchar+0x90>)
10002700:	4699      	mov	r9, r3
10002702:	e002      	b.n	1000270a <__wrap_putchar+0x42>
10002704:	6924      	ldr	r4, [r4, #16]
10002706:	2c00      	cmp	r4, #0
10002708:	d010      	beq.n	1000272c <__wrap_putchar+0x64>
1000270a:	6823      	ldr	r3, [r4, #0]
1000270c:	2b00      	cmp	r3, #0
1000270e:	d0f9      	beq.n	10002704 <__wrap_putchar+0x3c>
10002710:	464b      	mov	r3, r9
10002712:	681b      	ldr	r3, [r3, #0]
10002714:	2b00      	cmp	r3, #0
10002716:	d001      	beq.n	1000271c <__wrap_putchar+0x54>
10002718:	42a3      	cmp	r3, r4
1000271a:	d1f3      	bne.n	10002704 <__wrap_putchar+0x3c>
1000271c:	0020      	movs	r0, r4
1000271e:	2201      	movs	r2, #1
10002720:	0031      	movs	r1, r6
10002722:	f7ff ff05 	bl	10002530 <stdio_out_chars_crlf>
10002726:	6924      	ldr	r4, [r4, #16]
10002728:	2c00      	cmp	r4, #0
1000272a:	d1ee      	bne.n	1000270a <__wrap_putchar+0x42>
1000272c:	2f00      	cmp	r7, #0
1000272e:	d105      	bne.n	1000273c <__wrap_putchar+0x74>
10002730:	0028      	movs	r0, r5
10002732:	b003      	add	sp, #12
10002734:	bc0c      	pop	{r2, r3}
10002736:	4690      	mov	r8, r2
10002738:	4699      	mov	r9, r3
1000273a:	bdf0      	pop	{r4, r5, r6, r7, pc}
1000273c:	4640      	mov	r0, r8
1000273e:	f001 ff5b 	bl	100045f8 <__mutex_exit_veneer>
10002742:	e7f5      	b.n	10002730 <__wrap_putchar+0x68>
10002744:	2201      	movs	r2, #1
10002746:	4b05      	ldr	r3, [pc, #20]	; (1000275c <__wrap_putchar+0x94>)
10002748:	4252      	negs	r2, r2
1000274a:	e7ce      	b.n	100026ea <__wrap_putchar+0x22>
1000274c:	000f4240 	.word	0x000f4240
10002750:	20001558 	.word	0x20001558
10002754:	20001a98 	.word	0x20001a98
10002758:	20001aa0 	.word	0x20001aa0
1000275c:	7fffffff 	.word	0x7fffffff

10002760 <__wrap_puts>:
10002760:	b570      	push	{r4, r5, r6, lr}
10002762:	0004      	movs	r4, r0
10002764:	f001 ff00 	bl	10004568 <strlen>
10002768:	2300      	movs	r3, #0
1000276a:	0001      	movs	r1, r0
1000276c:	0005      	movs	r5, r0
1000276e:	2201      	movs	r2, #1
10002770:	0020      	movs	r0, r4
10002772:	f7ff ff27 	bl	100025c4 <stdio_put_string>
10002776:	4b08      	ldr	r3, [pc, #32]	; (10002798 <__wrap_puts+0x38>)
10002778:	681c      	ldr	r4, [r3, #0]
1000277a:	2c00      	cmp	r4, #0
1000277c:	d006      	beq.n	1000278c <__wrap_puts+0x2c>
1000277e:	6863      	ldr	r3, [r4, #4]
10002780:	2b00      	cmp	r3, #0
10002782:	d005      	beq.n	10002790 <__wrap_puts+0x30>
10002784:	4798      	blx	r3
10002786:	6924      	ldr	r4, [r4, #16]
10002788:	2c00      	cmp	r4, #0
1000278a:	d1f8      	bne.n	1000277e <__wrap_puts+0x1e>
1000278c:	0028      	movs	r0, r5
1000278e:	bd70      	pop	{r4, r5, r6, pc}
10002790:	6924      	ldr	r4, [r4, #16]
10002792:	2c00      	cmp	r4, #0
10002794:	d1f3      	bne.n	1000277e <__wrap_puts+0x1e>
10002796:	e7f9      	b.n	1000278c <__wrap_puts+0x2c>
10002798:	20001a98 	.word	0x20001a98

1000279c <stdio_set_driver_enabled>:
1000279c:	4a0a      	ldr	r2, [pc, #40]	; (100027c8 <stdio_set_driver_enabled+0x2c>)
1000279e:	6813      	ldr	r3, [r2, #0]
100027a0:	2b00      	cmp	r3, #0
100027a2:	d105      	bne.n	100027b0 <stdio_set_driver_enabled+0x14>
100027a4:	e00c      	b.n	100027c0 <stdio_set_driver_enabled+0x24>
100027a6:	001a      	movs	r2, r3
100027a8:	691b      	ldr	r3, [r3, #16]
100027aa:	3210      	adds	r2, #16
100027ac:	2b00      	cmp	r3, #0
100027ae:	d007      	beq.n	100027c0 <stdio_set_driver_enabled+0x24>
100027b0:	4298      	cmp	r0, r3
100027b2:	d1f8      	bne.n	100027a6 <stdio_set_driver_enabled+0xa>
100027b4:	2900      	cmp	r1, #0
100027b6:	d102      	bne.n	100027be <stdio_set_driver_enabled+0x22>
100027b8:	6903      	ldr	r3, [r0, #16]
100027ba:	6013      	str	r3, [r2, #0]
100027bc:	6101      	str	r1, [r0, #16]
100027be:	4770      	bx	lr
100027c0:	2900      	cmp	r1, #0
100027c2:	d0fc      	beq.n	100027be <stdio_set_driver_enabled+0x22>
100027c4:	6010      	str	r0, [r2, #0]
100027c6:	e7fa      	b.n	100027be <stdio_set_driver_enabled+0x22>
100027c8:	20001a98 	.word	0x20001a98

100027cc <stdio_uart_out_chars>:
100027cc:	b5f0      	push	{r4, r5, r6, r7, lr}
100027ce:	1e0d      	subs	r5, r1, #0
100027d0:	dd15      	ble.n	100027fe <stdio_uart_out_chars+0x32>
100027d2:	4b0e      	ldr	r3, [pc, #56]	; (1000280c <stdio_uart_out_chars+0x40>)
100027d4:	270d      	movs	r7, #13
100027d6:	681a      	ldr	r2, [r3, #0]
100027d8:	4b0d      	ldr	r3, [pc, #52]	; (10002810 <stdio_uart_out_chars+0x44>)
100027da:	1945      	adds	r5, r0, r5
100027dc:	18d3      	adds	r3, r2, r3
100027de:	4259      	negs	r1, r3
100027e0:	414b      	adcs	r3, r1
100027e2:	490c      	ldr	r1, [pc, #48]	; (10002814 <stdio_uart_out_chars+0x48>)
100027e4:	005b      	lsls	r3, r3, #1
100027e6:	5e5e      	ldrsh	r6, [r3, r1]
100027e8:	2120      	movs	r1, #32
100027ea:	7804      	ldrb	r4, [r0, #0]
100027ec:	42a6      	cmp	r6, r4
100027ee:	d007      	beq.n	10002800 <stdio_uart_out_chars+0x34>
100027f0:	6993      	ldr	r3, [r2, #24]
100027f2:	4219      	tst	r1, r3
100027f4:	d1fc      	bne.n	100027f0 <stdio_uart_out_chars+0x24>
100027f6:	3001      	adds	r0, #1
100027f8:	6014      	str	r4, [r2, #0]
100027fa:	42a8      	cmp	r0, r5
100027fc:	d1f5      	bne.n	100027ea <stdio_uart_out_chars+0x1e>
100027fe:	bdf0      	pop	{r4, r5, r6, r7, pc}
10002800:	6993      	ldr	r3, [r2, #24]
10002802:	4219      	tst	r1, r3
10002804:	d1fc      	bne.n	10002800 <stdio_uart_out_chars+0x34>
10002806:	6017      	str	r7, [r2, #0]
10002808:	e7f2      	b.n	100027f0 <stdio_uart_out_chars+0x24>
1000280a:	46c0      	nop			; (mov r8, r8)
1000280c:	20001f0c 	.word	0x20001f0c
10002810:	bffc8000 	.word	0xbffc8000
10002814:	20002044 	.word	0x20002044

10002818 <stdio_uart_in_chars>:
10002818:	b530      	push	{r4, r5, lr}
1000281a:	0005      	movs	r5, r0
1000281c:	2900      	cmp	r1, #0
1000281e:	dd26      	ble.n	1000286e <stdio_uart_in_chars+0x56>
10002820:	2000      	movs	r0, #0
10002822:	2410      	movs	r4, #16
10002824:	4b1b      	ldr	r3, [pc, #108]	; (10002894 <stdio_uart_in_chars+0x7c>)
10002826:	3d01      	subs	r5, #1
10002828:	681a      	ldr	r2, [r3, #0]
1000282a:	6993      	ldr	r3, [r2, #24]
1000282c:	421c      	tst	r4, r3
1000282e:	d119      	bne.n	10002864 <stdio_uart_in_chars+0x4c>
10002830:	3001      	adds	r0, #1
10002832:	6993      	ldr	r3, [r2, #24]
10002834:	421c      	tst	r4, r3
10002836:	d1fc      	bne.n	10002832 <stdio_uart_in_chars+0x1a>
10002838:	6813      	ldr	r3, [r2, #0]
1000283a:	542b      	strb	r3, [r5, r0]
1000283c:	4281      	cmp	r1, r0
1000283e:	d1f4      	bne.n	1000282a <stdio_uart_in_chars+0x12>
10002840:	4b15      	ldr	r3, [pc, #84]	; (10002898 <stdio_uart_in_chars+0x80>)
10002842:	681b      	ldr	r3, [r3, #0]
10002844:	2b00      	cmp	r3, #0
10002846:	d00c      	beq.n	10002862 <stdio_uart_in_chars+0x4a>
10002848:	2350      	movs	r3, #80	; 0x50
1000284a:	6393      	str	r3, [r2, #56]	; 0x38
1000284c:	6b51      	ldr	r1, [r2, #52]	; 0x34
1000284e:	3b18      	subs	r3, #24
10002850:	3234      	adds	r2, #52	; 0x34
10002852:	400b      	ands	r3, r1
10002854:	0011      	movs	r1, r2
10002856:	2280      	movs	r2, #128	; 0x80
10002858:	0152      	lsls	r2, r2, #5
1000285a:	430a      	orrs	r2, r1
1000285c:	6013      	str	r3, [r2, #0]
1000285e:	2800      	cmp	r0, #0
10002860:	d015      	beq.n	1000288e <stdio_uart_in_chars+0x76>
10002862:	bd30      	pop	{r4, r5, pc}
10002864:	4b0c      	ldr	r3, [pc, #48]	; (10002898 <stdio_uart_in_chars+0x80>)
10002866:	681b      	ldr	r3, [r3, #0]
10002868:	2b00      	cmp	r3, #0
1000286a:	d1ed      	bne.n	10002848 <stdio_uart_in_chars+0x30>
1000286c:	e7f7      	b.n	1000285e <stdio_uart_in_chars+0x46>
1000286e:	4b0a      	ldr	r3, [pc, #40]	; (10002898 <stdio_uart_in_chars+0x80>)
10002870:	681b      	ldr	r3, [r3, #0]
10002872:	2b00      	cmp	r3, #0
10002874:	d00b      	beq.n	1000288e <stdio_uart_in_chars+0x76>
10002876:	2250      	movs	r2, #80	; 0x50
10002878:	2138      	movs	r1, #56	; 0x38
1000287a:	4b06      	ldr	r3, [pc, #24]	; (10002894 <stdio_uart_in_chars+0x7c>)
1000287c:	681b      	ldr	r3, [r3, #0]
1000287e:	639a      	str	r2, [r3, #56]	; 0x38
10002880:	6b5a      	ldr	r2, [r3, #52]	; 0x34
10002882:	3334      	adds	r3, #52	; 0x34
10002884:	4011      	ands	r1, r2
10002886:	2280      	movs	r2, #128	; 0x80
10002888:	0152      	lsls	r2, r2, #5
1000288a:	4313      	orrs	r3, r2
1000288c:	6019      	str	r1, [r3, #0]
1000288e:	2003      	movs	r0, #3
10002890:	4240      	negs	r0, r0
10002892:	e7e6      	b.n	10002862 <stdio_uart_in_chars+0x4a>
10002894:	20001f0c 	.word	0x20001f0c
10002898:	20001a24 	.word	0x20001a24

1000289c <on_uart_rx>:
1000289c:	4b06      	ldr	r3, [pc, #24]	; (100028b8 <on_uart_rx+0x1c>)
1000289e:	b510      	push	{r4, lr}
100028a0:	681b      	ldr	r3, [r3, #0]
100028a2:	2b00      	cmp	r3, #0
100028a4:	d006      	beq.n	100028b4 <on_uart_rx+0x18>
100028a6:	2100      	movs	r1, #0
100028a8:	4a04      	ldr	r2, [pc, #16]	; (100028bc <on_uart_rx+0x20>)
100028aa:	6812      	ldr	r2, [r2, #0]
100028ac:	6391      	str	r1, [r2, #56]	; 0x38
100028ae:	4a04      	ldr	r2, [pc, #16]	; (100028c0 <on_uart_rx+0x24>)
100028b0:	6810      	ldr	r0, [r2, #0]
100028b2:	4798      	blx	r3
100028b4:	bd10      	pop	{r4, pc}
100028b6:	46c0      	nop			; (mov r8, r8)
100028b8:	20001a24 	.word	0x20001a24
100028bc:	20001f0c 	.word	0x20001f0c
100028c0:	20001a28 	.word	0x20001a28

100028c4 <stdio_uart_set_chars_available_callback>:
100028c4:	4b1d      	ldr	r3, [pc, #116]	; (1000293c <stdio_uart_set_chars_available_callback+0x78>)
100028c6:	b5f0      	push	{r4, r5, r6, r7, lr}
100028c8:	681a      	ldr	r2, [r3, #0]
100028ca:	46c6      	mov	lr, r8
100028cc:	4698      	mov	r8, r3
100028ce:	4b1c      	ldr	r3, [pc, #112]	; (10002940 <stdio_uart_set_chars_available_callback+0x7c>)
100028d0:	000e      	movs	r6, r1
100028d2:	18d3      	adds	r3, r2, r3
100028d4:	4259      	negs	r1, r3
100028d6:	414b      	adcs	r3, r1
100028d8:	4f1a      	ldr	r7, [pc, #104]	; (10002944 <stdio_uart_set_chars_available_callback+0x80>)
100028da:	3314      	adds	r3, #20
100028dc:	001c      	movs	r4, r3
100028de:	0005      	movs	r5, r0
100028e0:	b500      	push	{lr}
100028e2:	683b      	ldr	r3, [r7, #0]
100028e4:	2800      	cmp	r0, #0
100028e6:	d007      	beq.n	100028f8 <stdio_uart_set_chars_available_callback+0x34>
100028e8:	2b00      	cmp	r3, #0
100028ea:	d011      	beq.n	10002910 <stdio_uart_set_chars_available_callback+0x4c>
100028ec:	4b16      	ldr	r3, [pc, #88]	; (10002948 <stdio_uart_set_chars_available_callback+0x84>)
100028ee:	603d      	str	r5, [r7, #0]
100028f0:	601e      	str	r6, [r3, #0]
100028f2:	bc04      	pop	{r2}
100028f4:	4690      	mov	r8, r2
100028f6:	bdf0      	pop	{r4, r5, r6, r7, pc}
100028f8:	2b00      	cmp	r3, #0
100028fa:	d0f7      	beq.n	100028ec <stdio_uart_set_chars_available_callback+0x28>
100028fc:	6390      	str	r0, [r2, #56]	; 0x38
100028fe:	2100      	movs	r1, #0
10002900:	0020      	movs	r0, r4
10002902:	f7fe f84b 	bl	1000099c <irq_set_enabled>
10002906:	0020      	movs	r0, r4
10002908:	4910      	ldr	r1, [pc, #64]	; (1000294c <stdio_uart_set_chars_available_callback+0x88>)
1000290a:	f7fe f977 	bl	10000bfc <irq_remove_handler>
1000290e:	e7ed      	b.n	100028ec <stdio_uart_set_chars_available_callback+0x28>
10002910:	0020      	movs	r0, r4
10002912:	490e      	ldr	r1, [pc, #56]	; (1000294c <stdio_uart_set_chars_available_callback+0x88>)
10002914:	f7fe f868 	bl	100009e8 <irq_set_exclusive_handler>
10002918:	2101      	movs	r1, #1
1000291a:	0020      	movs	r0, r4
1000291c:	f7fe f83e 	bl	1000099c <irq_set_enabled>
10002920:	4643      	mov	r3, r8
10002922:	2250      	movs	r2, #80	; 0x50
10002924:	2138      	movs	r1, #56	; 0x38
10002926:	681b      	ldr	r3, [r3, #0]
10002928:	639a      	str	r2, [r3, #56]	; 0x38
1000292a:	6b5a      	ldr	r2, [r3, #52]	; 0x34
1000292c:	3334      	adds	r3, #52	; 0x34
1000292e:	4011      	ands	r1, r2
10002930:	2280      	movs	r2, #128	; 0x80
10002932:	0152      	lsls	r2, r2, #5
10002934:	4313      	orrs	r3, r2
10002936:	6019      	str	r1, [r3, #0]
10002938:	e7d8      	b.n	100028ec <stdio_uart_set_chars_available_callback+0x28>
1000293a:	46c0      	nop			; (mov r8, r8)
1000293c:	20001f0c 	.word	0x20001f0c
10002940:	bffc8000 	.word	0xbffc8000
10002944:	20001a24 	.word	0x20001a24
10002948:	20001a28 	.word	0x20001a28
1000294c:	1000289d 	.word	0x1000289d

10002950 <stdio_uart_init_full>:
10002950:	b570      	push	{r4, r5, r6, lr}
10002952:	4e0c      	ldr	r6, [pc, #48]	; (10002984 <stdio_uart_init_full+0x34>)
10002954:	000d      	movs	r5, r1
10002956:	001c      	movs	r4, r3
10002958:	6030      	str	r0, [r6, #0]
1000295a:	2a00      	cmp	r2, #0
1000295c:	db03      	blt.n	10002966 <stdio_uart_init_full+0x16>
1000295e:	2102      	movs	r1, #2
10002960:	0010      	movs	r0, r2
10002962:	f7fd ff2b 	bl	100007bc <gpio_set_function>
10002966:	2c00      	cmp	r4, #0
10002968:	db03      	blt.n	10002972 <stdio_uart_init_full+0x22>
1000296a:	2102      	movs	r1, #2
1000296c:	0020      	movs	r0, r4
1000296e:	f7fd ff25 	bl	100007bc <gpio_set_function>
10002972:	0029      	movs	r1, r5
10002974:	6830      	ldr	r0, [r6, #0]
10002976:	f7ff f983 	bl	10001c80 <uart_init>
1000297a:	2101      	movs	r1, #1
1000297c:	4802      	ldr	r0, [pc, #8]	; (10002988 <stdio_uart_init_full+0x38>)
1000297e:	f7ff ff0d 	bl	1000279c <stdio_set_driver_enabled>
10002982:	bd70      	pop	{r4, r5, r6, pc}
10002984:	20001f0c 	.word	0x20001f0c
10002988:	20001510 	.word	0x20001510

1000298c <pio_add_program>:
1000298c:	b5f0      	push	{r4, r5, r6, r7, lr}
1000298e:	46de      	mov	lr, fp
10002990:	4645      	mov	r5, r8
10002992:	4657      	mov	r7, sl
10002994:	464e      	mov	r6, r9
10002996:	b5e0      	push	{r5, r6, r7, lr}
10002998:	0006      	movs	r6, r0
1000299a:	b083      	sub	sp, #12
1000299c:	000d      	movs	r5, r1
1000299e:	f7fd ff4b 	bl	10000838 <hw_claim_lock>
100029a2:	4b30      	ldr	r3, [pc, #192]	; (10002a64 <pio_add_program+0xd8>)
100029a4:	792f      	ldrb	r7, [r5, #4]
100029a6:	18f1      	adds	r1, r6, r3
100029a8:	424b      	negs	r3, r1
100029aa:	4159      	adcs	r1, r3
100029ac:	4b2e      	ldr	r3, [pc, #184]	; (10002a68 <pio_add_program+0xdc>)
100029ae:	2405      	movs	r4, #5
100029b0:	4698      	mov	r8, r3
100029b2:	008b      	lsls	r3, r1, #2
100029b4:	469b      	mov	fp, r3
100029b6:	4643      	mov	r3, r8
100029b8:	465a      	mov	r2, fp
100029ba:	589b      	ldr	r3, [r3, r2]
100029bc:	2220      	movs	r2, #32
100029be:	469c      	mov	ip, r3
100029c0:	2301      	movs	r3, #1
100029c2:	40bb      	lsls	r3, r7
100029c4:	9001      	str	r0, [sp, #4]
100029c6:	572c      	ldrsb	r4, [r5, r4]
100029c8:	3b01      	subs	r3, #1
100029ca:	1bd2      	subs	r2, r2, r7
100029cc:	2c00      	cmp	r4, #0
100029ce:	db32      	blt.n	10002a36 <pio_add_program+0xaa>
100029d0:	4294      	cmp	r4, r2
100029d2:	dc43      	bgt.n	10002a5c <pio_add_program+0xd0>
100029d4:	40a3      	lsls	r3, r4
100029d6:	4662      	mov	r2, ip
100029d8:	421a      	tst	r2, r3
100029da:	d13f      	bne.n	10002a5c <pio_add_program+0xd0>
100029dc:	4699      	mov	r9, r3
100029de:	2f00      	cmp	r7, #0
100029e0:	d018      	beq.n	10002a14 <pio_add_program+0x88>
100029e2:	786b      	ldrb	r3, [r5, #1]
100029e4:	782a      	ldrb	r2, [r5, #0]
100029e6:	021b      	lsls	r3, r3, #8
100029e8:	431a      	orrs	r2, r3
100029ea:	78ab      	ldrb	r3, [r5, #2]
100029ec:	041b      	lsls	r3, r3, #16
100029ee:	4313      	orrs	r3, r2
100029f0:	78ea      	ldrb	r2, [r5, #3]
100029f2:	0612      	lsls	r2, r2, #24
100029f4:	431a      	orrs	r2, r3
100029f6:	4692      	mov	sl, r2
100029f8:	2300      	movs	r3, #0
100029fa:	4651      	mov	r1, sl
100029fc:	005a      	lsls	r2, r3, #1
100029fe:	5a8d      	ldrh	r5, [r1, r2]
10002a00:	0b6a      	lsrs	r2, r5, #13
10002a02:	d100      	bne.n	10002a06 <pio_add_program+0x7a>
10002a04:	192d      	adds	r5, r5, r4
10002a06:	191a      	adds	r2, r3, r4
10002a08:	3212      	adds	r2, #18
10002a0a:	0092      	lsls	r2, r2, #2
10002a0c:	3301      	adds	r3, #1
10002a0e:	5195      	str	r5, [r2, r6]
10002a10:	429f      	cmp	r7, r3
10002a12:	d8f2      	bhi.n	100029fa <pio_add_program+0x6e>
10002a14:	4663      	mov	r3, ip
10002a16:	464a      	mov	r2, r9
10002a18:	4659      	mov	r1, fp
10002a1a:	4313      	orrs	r3, r2
10002a1c:	4642      	mov	r2, r8
10002a1e:	9801      	ldr	r0, [sp, #4]
10002a20:	5053      	str	r3, [r2, r1]
10002a22:	f7fd ff15 	bl	10000850 <hw_claim_unlock>
10002a26:	0020      	movs	r0, r4
10002a28:	b003      	add	sp, #12
10002a2a:	bc3c      	pop	{r2, r3, r4, r5}
10002a2c:	4690      	mov	r8, r2
10002a2e:	4699      	mov	r9, r3
10002a30:	46a2      	mov	sl, r4
10002a32:	46ab      	mov	fp, r5
10002a34:	bdf0      	pop	{r4, r5, r6, r7, pc}
10002a36:	2a00      	cmp	r2, #0
10002a38:	db10      	blt.n	10002a5c <pio_add_program+0xd0>
10002a3a:	0019      	movs	r1, r3
10002a3c:	4660      	mov	r0, ip
10002a3e:	4091      	lsls	r1, r2
10002a40:	0014      	movs	r4, r2
10002a42:	4689      	mov	r9, r1
10002a44:	4201      	tst	r1, r0
10002a46:	d107      	bne.n	10002a58 <pio_add_program+0xcc>
10002a48:	e7c9      	b.n	100029de <pio_add_program+0x52>
10002a4a:	0018      	movs	r0, r3
10002a4c:	4661      	mov	r1, ip
10002a4e:	4090      	lsls	r0, r2
10002a50:	0014      	movs	r4, r2
10002a52:	4681      	mov	r9, r0
10002a54:	4208      	tst	r0, r1
10002a56:	d0c2      	beq.n	100029de <pio_add_program+0x52>
10002a58:	3a01      	subs	r2, #1
10002a5a:	d2f6      	bcs.n	10002a4a <pio_add_program+0xbe>
10002a5c:	4803      	ldr	r0, [pc, #12]	; (10002a6c <pio_add_program+0xe0>)
10002a5e:	f7ff fbd3 	bl	10002208 <panic>
10002a62:	46c0      	nop			; (mov r8, r8)
10002a64:	afd00000 	.word	0xafd00000
10002a68:	20001790 	.word	0x20001790
10002a6c:	10004888 	.word	0x10004888

10002a70 <pio_sm_set_pindirs_with_mask>:
10002a70:	b5f0      	push	{r4, r5, r6, r7, lr}
10002a72:	46de      	mov	lr, fp
10002a74:	4657      	mov	r7, sl
10002a76:	464e      	mov	r6, r9
10002a78:	4645      	mov	r5, r8
10002a7a:	468b      	mov	fp, r1
10002a7c:	b5e0      	push	{r5, r6, r7, lr}
10002a7e:	001c      	movs	r4, r3
10002a80:	b085      	sub	sp, #20
10002a82:	004b      	lsls	r3, r1, #1
10002a84:	9303      	str	r3, [sp, #12]
10002a86:	445b      	add	r3, fp
10002a88:	00db      	lsls	r3, r3, #3
10002a8a:	18c5      	adds	r5, r0, r3
10002a8c:	002e      	movs	r6, r5
10002a8e:	36dc      	adds	r6, #220	; 0xdc
10002a90:	0017      	movs	r7, r2
10002a92:	6832      	ldr	r2, [r6, #0]
10002a94:	4684      	mov	ip, r0
10002a96:	9200      	str	r2, [sp, #0]
10002a98:	002a      	movs	r2, r5
10002a9a:	32cc      	adds	r2, #204	; 0xcc
10002a9c:	6812      	ldr	r2, [r2, #0]
10002a9e:	33cc      	adds	r3, #204	; 0xcc
10002aa0:	9201      	str	r2, [sp, #4]
10002aa2:	22c0      	movs	r2, #192	; 0xc0
10002aa4:	4463      	add	r3, ip
10002aa6:	0192      	lsls	r2, r2, #6
10002aa8:	4313      	orrs	r3, r2
10002aaa:	2280      	movs	r2, #128	; 0x80
10002aac:	0292      	lsls	r2, r2, #10
10002aae:	9002      	str	r0, [sp, #8]
10002ab0:	601a      	str	r2, [r3, #0]
10002ab2:	2c00      	cmp	r4, #0
10002ab4:	d018      	beq.n	10002ae8 <pio_sm_set_pindirs_with_mask+0x78>
10002ab6:	2380      	movs	r3, #128	; 0x80
10002ab8:	04db      	lsls	r3, r3, #19
10002aba:	469a      	mov	sl, r3
10002abc:	2301      	movs	r3, #1
10002abe:	4699      	mov	r9, r3
10002ac0:	4b13      	ldr	r3, [pc, #76]	; (10002b10 <pio_sm_set_pindirs_with_mask+0xa0>)
10002ac2:	35d8      	adds	r5, #216	; 0xd8
10002ac4:	4698      	mov	r8, r3
10002ac6:	0020      	movs	r0, r4
10002ac8:	f7ff fbe4 	bl	10002294 <__wrap___ctzsi2>
10002acc:	4652      	mov	r2, sl
10002ace:	0143      	lsls	r3, r0, #5
10002ad0:	4313      	orrs	r3, r2
10002ad2:	6033      	str	r3, [r6, #0]
10002ad4:	003b      	movs	r3, r7
10002ad6:	464a      	mov	r2, r9
10002ad8:	40c3      	lsrs	r3, r0
10002ada:	4013      	ands	r3, r2
10002adc:	4642      	mov	r2, r8
10002ade:	4313      	orrs	r3, r2
10002ae0:	602b      	str	r3, [r5, #0]
10002ae2:	1e63      	subs	r3, r4, #1
10002ae4:	401c      	ands	r4, r3
10002ae6:	d1ee      	bne.n	10002ac6 <pio_sm_set_pindirs_with_mask+0x56>
10002ae8:	9b03      	ldr	r3, [sp, #12]
10002aea:	9a00      	ldr	r2, [sp, #0]
10002aec:	445b      	add	r3, fp
10002aee:	00d8      	lsls	r0, r3, #3
10002af0:	9b02      	ldr	r3, [sp, #8]
10002af2:	469c      	mov	ip, r3
10002af4:	4460      	add	r0, ip
10002af6:	0003      	movs	r3, r0
10002af8:	33dc      	adds	r3, #220	; 0xdc
10002afa:	601a      	str	r2, [r3, #0]
10002afc:	9b01      	ldr	r3, [sp, #4]
10002afe:	30cc      	adds	r0, #204	; 0xcc
10002b00:	6003      	str	r3, [r0, #0]
10002b02:	b005      	add	sp, #20
10002b04:	bc3c      	pop	{r2, r3, r4, r5}
10002b06:	4690      	mov	r8, r2
10002b08:	4699      	mov	r9, r3
10002b0a:	46a2      	mov	sl, r4
10002b0c:	46ab      	mov	fp, r5
10002b0e:	bdf0      	pop	{r4, r5, r6, r7, pc}
10002b10:	0000e080 	.word	0x0000e080

10002b14 <pio_sm_init>:
10002b14:	b5f0      	push	{r4, r5, r6, r7, lr}
10002b16:	2501      	movs	r5, #1
10002b18:	408d      	lsls	r5, r1
10002b1a:	6804      	ldr	r4, [r0, #0]
10002b1c:	43ac      	bics	r4, r5
10002b1e:	004d      	lsls	r5, r1, #1
10002b20:	6004      	str	r4, [r0, #0]
10002b22:	186c      	adds	r4, r5, r1
10002b24:	00e4      	lsls	r4, r4, #3
10002b26:	1904      	adds	r4, r0, r4
10002b28:	0026      	movs	r6, r4
10002b2a:	36c8      	adds	r6, #200	; 0xc8
10002b2c:	2b00      	cmp	r3, #0
10002b2e:	d028      	beq.n	10002b82 <pio_sm_init+0x6e>
10002b30:	681f      	ldr	r7, [r3, #0]
10002b32:	34dc      	adds	r4, #220	; 0xdc
10002b34:	6037      	str	r7, [r6, #0]
10002b36:	685f      	ldr	r7, [r3, #4]
10002b38:	6077      	str	r7, [r6, #4]
10002b3a:	689f      	ldr	r7, [r3, #8]
10002b3c:	68db      	ldr	r3, [r3, #12]
10002b3e:	60b7      	str	r7, [r6, #8]
10002b40:	6023      	str	r3, [r4, #0]
10002b42:	186b      	adds	r3, r5, r1
10002b44:	00db      	lsls	r3, r3, #3
10002b46:	001d      	movs	r5, r3
10002b48:	2480      	movs	r4, #128	; 0x80
10002b4a:	35d0      	adds	r5, #208	; 0xd0
10002b4c:	1945      	adds	r5, r0, r5
10002b4e:	0164      	lsls	r4, r4, #5
10002b50:	432c      	orrs	r4, r5
10002b52:	2580      	movs	r5, #128	; 0x80
10002b54:	062d      	lsls	r5, r5, #24
10002b56:	6025      	str	r5, [r4, #0]
10002b58:	6025      	str	r5, [r4, #0]
10002b5a:	2501      	movs	r5, #1
10002b5c:	4c0f      	ldr	r4, [pc, #60]	; (10002b9c <pio_sm_init+0x88>)
10002b5e:	002e      	movs	r6, r5
10002b60:	408c      	lsls	r4, r1
10002b62:	6084      	str	r4, [r0, #8]
10002b64:	1d0c      	adds	r4, r1, #4
10002b66:	40a6      	lsls	r6, r4
10002b68:	2480      	movs	r4, #128	; 0x80
10002b6a:	3108      	adds	r1, #8
10002b6c:	408d      	lsls	r5, r1
10002b6e:	211f      	movs	r1, #31
10002b70:	01a4      	lsls	r4, r4, #6
10002b72:	4304      	orrs	r4, r0
10002b74:	18c0      	adds	r0, r0, r3
10002b76:	400a      	ands	r2, r1
10002b78:	30d8      	adds	r0, #216	; 0xd8
10002b7a:	6026      	str	r6, [r4, #0]
10002b7c:	6025      	str	r5, [r4, #0]
10002b7e:	6002      	str	r2, [r0, #0]
10002b80:	bdf0      	pop	{r4, r5, r6, r7, pc}
10002b82:	2780      	movs	r7, #128	; 0x80
10002b84:	027f      	lsls	r7, r7, #9
10002b86:	6037      	str	r7, [r6, #0]
10002b88:	27f8      	movs	r7, #248	; 0xf8
10002b8a:	027f      	lsls	r7, r7, #9
10002b8c:	6077      	str	r7, [r6, #4]
10002b8e:	27c0      	movs	r7, #192	; 0xc0
10002b90:	34dc      	adds	r4, #220	; 0xdc
10002b92:	033f      	lsls	r7, r7, #12
10002b94:	60b7      	str	r7, [r6, #8]
10002b96:	6023      	str	r3, [r4, #0]
10002b98:	e7d3      	b.n	10002b42 <pio_sm_init+0x2e>
10002b9a:	46c0      	nop			; (mov r8, r8)
10002b9c:	01010101 	.word	0x01010101

10002ba0 <dma_claim_unused_channel>:
10002ba0:	b500      	push	{lr}
10002ba2:	4b05      	ldr	r3, [pc, #20]	; (10002bb8 <dma_claim_unused_channel+0x18>)
10002ba4:	b083      	sub	sp, #12
10002ba6:	0001      	movs	r1, r0
10002ba8:	9300      	str	r3, [sp, #0]
10002baa:	2200      	movs	r2, #0
10002bac:	230b      	movs	r3, #11
10002bae:	4803      	ldr	r0, [pc, #12]	; (10002bbc <dma_claim_unused_channel+0x1c>)
10002bb0:	f7fd fe7c 	bl	100008ac <hw_claim_unused_from_range>
10002bb4:	b003      	add	sp, #12
10002bb6:	bd00      	pop	{pc}
10002bb8:	1000489c 	.word	0x1000489c
10002bbc:	20001f14 	.word	0x20001f14

10002bc0 <core1_trampoline>:
10002bc0:	bd03      	pop	{r0, r1, pc}
10002bc2:	46c0      	nop			; (mov r8, r8)

10002bc4 <core1_wrapper>:
10002bc4:	b510      	push	{r4, lr}
10002bc6:	0004      	movs	r4, r0
10002bc8:	f7fe f94c 	bl	10000e64 <irq_init_priorities>
10002bcc:	47a0      	blx	r4
10002bce:	bd10      	pop	{r4, pc}

10002bd0 <multicore_fifo_push_blocking>:
10002bd0:	22d0      	movs	r2, #208	; 0xd0
10002bd2:	2102      	movs	r1, #2
10002bd4:	0612      	lsls	r2, r2, #24
10002bd6:	6d13      	ldr	r3, [r2, #80]	; 0x50
10002bd8:	4219      	tst	r1, r3
10002bda:	d0fc      	beq.n	10002bd6 <multicore_fifo_push_blocking+0x6>
10002bdc:	6550      	str	r0, [r2, #84]	; 0x54
10002bde:	bf40      	sev
10002be0:	4770      	bx	lr
10002be2:	46c0      	nop			; (mov r8, r8)

10002be4 <multicore_fifo_pop_blocking>:
10002be4:	22d0      	movs	r2, #208	; 0xd0
10002be6:	0612      	lsls	r2, r2, #24
10002be8:	6d13      	ldr	r3, [r2, #80]	; 0x50
10002bea:	07db      	lsls	r3, r3, #31
10002bec:	d404      	bmi.n	10002bf8 <multicore_fifo_pop_blocking+0x14>
10002bee:	2101      	movs	r1, #1
10002bf0:	bf20      	wfe
10002bf2:	6d13      	ldr	r3, [r2, #80]	; 0x50
10002bf4:	4219      	tst	r1, r3
10002bf6:	d0fb      	beq.n	10002bf0 <multicore_fifo_pop_blocking+0xc>
10002bf8:	23d0      	movs	r3, #208	; 0xd0
10002bfa:	061b      	lsls	r3, r3, #24
10002bfc:	6d98      	ldr	r0, [r3, #88]	; 0x58
10002bfe:	4770      	bx	lr

10002c00 <multicore_launch_core1_raw>:
10002c00:	b5f0      	push	{r4, r5, r6, r7, lr}
10002c02:	0004      	movs	r4, r0
10002c04:	b087      	sub	sp, #28
10002c06:	200f      	movs	r0, #15
10002c08:	000d      	movs	r5, r1
10002c0a:	0017      	movs	r7, r2
10002c0c:	f7fd fed8 	bl	100009c0 <irq_is_enabled>
10002c10:	2100      	movs	r1, #0
10002c12:	0006      	movs	r6, r0
10002c14:	200f      	movs	r0, #15
10002c16:	f7fd fec1 	bl	1000099c <irq_set_enabled>
10002c1a:	2300      	movs	r3, #0
10002c1c:	2200      	movs	r2, #0
10002c1e:	9200      	str	r2, [sp, #0]
10002c20:	9301      	str	r3, [sp, #4]
10002c22:	2301      	movs	r3, #1
10002c24:	9302      	str	r3, [sp, #8]
10002c26:	23d0      	movs	r3, #208	; 0xd0
10002c28:	9504      	str	r5, [sp, #16]
10002c2a:	9405      	str	r4, [sp, #20]
10002c2c:	2500      	movs	r5, #0
10002c2e:	2000      	movs	r0, #0
10002c30:	2101      	movs	r1, #1
10002c32:	2402      	movs	r4, #2
10002c34:	9703      	str	r7, [sp, #12]
10002c36:	061b      	lsls	r3, r3, #24
10002c38:	2d00      	cmp	r5, #0
10002c3a:	d014      	beq.n	10002c66 <multicore_launch_core1_raw+0x66>
10002c3c:	6d1a      	ldr	r2, [r3, #80]	; 0x50
10002c3e:	4214      	tst	r4, r2
10002c40:	d0fc      	beq.n	10002c3c <multicore_launch_core1_raw+0x3c>
10002c42:	655d      	str	r5, [r3, #84]	; 0x54
10002c44:	bf40      	sev
10002c46:	6d1a      	ldr	r2, [r3, #80]	; 0x50
10002c48:	4211      	tst	r1, r2
10002c4a:	d103      	bne.n	10002c54 <multicore_launch_core1_raw+0x54>
10002c4c:	bf20      	wfe
10002c4e:	6d1a      	ldr	r2, [r3, #80]	; 0x50
10002c50:	4211      	tst	r1, r2
10002c52:	d0fb      	beq.n	10002c4c <multicore_launch_core1_raw+0x4c>
10002c54:	6d9a      	ldr	r2, [r3, #88]	; 0x58
10002c56:	42aa      	cmp	r2, r5
10002c58:	d00a      	beq.n	10002c70 <multicore_launch_core1_raw+0x70>
10002c5a:	2000      	movs	r0, #0
10002c5c:	466d      	mov	r5, sp
10002c5e:	0082      	lsls	r2, r0, #2
10002c60:	58ad      	ldr	r5, [r5, r2]
10002c62:	e7e9      	b.n	10002c38 <multicore_launch_core1_raw+0x38>
10002c64:	6d9a      	ldr	r2, [r3, #88]	; 0x58
10002c66:	6d1a      	ldr	r2, [r3, #80]	; 0x50
10002c68:	4211      	tst	r1, r2
10002c6a:	d1fb      	bne.n	10002c64 <multicore_launch_core1_raw+0x64>
10002c6c:	bf40      	sev
10002c6e:	e7e5      	b.n	10002c3c <multicore_launch_core1_raw+0x3c>
10002c70:	3001      	adds	r0, #1
10002c72:	2805      	cmp	r0, #5
10002c74:	d9f2      	bls.n	10002c5c <multicore_launch_core1_raw+0x5c>
10002c76:	0031      	movs	r1, r6
10002c78:	200f      	movs	r0, #15
10002c7a:	f7fd fe8f 	bl	1000099c <irq_set_enabled>
10002c7e:	b007      	add	sp, #28
10002c80:	bdf0      	pop	{r4, r5, r6, r7, pc}
10002c82:	46c0      	nop			; (mov r8, r8)

10002c84 <multicore_launch_core1>:
10002c84:	4b0b      	ldr	r3, [pc, #44]	; (10002cb4 <multicore_launch_core1+0x30>)
10002c86:	4a0c      	ldr	r2, [pc, #48]	; (10002cb8 <multicore_launch_core1+0x34>)
10002c88:	b510      	push	{r4, lr}
10002c8a:	4293      	cmp	r3, r2
10002c8c:	d201      	bcs.n	10002c92 <multicore_launch_core1+0xe>
10002c8e:	2301      	movs	r3, #1
10002c90:	425b      	negs	r3, r3
10002c92:	0019      	movs	r1, r3
10002c94:	4a09      	ldr	r2, [pc, #36]	; (10002cbc <multicore_launch_core1+0x38>)
10002c96:	5098      	str	r0, [r3, r2]
10002c98:	3204      	adds	r2, #4
10002c9a:	509b      	str	r3, [r3, r2]
10002c9c:	4a08      	ldr	r2, [pc, #32]	; (10002cc0 <multicore_launch_core1+0x3c>)
10002c9e:	4b09      	ldr	r3, [pc, #36]	; (10002cc4 <multicore_launch_core1+0x40>)
10002ca0:	4809      	ldr	r0, [pc, #36]	; (10002cc8 <multicore_launch_core1+0x44>)
10002ca2:	50ca      	str	r2, [r1, r3]
10002ca4:	4b09      	ldr	r3, [pc, #36]	; (10002ccc <multicore_launch_core1+0x48>)
10002ca6:	689a      	ldr	r2, [r3, #8]
10002ca8:	4b04      	ldr	r3, [pc, #16]	; (10002cbc <multicore_launch_core1+0x38>)
10002caa:	469c      	mov	ip, r3
10002cac:	4461      	add	r1, ip
10002cae:	f7ff ffa7 	bl	10002c00 <multicore_launch_core1_raw>
10002cb2:	bd10      	pop	{r4, pc}
10002cb4:	20040800 	.word	0x20040800
10002cb8:	20040000 	.word	0x20040000
10002cbc:	000007f4 	.word	0x000007f4
10002cc0:	10002bc5 	.word	0x10002bc5
10002cc4:	000007fc 	.word	0x000007fc
10002cc8:	10002bc1 	.word	0x10002bc1
10002ccc:	e000ed00 	.word	0xe000ed00

10002cd0 <_retrieve_unique_id_on_boot>:
10002cd0:	b510      	push	{r4, lr}
10002cd2:	4802      	ldr	r0, [pc, #8]	; (10002cdc <_retrieve_unique_id_on_boot+0xc>)
10002cd4:	f000 f80c 	bl	10002cf0 <flash_get_unique_id>
10002cd8:	bd10      	pop	{r4, pc}
10002cda:	46c0      	nop			; (mov r8, r8)
10002cdc:	20001ec0 	.word	0x20001ec0

10002ce0 <pico_get_unique_board_id>:
10002ce0:	b510      	push	{r4, lr}
10002ce2:	2208      	movs	r2, #8
10002ce4:	4901      	ldr	r1, [pc, #4]	; (10002cec <pico_get_unique_board_id+0xc>)
10002ce6:	f7ff fc15 	bl	10002514 <__wrap___aeabi_memcpy>
10002cea:	bd10      	pop	{r4, pc}
10002cec:	20001ec0 	.word	0x20001ec0

10002cf0 <flash_get_unique_id>:
10002cf0:	b530      	push	{r4, r5, lr}
10002cf2:	2500      	movs	r5, #0
10002cf4:	b089      	sub	sp, #36	; 0x24
10002cf6:	0004      	movs	r4, r0
10002cf8:	2209      	movs	r2, #9
10002cfa:	2100      	movs	r1, #0
10002cfc:	a801      	add	r0, sp, #4
10002cfe:	9500      	str	r5, [sp, #0]
10002d00:	f7ff fc02 	bl	10002508 <__wrap_memset>
10002d04:	2209      	movs	r2, #9
10002d06:	2100      	movs	r1, #0
10002d08:	a805      	add	r0, sp, #20
10002d0a:	9504      	str	r5, [sp, #16]
10002d0c:	f7ff fbfc 	bl	10002508 <__wrap_memset>
10002d10:	234b      	movs	r3, #75	; 0x4b
10002d12:	466a      	mov	r2, sp
10002d14:	4668      	mov	r0, sp
10002d16:	7013      	strb	r3, [r2, #0]
10002d18:	a904      	add	r1, sp, #16
10002d1a:	220d      	movs	r2, #13
10002d1c:	f001 fc64 	bl	100045e8 <__flash_do_cmd_veneer>
10002d20:	2115      	movs	r1, #21
10002d22:	2208      	movs	r2, #8
10002d24:	0020      	movs	r0, r4
10002d26:	4469      	add	r1, sp
10002d28:	f7ff fbf4 	bl	10002514 <__wrap___aeabi_memcpy>
10002d2c:	b009      	add	sp, #36	; 0x24
10002d2e:	bd30      	pop	{r4, r5, pc}

10002d30 <dcd_int_enable>:
10002d30:	b510      	push	{r4, lr}
10002d32:	2101      	movs	r1, #1
10002d34:	2005      	movs	r0, #5
10002d36:	f7fd fe31 	bl	1000099c <irq_set_enabled>
10002d3a:	bd10      	pop	{r4, pc}

10002d3c <dcd_set_address>:
10002d3c:	b510      	push	{r4, lr}
10002d3e:	2200      	movs	r2, #0
10002d40:	2100      	movs	r1, #0
10002d42:	4802      	ldr	r0, [pc, #8]	; (10002d4c <dcd_set_address+0x10>)
10002d44:	f000 f95c 	bl	10003000 <hw_endpoint_xfer_start>
10002d48:	bd10      	pop	{r4, pc}
10002d4a:	46c0      	nop			; (mov r8, r8)
10002d4c:	20001ac8 	.word	0x20001ac8

10002d50 <dcd_connect>:
10002d50:	2280      	movs	r2, #128	; 0x80
10002d52:	4b02      	ldr	r3, [pc, #8]	; (10002d5c <dcd_connect+0xc>)
10002d54:	0252      	lsls	r2, r2, #9
10002d56:	64da      	str	r2, [r3, #76]	; 0x4c
10002d58:	4770      	bx	lr
10002d5a:	46c0      	nop			; (mov r8, r8)
10002d5c:	50112000 	.word	0x50112000

10002d60 <dcd_init>:
10002d60:	b5f0      	push	{r4, r5, r6, r7, lr}
10002d62:	46c6      	mov	lr, r8
10002d64:	b500      	push	{lr}
10002d66:	0006      	movs	r6, r0
10002d68:	f000 f924 	bl	10002fb4 <rp2040_usb_init>
10002d6c:	230c      	movs	r3, #12
10002d6e:	4d1c      	ldr	r5, [pc, #112]	; (10002de0 <dcd_init+0x80>)
10002d70:	22ff      	movs	r2, #255	; 0xff
10002d72:	67ab      	str	r3, [r5, #120]	; 0x78
10002d74:	2005      	movs	r0, #5
10002d76:	491b      	ldr	r1, [pc, #108]	; (10002de4 <dcd_init+0x84>)
10002d78:	f7fd fe60 	bl	10000a3c <irq_add_shared_handler>
10002d7c:	2340      	movs	r3, #64	; 0x40
10002d7e:	4698      	mov	r8, r3
10002d80:	4c19      	ldr	r4, [pc, #100]	; (10002de8 <dcd_init+0x88>)
10002d82:	2240      	movs	r2, #64	; 0x40
10002d84:	2100      	movs	r1, #0
10002d86:	0020      	movs	r0, r4
10002d88:	f7ff fbbe 	bl	10002508 <__wrap_memset>
10002d8c:	4641      	mov	r1, r8
10002d8e:	2300      	movs	r3, #0
10002d90:	2701      	movs	r7, #1
10002d92:	2200      	movs	r2, #0
10002d94:	2021      	movs	r0, #33	; 0x21
10002d96:	8321      	strh	r1, [r4, #24]
10002d98:	4914      	ldr	r1, [pc, #80]	; (10002dec <dcd_init+0x8c>)
10002d9a:	7067      	strb	r7, [r4, #1]
10002d9c:	8063      	strh	r3, [r4, #2]
10002d9e:	76e2      	strb	r2, [r4, #27]
10002da0:	60a1      	str	r1, [r4, #8]
10002da2:	600b      	str	r3, [r1, #0]
10002da4:	5422      	strb	r2, [r4, r0]
10002da6:	305f      	adds	r0, #95	; 0x5f
10002da8:	8460      	strh	r0, [r4, #34]	; 0x22
10002daa:	4640      	mov	r0, r8
10002dac:	8720      	strh	r0, [r4, #56]	; 0x38
10002dae:	3805      	subs	r0, #5
10002db0:	490f      	ldr	r1, [pc, #60]	; (10002df0 <dcd_init+0x90>)
10002db2:	5422      	strb	r2, [r4, r0]
10002db4:	4a0f      	ldr	r2, [pc, #60]	; (10002df4 <dcd_init+0x94>)
10002db6:	6063      	str	r3, [r4, #4]
10002db8:	60e1      	str	r1, [r4, #12]
10002dba:	62a2      	str	r2, [r4, #40]	; 0x28
10002dbc:	6013      	str	r3, [r2, #0]
10002dbe:	6263      	str	r3, [r4, #36]	; 0x24
10002dc0:	62e1      	str	r1, [r4, #44]	; 0x2c
10002dc2:	f001 fc29 	bl	10004618 <__reset_non_control_endpoints_veneer>
10002dc6:	2380      	movs	r3, #128	; 0x80
10002dc8:	059b      	lsls	r3, r3, #22
10002dca:	642f      	str	r7, [r5, #64]	; 0x40
10002dcc:	64eb      	str	r3, [r5, #76]	; 0x4c
10002dce:	2390      	movs	r3, #144	; 0x90
10002dd0:	4a09      	ldr	r2, [pc, #36]	; (10002df8 <dcd_init+0x98>)
10002dd2:	0030      	movs	r0, r6
10002dd4:	50ea      	str	r2, [r5, r3]
10002dd6:	f7ff ffbb 	bl	10002d50 <dcd_connect>
10002dda:	bc04      	pop	{r2}
10002ddc:	4690      	mov	r8, r2
10002dde:	bdf0      	pop	{r4, r5, r6, r7, pc}
10002de0:	50110000 	.word	0x50110000
10002de4:	20000aad 	.word	0x20000aad
10002de8:	20001aa8 	.word	0x20001aa8
10002dec:	50100084 	.word	0x50100084
10002df0:	50100100 	.word	0x50100100
10002df4:	50100080 	.word	0x50100080
10002df8:	0001d010 	.word	0x0001d010

10002dfc <dcd_edpt0_status_complete>:
10002dfc:	780b      	ldrb	r3, [r1, #0]
10002dfe:	065b      	lsls	r3, r3, #25
10002e00:	d102      	bne.n	10002e08 <dcd_edpt0_status_complete+0xc>
10002e02:	784b      	ldrb	r3, [r1, #1]
10002e04:	2b05      	cmp	r3, #5
10002e06:	d000      	beq.n	10002e0a <dcd_edpt0_status_complete+0xe>
10002e08:	4770      	bx	lr
10002e0a:	788a      	ldrb	r2, [r1, #2]
10002e0c:	4b01      	ldr	r3, [pc, #4]	; (10002e14 <dcd_edpt0_status_complete+0x18>)
10002e0e:	601a      	str	r2, [r3, #0]
10002e10:	e7fa      	b.n	10002e08 <dcd_edpt0_status_complete+0xc>
10002e12:	46c0      	nop			; (mov r8, r8)
10002e14:	50110000 	.word	0x50110000

10002e18 <dcd_edpt_open>:
10002e18:	b5f0      	push	{r4, r5, r6, r7, lr}
10002e1a:	46c6      	mov	lr, r8
10002e1c:	b500      	push	{lr}
10002e1e:	78cc      	ldrb	r4, [r1, #3]
10002e20:	7888      	ldrb	r0, [r1, #2]
10002e22:	790a      	ldrb	r2, [r1, #4]
10002e24:	794b      	ldrb	r3, [r1, #5]
10002e26:	217f      	movs	r1, #127	; 0x7f
10002e28:	07a4      	lsls	r4, r4, #30
10002e2a:	4001      	ands	r1, r0
10002e2c:	021b      	lsls	r3, r3, #8
10002e2e:	09c5      	lsrs	r5, r0, #7
10002e30:	4313      	orrs	r3, r2
10002e32:	004f      	lsls	r7, r1, #1
10002e34:	0fa2      	lsrs	r2, r4, #30
10002e36:	0014      	movs	r4, r2
10002e38:	4e32      	ldr	r6, [pc, #200]	; (10002f04 <dcd_edpt_open+0xec>)
10002e3a:	197a      	adds	r2, r7, r5
10002e3c:	0152      	lsls	r2, r2, #5
10002e3e:	18b2      	adds	r2, r6, r2
10002e40:	7090      	strb	r0, [r2, #2]
10002e42:	2001      	movs	r0, #1
10002e44:	4068      	eors	r0, r5
10002e46:	7050      	strb	r0, [r2, #1]
10002e48:	2000      	movs	r0, #0
10002e4a:	055b      	lsls	r3, r3, #21
10002e4c:	0d5b      	lsrs	r3, r3, #21
10002e4e:	70d0      	strb	r0, [r2, #3]
10002e50:	8313      	strh	r3, [r2, #24]
10002e52:	76d4      	strb	r4, [r2, #27]
10002e54:	4680      	mov	r8, r0
10002e56:	00ca      	lsls	r2, r1, #3
10002e58:	2d01      	cmp	r5, #1
10002e5a:	d033      	beq.n	10002ec4 <dcd_edpt_open+0xac>
10002e5c:	482a      	ldr	r0, [pc, #168]	; (10002f08 <dcd_edpt_open+0xf0>)
10002e5e:	4684      	mov	ip, r0
10002e60:	0188      	lsls	r0, r1, #6
10002e62:	4462      	add	r2, ip
10002e64:	4684      	mov	ip, r0
10002e66:	44b4      	add	ip, r6
10002e68:	4660      	mov	r0, ip
10002e6a:	6082      	str	r2, [r0, #8]
10002e6c:	4640      	mov	r0, r8
10002e6e:	6010      	str	r0, [r2, #0]
10002e70:	2900      	cmp	r1, #0
10002e72:	d033      	beq.n	10002edc <dcd_edpt_open+0xc4>
10002e74:	4a25      	ldr	r2, [pc, #148]	; (10002f0c <dcd_edpt_open+0xf4>)
10002e76:	00c9      	lsls	r1, r1, #3
10002e78:	4690      	mov	r8, r2
10002e7a:	4662      	mov	r2, ip
10002e7c:	4441      	add	r1, r8
10002e7e:	6051      	str	r1, [r2, #4]
10002e80:	223f      	movs	r2, #63	; 0x3f
10002e82:	333f      	adds	r3, #63	; 0x3f
10002e84:	4393      	bics	r3, r2
10002e86:	2c02      	cmp	r4, #2
10002e88:	d100      	bne.n	10002e8c <dcd_edpt_open+0x74>
10002e8a:	005b      	lsls	r3, r3, #1
10002e8c:	4820      	ldr	r0, [pc, #128]	; (10002f10 <dcd_edpt_open+0xf8>)
10002e8e:	197a      	adds	r2, r7, r5
10002e90:	6801      	ldr	r1, [r0, #0]
10002e92:	0152      	lsls	r2, r2, #5
10002e94:	18b2      	adds	r2, r6, r2
10002e96:	60d1      	str	r1, [r2, #12]
10002e98:	4a1e      	ldr	r2, [pc, #120]	; (10002f14 <dcd_edpt_open+0xfc>)
10002e9a:	18cb      	adds	r3, r1, r3
10002e9c:	6003      	str	r3, [r0, #0]
10002e9e:	4051      	eors	r1, r2
10002ea0:	4053      	eors	r3, r2
10002ea2:	2280      	movs	r2, #128	; 0x80
10002ea4:	4688      	mov	r8, r1
10002ea6:	0152      	lsls	r2, r2, #5
10002ea8:	4293      	cmp	r3, r2
10002eaa:	d828      	bhi.n	10002efe <dcd_edpt_open+0xe6>
10002eac:	4643      	mov	r3, r8
10002eae:	06a4      	lsls	r4, r4, #26
10002eb0:	431c      	orrs	r4, r3
10002eb2:	2380      	movs	r3, #128	; 0x80
10002eb4:	197f      	adds	r7, r7, r5
10002eb6:	017f      	lsls	r7, r7, #5
10002eb8:	061b      	lsls	r3, r3, #24
10002eba:	19f6      	adds	r6, r6, r7
10002ebc:	431c      	orrs	r4, r3
10002ebe:	6873      	ldr	r3, [r6, #4]
10002ec0:	601c      	str	r4, [r3, #0]
10002ec2:	e011      	b.n	10002ee8 <dcd_edpt_open+0xd0>
10002ec4:	4814      	ldr	r0, [pc, #80]	; (10002f18 <dcd_edpt_open+0x100>)
10002ec6:	4684      	mov	ip, r0
10002ec8:	0188      	lsls	r0, r1, #6
10002eca:	4462      	add	r2, ip
10002ecc:	4684      	mov	ip, r0
10002ece:	44b4      	add	ip, r6
10002ed0:	4660      	mov	r0, ip
10002ed2:	6282      	str	r2, [r0, #40]	; 0x28
10002ed4:	4640      	mov	r0, r8
10002ed6:	6010      	str	r0, [r2, #0]
10002ed8:	2900      	cmp	r1, #0
10002eda:	d109      	bne.n	10002ef0 <dcd_edpt_open+0xd8>
10002edc:	2300      	movs	r3, #0
10002ede:	016d      	lsls	r5, r5, #5
10002ee0:	1976      	adds	r6, r6, r5
10002ee2:	6073      	str	r3, [r6, #4]
10002ee4:	4b0d      	ldr	r3, [pc, #52]	; (10002f1c <dcd_edpt_open+0x104>)
10002ee6:	60f3      	str	r3, [r6, #12]
10002ee8:	2001      	movs	r0, #1
10002eea:	bc04      	pop	{r2}
10002eec:	4690      	mov	r8, r2
10002eee:	bdf0      	pop	{r4, r5, r6, r7, pc}
10002ef0:	4a08      	ldr	r2, [pc, #32]	; (10002f14 <dcd_edpt_open+0xfc>)
10002ef2:	00c9      	lsls	r1, r1, #3
10002ef4:	4690      	mov	r8, r2
10002ef6:	4662      	mov	r2, ip
10002ef8:	4441      	add	r1, r8
10002efa:	6251      	str	r1, [r2, #36]	; 0x24
10002efc:	e7c0      	b.n	10002e80 <dcd_edpt_open+0x68>
10002efe:	f7ff f99b 	bl	10002238 <hard_assertion_failure>
10002f02:	e7d3      	b.n	10002eac <dcd_edpt_open+0x94>
10002f04:	20001aa8 	.word	0x20001aa8
10002f08:	50100084 	.word	0x50100084
10002f0c:	50100004 	.word	0x50100004
10002f10:	20001eac 	.word	0x20001eac
10002f14:	50100000 	.word	0x50100000
10002f18:	50100080 	.word	0x50100080
10002f1c:	50100100 	.word	0x50100100

10002f20 <dcd_edpt_close_all>:
10002f20:	b510      	push	{r4, lr}
10002f22:	f001 fb79 	bl	10004618 <__reset_non_control_endpoints_veneer>
10002f26:	bd10      	pop	{r4, pc}

10002f28 <dcd_edpt_xfer>:
10002f28:	b510      	push	{r4, lr}
10002f2a:	207f      	movs	r0, #127	; 0x7f
10002f2c:	000c      	movs	r4, r1
10002f2e:	4020      	ands	r0, r4
10002f30:	0040      	lsls	r0, r0, #1
10002f32:	09e4      	lsrs	r4, r4, #7
10002f34:	0011      	movs	r1, r2
10002f36:	1900      	adds	r0, r0, r4
10002f38:	001a      	movs	r2, r3
10002f3a:	4b03      	ldr	r3, [pc, #12]	; (10002f48 <dcd_edpt_xfer+0x20>)
10002f3c:	0140      	lsls	r0, r0, #5
10002f3e:	18c0      	adds	r0, r0, r3
10002f40:	f000 f85e 	bl	10003000 <hw_endpoint_xfer_start>
10002f44:	2001      	movs	r0, #1
10002f46:	bd10      	pop	{r4, pc}
10002f48:	20001aa8 	.word	0x20001aa8

10002f4c <dcd_edpt_stall>:
10002f4c:	237f      	movs	r3, #127	; 0x7f
10002f4e:	0018      	movs	r0, r3
10002f50:	b510      	push	{r4, lr}
10002f52:	4008      	ands	r0, r1
10002f54:	420b      	tst	r3, r1
10002f56:	d00b      	beq.n	10002f70 <dcd_edpt_stall+0x24>
10002f58:	09c9      	lsrs	r1, r1, #7
10002f5a:	2280      	movs	r2, #128	; 0x80
10002f5c:	0040      	lsls	r0, r0, #1
10002f5e:	1840      	adds	r0, r0, r1
10002f60:	4906      	ldr	r1, [pc, #24]	; (10002f7c <dcd_edpt_stall+0x30>)
10002f62:	0140      	lsls	r0, r0, #5
10002f64:	1840      	adds	r0, r0, r1
10002f66:	0112      	lsls	r2, r2, #4
10002f68:	2100      	movs	r1, #0
10002f6a:	f001 fb95 	bl	10004698 <___hw_endpoint_buffer_control_update32_veneer>
10002f6e:	bd10      	pop	{r4, pc}
10002f70:	2302      	movs	r3, #2
10002f72:	4a03      	ldr	r2, [pc, #12]	; (10002f80 <dcd_edpt_stall+0x34>)
10002f74:	09c9      	lsrs	r1, r1, #7
10002f76:	1a5b      	subs	r3, r3, r1
10002f78:	6693      	str	r3, [r2, #104]	; 0x68
10002f7a:	e7ee      	b.n	10002f5a <dcd_edpt_stall+0xe>
10002f7c:	20001aa8 	.word	0x20001aa8
10002f80:	50112000 	.word	0x50112000

10002f84 <dcd_edpt_clear_stall>:
10002f84:	237f      	movs	r3, #127	; 0x7f
10002f86:	0018      	movs	r0, r3
10002f88:	b510      	push	{r4, lr}
10002f8a:	4008      	ands	r0, r1
10002f8c:	420b      	tst	r3, r1
10002f8e:	d100      	bne.n	10002f92 <dcd_edpt_clear_stall+0xe>
10002f90:	bd10      	pop	{r4, pc}
10002f92:	2300      	movs	r3, #0
10002f94:	0040      	lsls	r0, r0, #1
10002f96:	09c9      	lsrs	r1, r1, #7
10002f98:	1841      	adds	r1, r0, r1
10002f9a:	4804      	ldr	r0, [pc, #16]	; (10002fac <dcd_edpt_clear_stall+0x28>)
10002f9c:	0149      	lsls	r1, r1, #5
10002f9e:	1840      	adds	r0, r0, r1
10002fa0:	2200      	movs	r2, #0
10002fa2:	4903      	ldr	r1, [pc, #12]	; (10002fb0 <dcd_edpt_clear_stall+0x2c>)
10002fa4:	70c3      	strb	r3, [r0, #3]
10002fa6:	f001 fb77 	bl	10004698 <___hw_endpoint_buffer_control_update32_veneer>
10002faa:	e7f1      	b.n	10002f90 <dcd_edpt_clear_stall+0xc>
10002fac:	20001aa8 	.word	0x20001aa8
10002fb0:	fffff7ff 	.word	0xfffff7ff

10002fb4 <rp2040_usb_init>:
10002fb4:	2280      	movs	r2, #128	; 0x80
10002fb6:	4b0d      	ldr	r3, [pc, #52]	; (10002fec <rp2040_usb_init+0x38>)
10002fb8:	0452      	lsls	r2, r2, #17
10002fba:	b510      	push	{r4, lr}
10002fbc:	601a      	str	r2, [r3, #0]
10002fbe:	4b0c      	ldr	r3, [pc, #48]	; (10002ff0 <rp2040_usb_init+0x3c>)
10002fc0:	490c      	ldr	r1, [pc, #48]	; (10002ff4 <rp2040_usb_init+0x40>)
10002fc2:	601a      	str	r2, [r3, #0]
10002fc4:	0010      	movs	r0, r2
10002fc6:	688b      	ldr	r3, [r1, #8]
10002fc8:	4398      	bics	r0, r3
10002fca:	d1fb      	bne.n	10002fc4 <rp2040_usb_init+0x10>
10002fcc:	4c0a      	ldr	r4, [pc, #40]	; (10002ff8 <rp2040_usb_init+0x44>)
10002fce:	229c      	movs	r2, #156	; 0x9c
10002fd0:	2100      	movs	r1, #0
10002fd2:	0020      	movs	r0, r4
10002fd4:	f7ff fa98 	bl	10002508 <__wrap_memset>
10002fd8:	2280      	movs	r2, #128	; 0x80
10002fda:	2100      	movs	r1, #0
10002fdc:	0152      	lsls	r2, r2, #5
10002fde:	4807      	ldr	r0, [pc, #28]	; (10002ffc <rp2040_usb_init+0x48>)
10002fe0:	f7ff fa92 	bl	10002508 <__wrap_memset>
10002fe4:	2309      	movs	r3, #9
10002fe6:	6763      	str	r3, [r4, #116]	; 0x74
10002fe8:	bd10      	pop	{r4, pc}
10002fea:	46c0      	nop			; (mov r8, r8)
10002fec:	4000e000 	.word	0x4000e000
10002ff0:	4000f000 	.word	0x4000f000
10002ff4:	4000c000 	.word	0x4000c000
10002ff8:	50110000 	.word	0x50110000
10002ffc:	50100000 	.word	0x50100000

10003000 <hw_endpoint_xfer_start>:
10003000:	b570      	push	{r4, r5, r6, lr}
10003002:	7e83      	ldrb	r3, [r0, #26]
10003004:	0004      	movs	r4, r0
10003006:	000d      	movs	r5, r1
10003008:	0016      	movs	r6, r2
1000300a:	2b00      	cmp	r3, #0
1000300c:	d119      	bne.n	10003042 <hw_endpoint_xfer_start+0x42>
1000300e:	2300      	movs	r3, #0
10003010:	0021      	movs	r1, r4
10003012:	82e3      	strh	r3, [r4, #22]
10003014:	3301      	adds	r3, #1
10003016:	82a6      	strh	r6, [r4, #20]
10003018:	76a3      	strb	r3, [r4, #26]
1000301a:	6125      	str	r5, [r4, #16]
1000301c:	1ca0      	adds	r0, r4, #2
1000301e:	311b      	adds	r1, #27
10003020:	f001 fb2a 	bl	10004678 <__e15_is_bulkin_ep.isra.0_veneer>
10003024:	2800      	cmp	r0, #0
10003026:	d004      	beq.n	10003032 <hw_endpoint_xfer_start+0x32>
10003028:	2180      	movs	r1, #128	; 0x80
1000302a:	2390      	movs	r3, #144	; 0x90
1000302c:	4a08      	ldr	r2, [pc, #32]	; (10003050 <hw_endpoint_xfer_start+0x50>)
1000302e:	0289      	lsls	r1, r1, #10
10003030:	50d1      	str	r1, [r2, r3]
10003032:	0020      	movs	r0, r4
10003034:	f001 fb18 	bl	10004668 <__e15_is_critical_frame_period_veneer>
10003038:	2800      	cmp	r0, #0
1000303a:	d005      	beq.n	10003048 <hw_endpoint_xfer_start+0x48>
1000303c:	2301      	movs	r3, #1
1000303e:	7723      	strb	r3, [r4, #28]
10003040:	bd70      	pop	{r4, r5, r6, pc}
10003042:	f001 fb21 	bl	10004688 <__hw_endpoint_reset_transfer_veneer>
10003046:	e7e2      	b.n	1000300e <hw_endpoint_xfer_start+0xe>
10003048:	0020      	movs	r0, r4
1000304a:	f001 fb05 	bl	10004658 <__hw_endpoint_start_next_buffer_veneer>
1000304e:	e7f7      	b.n	10003040 <hw_endpoint_xfer_start+0x40>
10003050:	50112000 	.word	0x50112000

10003054 <tud_inited>:
10003054:	4b03      	ldr	r3, [pc, #12]	; (10003064 <tud_inited+0x10>)
10003056:	7818      	ldrb	r0, [r3, #0]
10003058:	38ff      	subs	r0, #255	; 0xff
1000305a:	1e43      	subs	r3, r0, #1
1000305c:	4198      	sbcs	r0, r3
1000305e:	b2c0      	uxtb	r0, r0
10003060:	4770      	bx	lr
10003062:	46c0      	nop			; (mov r8, r8)
10003064:	2000154c 	.word	0x2000154c

10003068 <tud_init>:
10003068:	b5f8      	push	{r3, r4, r5, r6, r7, lr}
1000306a:	46ce      	mov	lr, r9
1000306c:	4647      	mov	r7, r8
1000306e:	b580      	push	{r7, lr}
10003070:	4e2c      	ldr	r6, [pc, #176]	; (10003124 <tud_init+0xbc>)
10003072:	0005      	movs	r5, r0
10003074:	7833      	ldrb	r3, [r6, #0]
10003076:	2001      	movs	r0, #1
10003078:	2bff      	cmp	r3, #255	; 0xff
1000307a:	d003      	beq.n	10003084 <tud_init+0x1c>
1000307c:	bc0c      	pop	{r2, r3}
1000307e:	4690      	mov	r8, r2
10003080:	4699      	mov	r9, r3
10003082:	bdf8      	pop	{r3, r4, r5, r6, r7, pc}
10003084:	2253      	movs	r2, #83	; 0x53
10003086:	2100      	movs	r1, #0
10003088:	4827      	ldr	r0, [pc, #156]	; (10003128 <tud_init+0xc0>)
1000308a:	f7ff fa3d 	bl	10002508 <__wrap_memset>
1000308e:	4c27      	ldr	r4, [pc, #156]	; (1000312c <tud_init+0xc4>)
10003090:	0020      	movs	r0, r4
10003092:	f7fd ff01 	bl	10000e98 <mutex_init>
10003096:	4b26      	ldr	r3, [pc, #152]	; (10003130 <tud_init+0xc8>)
10003098:	601c      	str	r4, [r3, #0]
1000309a:	4c26      	ldr	r4, [pc, #152]	; (10003134 <tud_init+0xcc>)
1000309c:	0020      	movs	r0, r4
1000309e:	3014      	adds	r0, #20
100030a0:	f7fd ff16 	bl	10000ed0 <critical_section_init>
100030a4:	0020      	movs	r0, r4
100030a6:	f001 fa27 	bl	100044f8 <tu_fifo_clear>
100030aa:	4b23      	ldr	r3, [pc, #140]	; (10003138 <tud_init+0xd0>)
100030ac:	4f23      	ldr	r7, [pc, #140]	; (1000313c <tud_init+0xd4>)
100030ae:	601c      	str	r4, [r3, #0]
100030b0:	4b23      	ldr	r3, [pc, #140]	; (10003140 <tud_init+0xd8>)
100030b2:	4698      	mov	r8, r3
100030b4:	2b00      	cmp	r3, #0
100030b6:	d004      	beq.n	100030c2 <tud_init+0x5a>
100030b8:	0038      	movs	r0, r7
100030ba:	e000      	b.n	100030be <tud_init+0x56>
100030bc:	bf00      	nop
100030be:	4b21      	ldr	r3, [pc, #132]	; (10003144 <tud_init+0xdc>)
100030c0:	6018      	str	r0, [r3, #0]
100030c2:	4642      	mov	r2, r8
100030c4:	2400      	movs	r4, #0
100030c6:	783b      	ldrb	r3, [r7, #0]
100030c8:	2a00      	cmp	r2, #0
100030ca:	d023      	beq.n	10003114 <tud_init+0xac>
100030cc:	4a1e      	ldr	r2, [pc, #120]	; (10003148 <tud_init+0xe0>)
100030ce:	4690      	mov	r8, r2
100030d0:	4a1c      	ldr	r2, [pc, #112]	; (10003144 <tud_init+0xdc>)
100030d2:	4691      	mov	r9, r2
100030d4:	42a3      	cmp	r3, r4
100030d6:	d812      	bhi.n	100030fe <tud_init+0x96>
100030d8:	d10f      	bne.n	100030fa <tud_init+0x92>
100030da:	4643      	mov	r3, r8
100030dc:	4798      	blx	r3
100030de:	3401      	adds	r4, #1
100030e0:	783b      	ldrb	r3, [r7, #0]
100030e2:	b2e4      	uxtb	r4, r4
100030e4:	42a3      	cmp	r3, r4
100030e6:	d2f5      	bcs.n	100030d4 <tud_init+0x6c>
100030e8:	0028      	movs	r0, r5
100030ea:	7035      	strb	r5, [r6, #0]
100030ec:	f7ff fe38 	bl	10002d60 <dcd_init>
100030f0:	0028      	movs	r0, r5
100030f2:	f7ff fe1d 	bl	10002d30 <dcd_int_enable>
100030f6:	2001      	movs	r0, #1
100030f8:	e7c0      	b.n	1000307c <tud_init+0x14>
100030fa:	2000      	movs	r0, #0
100030fc:	e7be      	b.n	1000307c <tud_init+0x14>
100030fe:	464a      	mov	r2, r9
10003100:	6812      	ldr	r2, [r2, #0]
10003102:	0063      	lsls	r3, r4, #1
10003104:	4694      	mov	ip, r2
10003106:	191b      	adds	r3, r3, r4
10003108:	00db      	lsls	r3, r3, #3
1000310a:	4463      	add	r3, ip
1000310c:	2b00      	cmp	r3, #0
1000310e:	d0f4      	beq.n	100030fa <tud_init+0x92>
10003110:	681b      	ldr	r3, [r3, #0]
10003112:	e7e3      	b.n	100030dc <tud_init+0x74>
10003114:	f000 fe82 	bl	10003e1c <vendord_init>
10003118:	783b      	ldrb	r3, [r7, #0]
1000311a:	2000      	movs	r0, #0
1000311c:	2b00      	cmp	r3, #0
1000311e:	d1ad      	bne.n	1000307c <tud_init+0x14>
10003120:	e7e2      	b.n	100030e8 <tud_init+0x80>
10003122:	46c0      	nop			; (mov r8, r8)
10003124:	2000154c 	.word	0x2000154c
10003128:	20001734 	.word	0x20001734
1000312c:	200016ec 	.word	0x200016ec
10003130:	20001788 	.word	0x20001788
10003134:	20001530 	.word	0x20001530
10003138:	2000178c 	.word	0x2000178c
1000313c:	20001f16 	.word	0x20001f16
10003140:	00000000 	.word	0x00000000
10003144:	20001694 	.word	0x20001694
10003148:	10003e1d 	.word	0x10003e1d

1000314c <tud_task_ext>:
1000314c:	b5f0      	push	{r4, r5, r6, r7, lr}
1000314e:	46de      	mov	lr, fp
10003150:	4657      	mov	r7, sl
10003152:	464e      	mov	r6, r9
10003154:	4645      	mov	r5, r8
10003156:	b5e0      	push	{r5, r6, r7, lr}
10003158:	b08d      	sub	sp, #52	; 0x34
1000315a:	f000 ff59 	bl	10004010 <tusb_inited>
1000315e:	2800      	cmp	r0, #0
10003160:	d100      	bne.n	10003164 <tud_task_ext+0x18>
10003162:	e10e      	b.n	10003382 <tud_task_ext+0x236>
10003164:	4bce      	ldr	r3, [pc, #824]	; (100034a0 <tud_task_ext+0x354>)
10003166:	4fcf      	ldr	r7, [pc, #828]	; (100034a4 <tud_task_ext+0x358>)
10003168:	469a      	mov	sl, r3
1000316a:	4dcf      	ldr	r5, [pc, #828]	; (100034a8 <tud_task_ext+0x35c>)
1000316c:	ac09      	add	r4, sp, #36	; 0x24
1000316e:	683e      	ldr	r6, [r7, #0]
10003170:	6972      	ldr	r2, [r6, #20]
10003172:	f3ef 8110 	mrs	r1, PRIMASK
10003176:	b672      	cpsid	i
10003178:	6813      	ldr	r3, [r2, #0]
1000317a:	2b00      	cmp	r3, #0
1000317c:	d0fc      	beq.n	10003178 <tud_task_ext+0x2c>
1000317e:	f3bf 8f5f 	dmb	sy
10003182:	61b1      	str	r1, [r6, #24]
10003184:	0030      	movs	r0, r6
10003186:	0021      	movs	r1, r4
10003188:	f001 f800 	bl	1000418c <tu_fifo_read>
1000318c:	6972      	ldr	r2, [r6, #20]
1000318e:	69b3      	ldr	r3, [r6, #24]
10003190:	f3bf 8f5f 	dmb	sy
10003194:	2100      	movs	r1, #0
10003196:	6011      	str	r1, [r2, #0]
10003198:	f383 8810 	msr	PRIMASK, r3
1000319c:	2800      	cmp	r0, #0
1000319e:	d100      	bne.n	100031a2 <tud_task_ext+0x56>
100031a0:	e0ef      	b.n	10003382 <tud_task_ext+0x236>
100031a2:	7863      	ldrb	r3, [r4, #1]
100031a4:	2b08      	cmp	r3, #8
100031a6:	d8e2      	bhi.n	1000316e <tud_task_ext+0x22>
100031a8:	4652      	mov	r2, sl
100031aa:	009b      	lsls	r3, r3, #2
100031ac:	58d3      	ldr	r3, [r2, r3]
100031ae:	469f      	mov	pc, r3
100031b0:	6863      	ldr	r3, [r4, #4]
100031b2:	2b00      	cmp	r3, #0
100031b4:	d0db      	beq.n	1000316e <tud_task_ext+0x22>
100031b6:	68a0      	ldr	r0, [r4, #8]
100031b8:	4798      	blx	r3
100031ba:	e7d8      	b.n	1000316e <tud_task_ext+0x22>
100031bc:	227f      	movs	r2, #127	; 0x7f
100031be:	7921      	ldrb	r1, [r4, #4]
100031c0:	4eb9      	ldr	r6, [pc, #740]	; (100034a8 <tud_task_ext+0x35c>)
100031c2:	400a      	ands	r2, r1
100031c4:	0050      	lsls	r0, r2, #1
100031c6:	1836      	adds	r6, r6, r0
100031c8:	46b0      	mov	r8, r6
100031ca:	09cb      	lsrs	r3, r1, #7
100031cc:	4498      	add	r8, r3
100031ce:	4640      	mov	r0, r8
100031d0:	2601      	movs	r6, #1
100031d2:	3030      	adds	r0, #48	; 0x30
100031d4:	78c3      	ldrb	r3, [r0, #3]
100031d6:	43b3      	bics	r3, r6
100031d8:	70c3      	strb	r3, [r0, #3]
100031da:	78c3      	ldrb	r3, [r0, #3]
100031dc:	3603      	adds	r6, #3
100031de:	43b3      	bics	r3, r6
100031e0:	70c3      	strb	r3, [r0, #3]
100031e2:	2a00      	cmp	r2, #0
100031e4:	d100      	bne.n	100031e8 <tud_task_ext+0x9c>
100031e6:	e0f1      	b.n	100033cc <tud_task_ext+0x280>
100031e8:	4643      	mov	r3, r8
100031ea:	4ab0      	ldr	r2, [pc, #704]	; (100034ac <tud_task_ext+0x360>)
100031ec:	7cdb      	ldrb	r3, [r3, #19]
100031ee:	2a00      	cmp	r2, #0
100031f0:	d006      	beq.n	10003200 <tud_task_ext+0xb4>
100031f2:	4aaf      	ldr	r2, [pc, #700]	; (100034b0 <tud_task_ext+0x364>)
100031f4:	7812      	ldrb	r2, [r2, #0]
100031f6:	4293      	cmp	r3, r2
100031f8:	d200      	bcs.n	100031fc <tud_task_ext+0xb0>
100031fa:	e145      	b.n	10003488 <tud_task_ext+0x33c>
100031fc:	1a9b      	subs	r3, r3, r2
100031fe:	b2db      	uxtb	r3, r3
10003200:	2b00      	cmp	r3, #0
10003202:	d000      	beq.n	10003206 <tud_task_ext+0xba>
10003204:	e0bd      	b.n	10003382 <tud_task_ext+0x236>
10003206:	4eab      	ldr	r6, [pc, #684]	; (100034b4 <tud_task_ext+0x368>)
10003208:	7962      	ldrb	r2, [r4, #5]
1000320a:	7820      	ldrb	r0, [r4, #0]
1000320c:	68a3      	ldr	r3, [r4, #8]
1000320e:	47b0      	blx	r6
10003210:	e7ad      	b.n	1000316e <tud_task_ext+0x22>
10003212:	2201      	movs	r2, #1
10003214:	782b      	ldrb	r3, [r5, #0]
10003216:	2101      	movs	r1, #1
10003218:	4313      	orrs	r3, r2
1000321a:	702b      	strb	r3, [r5, #0]
1000321c:	2333      	movs	r3, #51	; 0x33
1000321e:	2004      	movs	r0, #4
10003220:	5cea      	ldrb	r2, [r5, r3]
10003222:	438a      	bics	r2, r1
10003224:	54ea      	strb	r2, [r5, r3]
10003226:	5cea      	ldrb	r2, [r5, r3]
10003228:	4382      	bics	r2, r0
1000322a:	54ea      	strb	r2, [r5, r3]
1000322c:	3301      	adds	r3, #1
1000322e:	5cea      	ldrb	r2, [r5, r3]
10003230:	438a      	bics	r2, r1
10003232:	54ea      	strb	r2, [r5, r3]
10003234:	5cea      	ldrb	r2, [r5, r3]
10003236:	4382      	bics	r2, r0
10003238:	54ea      	strb	r2, [r5, r3]
1000323a:	7823      	ldrb	r3, [r4, #0]
1000323c:	2000      	movs	r0, #0
1000323e:	469b      	mov	fp, r3
10003240:	f000 fcbe 	bl	10003bc0 <usbd_control_set_complete_callback>
10003244:	2260      	movs	r2, #96	; 0x60
10003246:	7923      	ldrb	r3, [r4, #4]
10003248:	401a      	ands	r2, r3
1000324a:	2a60      	cmp	r2, #96	; 0x60
1000324c:	d00d      	beq.n	1000326a <tud_task_ext+0x11e>
1000324e:	2a40      	cmp	r2, #64	; 0x40
10003250:	d100      	bne.n	10003254 <tud_task_ext+0x108>
10003252:	e0c1      	b.n	100033d8 <tud_task_ext+0x28c>
10003254:	06db      	lsls	r3, r3, #27
10003256:	0edb      	lsrs	r3, r3, #27
10003258:	2b01      	cmp	r3, #1
1000325a:	d100      	bne.n	1000325e <tud_task_ext+0x112>
1000325c:	e13c      	b.n	100034d8 <tud_task_ext+0x38c>
1000325e:	2b02      	cmp	r3, #2
10003260:	d100      	bne.n	10003264 <tud_task_ext+0x118>
10003262:	e0d6      	b.n	10003412 <tud_task_ext+0x2c6>
10003264:	2b00      	cmp	r3, #0
10003266:	d100      	bne.n	1000326a <tud_task_ext+0x11e>
10003268:	e0c5      	b.n	100033f6 <tud_task_ext+0x2aa>
1000326a:	7820      	ldrb	r0, [r4, #0]
1000326c:	2100      	movs	r1, #0
1000326e:	f7ff fe6d 	bl	10002f4c <dcd_edpt_stall>
10003272:	2180      	movs	r1, #128	; 0x80
10003274:	7820      	ldrb	r0, [r4, #0]
10003276:	f7ff fe69 	bl	10002f4c <dcd_edpt_stall>
1000327a:	e778      	b.n	1000316e <tud_task_ext+0x22>
1000327c:	4e8a      	ldr	r6, [pc, #552]	; (100034a8 <tud_task_ext+0x35c>)
1000327e:	7833      	ldrb	r3, [r6, #0]
10003280:	07db      	lsls	r3, r3, #31
10003282:	d400      	bmi.n	10003286 <tud_task_ext+0x13a>
10003284:	e773      	b.n	1000316e <tud_task_ext+0x22>
10003286:	4b8c      	ldr	r3, [pc, #560]	; (100034b8 <tud_task_ext+0x36c>)
10003288:	2b00      	cmp	r3, #0
1000328a:	d100      	bne.n	1000328e <tud_task_ext+0x142>
1000328c:	e76f      	b.n	1000316e <tud_task_ext+0x22>
1000328e:	e000      	b.n	10003292 <tud_task_ext+0x146>
10003290:	bf00      	nop
10003292:	e76c      	b.n	1000316e <tud_task_ext+0x22>
10003294:	4e84      	ldr	r6, [pc, #528]	; (100034a8 <tud_task_ext+0x35c>)
10003296:	7833      	ldrb	r3, [r6, #0]
10003298:	07db      	lsls	r3, r3, #31
1000329a:	d400      	bmi.n	1000329e <tud_task_ext+0x152>
1000329c:	e767      	b.n	1000316e <tud_task_ext+0x22>
1000329e:	4b87      	ldr	r3, [pc, #540]	; (100034bc <tud_task_ext+0x370>)
100032a0:	2b00      	cmp	r3, #0
100032a2:	d100      	bne.n	100032a6 <tud_task_ext+0x15a>
100032a4:	e763      	b.n	1000316e <tud_task_ext+0x22>
100032a6:	7830      	ldrb	r0, [r6, #0]
100032a8:	0700      	lsls	r0, r0, #28
100032aa:	0fc0      	lsrs	r0, r0, #31
100032ac:	e000      	b.n	100032b0 <tud_task_ext+0x164>
100032ae:	bf00      	nop
100032b0:	e75d      	b.n	1000316e <tud_task_ext+0x22>
100032b2:	7823      	ldrb	r3, [r4, #0]
100032b4:	4a7d      	ldr	r2, [pc, #500]	; (100034ac <tud_task_ext+0x360>)
100032b6:	4698      	mov	r8, r3
100032b8:	4b7d      	ldr	r3, [pc, #500]	; (100034b0 <tud_task_ext+0x364>)
100032ba:	2600      	movs	r6, #0
100032bc:	4699      	mov	r9, r3
100032be:	781b      	ldrb	r3, [r3, #0]
100032c0:	2a00      	cmp	r2, #0
100032c2:	d100      	bne.n	100032c6 <tud_task_ext+0x17a>
100032c4:	e07a      	b.n	100033bc <tud_task_ext+0x270>
100032c6:	4a7e      	ldr	r2, [pc, #504]	; (100034c0 <tud_task_ext+0x374>)
100032c8:	4693      	mov	fp, r2
100032ca:	42b3      	cmp	r3, r6
100032cc:	d860      	bhi.n	10003390 <tud_task_ext+0x244>
100032ce:	d119      	bne.n	10003304 <tud_task_ext+0x1b8>
100032d0:	4b7c      	ldr	r3, [pc, #496]	; (100034c4 <tud_task_ext+0x378>)
100032d2:	4640      	mov	r0, r8
100032d4:	4798      	blx	r3
100032d6:	464b      	mov	r3, r9
100032d8:	3601      	adds	r6, #1
100032da:	781b      	ldrb	r3, [r3, #0]
100032dc:	b2f6      	uxtb	r6, r6
100032de:	42b3      	cmp	r3, r6
100032e0:	d2f3      	bcs.n	100032ca <tud_task_ext+0x17e>
100032e2:	4e71      	ldr	r6, [pc, #452]	; (100034a8 <tud_task_ext+0x35c>)
100032e4:	2253      	movs	r2, #83	; 0x53
100032e6:	2100      	movs	r1, #0
100032e8:	0030      	movs	r0, r6
100032ea:	f7ff f90d 	bl	10002508 <__wrap_memset>
100032ee:	2210      	movs	r2, #16
100032f0:	21ff      	movs	r1, #255	; 0xff
100032f2:	1cf0      	adds	r0, r6, #3
100032f4:	f7ff f908 	bl	10002508 <__wrap_memset>
100032f8:	0030      	movs	r0, r6
100032fa:	2220      	movs	r2, #32
100032fc:	21ff      	movs	r1, #255	; 0xff
100032fe:	3013      	adds	r0, #19
10003300:	f7ff f902 	bl	10002508 <__wrap_memset>
10003304:	f000 fc52 	bl	10003bac <usbd_control_reset>
10003308:	4b6f      	ldr	r3, [pc, #444]	; (100034c8 <tud_task_ext+0x37c>)
1000330a:	2b00      	cmp	r3, #0
1000330c:	d100      	bne.n	10003310 <tud_task_ext+0x1c4>
1000330e:	e72e      	b.n	1000316e <tud_task_ext+0x22>
10003310:	e000      	b.n	10003314 <tud_task_ext+0x1c8>
10003312:	bf00      	nop
10003314:	e72b      	b.n	1000316e <tud_task_ext+0x22>
10003316:	7823      	ldrb	r3, [r4, #0]
10003318:	4a64      	ldr	r2, [pc, #400]	; (100034ac <tud_task_ext+0x360>)
1000331a:	4698      	mov	r8, r3
1000331c:	4b64      	ldr	r3, [pc, #400]	; (100034b0 <tud_task_ext+0x364>)
1000331e:	2600      	movs	r6, #0
10003320:	4699      	mov	r9, r3
10003322:	781b      	ldrb	r3, [r3, #0]
10003324:	2a00      	cmp	r2, #0
10003326:	d01f      	beq.n	10003368 <tud_task_ext+0x21c>
10003328:	4a65      	ldr	r2, [pc, #404]	; (100034c0 <tud_task_ext+0x374>)
1000332a:	4693      	mov	fp, r2
1000332c:	429e      	cmp	r6, r3
1000332e:	d33a      	bcc.n	100033a6 <tud_task_ext+0x25a>
10003330:	d121      	bne.n	10003376 <tud_task_ext+0x22a>
10003332:	4b64      	ldr	r3, [pc, #400]	; (100034c4 <tud_task_ext+0x378>)
10003334:	4640      	mov	r0, r8
10003336:	4798      	blx	r3
10003338:	464b      	mov	r3, r9
1000333a:	3601      	adds	r6, #1
1000333c:	781b      	ldrb	r3, [r3, #0]
1000333e:	b2f6      	uxtb	r6, r6
10003340:	42b3      	cmp	r3, r6
10003342:	d2f3      	bcs.n	1000332c <tud_task_ext+0x1e0>
10003344:	4e58      	ldr	r6, [pc, #352]	; (100034a8 <tud_task_ext+0x35c>)
10003346:	2253      	movs	r2, #83	; 0x53
10003348:	2100      	movs	r1, #0
1000334a:	0030      	movs	r0, r6
1000334c:	f7ff f8dc 	bl	10002508 <__wrap_memset>
10003350:	2210      	movs	r2, #16
10003352:	21ff      	movs	r1, #255	; 0xff
10003354:	1cf0      	adds	r0, r6, #3
10003356:	f7ff f8d7 	bl	10002508 <__wrap_memset>
1000335a:	0030      	movs	r0, r6
1000335c:	2220      	movs	r2, #32
1000335e:	21ff      	movs	r1, #255	; 0xff
10003360:	3013      	adds	r0, #19
10003362:	f7ff f8d1 	bl	10002508 <__wrap_memset>
10003366:	e007      	b.n	10003378 <tud_task_ext+0x22c>
10003368:	4640      	mov	r0, r8
1000336a:	f000 fd85 	bl	10003e78 <vendord_reset>
1000336e:	464b      	mov	r3, r9
10003370:	781b      	ldrb	r3, [r3, #0]
10003372:	2b00      	cmp	r3, #0
10003374:	d0e6      	beq.n	10003344 <tud_task_ext+0x1f8>
10003376:	4e4c      	ldr	r6, [pc, #304]	; (100034a8 <tud_task_ext+0x35c>)
10003378:	f000 fc18 	bl	10003bac <usbd_control_reset>
1000337c:	7923      	ldrb	r3, [r4, #4]
1000337e:	70b3      	strb	r3, [r6, #2]
10003380:	e6f5      	b.n	1000316e <tud_task_ext+0x22>
10003382:	b00d      	add	sp, #52	; 0x34
10003384:	bc3c      	pop	{r2, r3, r4, r5}
10003386:	4690      	mov	r8, r2
10003388:	4699      	mov	r9, r3
1000338a:	46a2      	mov	sl, r4
1000338c:	46ab      	mov	fp, r5
1000338e:	bdf0      	pop	{r4, r5, r6, r7, pc}
10003390:	465a      	mov	r2, fp
10003392:	6812      	ldr	r2, [r2, #0]
10003394:	0073      	lsls	r3, r6, #1
10003396:	4694      	mov	ip, r2
10003398:	199b      	adds	r3, r3, r6
1000339a:	00db      	lsls	r3, r3, #3
1000339c:	4463      	add	r3, ip
1000339e:	2b00      	cmp	r3, #0
100033a0:	d0b0      	beq.n	10003304 <tud_task_ext+0x1b8>
100033a2:	685b      	ldr	r3, [r3, #4]
100033a4:	e795      	b.n	100032d2 <tud_task_ext+0x186>
100033a6:	465a      	mov	r2, fp
100033a8:	6812      	ldr	r2, [r2, #0]
100033aa:	0073      	lsls	r3, r6, #1
100033ac:	4694      	mov	ip, r2
100033ae:	199b      	adds	r3, r3, r6
100033b0:	00db      	lsls	r3, r3, #3
100033b2:	4463      	add	r3, ip
100033b4:	2b00      	cmp	r3, #0
100033b6:	d0de      	beq.n	10003376 <tud_task_ext+0x22a>
100033b8:	685b      	ldr	r3, [r3, #4]
100033ba:	e7bb      	b.n	10003334 <tud_task_ext+0x1e8>
100033bc:	4640      	mov	r0, r8
100033be:	f000 fd5b 	bl	10003e78 <vendord_reset>
100033c2:	464b      	mov	r3, r9
100033c4:	781b      	ldrb	r3, [r3, #0]
100033c6:	2b00      	cmp	r3, #0
100033c8:	d19c      	bne.n	10003304 <tud_task_ext+0x1b8>
100033ca:	e78a      	b.n	100032e2 <tud_task_ext+0x196>
100033cc:	7962      	ldrb	r2, [r4, #5]
100033ce:	7820      	ldrb	r0, [r4, #0]
100033d0:	68a3      	ldr	r3, [r4, #8]
100033d2:	f000 fc09 	bl	10003be8 <usbd_control_xfer_cb>
100033d6:	e6ca      	b.n	1000316e <tud_task_ext+0x22>
100033d8:	483c      	ldr	r0, [pc, #240]	; (100034cc <tud_task_ext+0x380>)
100033da:	2800      	cmp	r0, #0
100033dc:	d100      	bne.n	100033e0 <tud_task_ext+0x294>
100033de:	e744      	b.n	1000326a <tud_task_ext+0x11e>
100033e0:	f000 fbee 	bl	10003bc0 <usbd_control_set_complete_callback>
100033e4:	2101      	movs	r1, #1
100033e6:	4658      	mov	r0, fp
100033e8:	aa0a      	add	r2, sp, #40	; 0x28
100033ea:	f7fc ffdb 	bl	100003a4 <tud_vendor_control_xfer_cb>
100033ee:	2800      	cmp	r0, #0
100033f0:	d000      	beq.n	100033f4 <tud_task_ext+0x2a8>
100033f2:	e6bc      	b.n	1000316e <tud_task_ext+0x22>
100033f4:	e739      	b.n	1000326a <tud_task_ext+0x11e>
100033f6:	2a20      	cmp	r2, #32
100033f8:	d100      	bne.n	100033fc <tud_task_ext+0x2b0>
100033fa:	e0a2      	b.n	10003542 <tud_task_ext+0x3f6>
100033fc:	2a00      	cmp	r2, #0
100033fe:	d000      	beq.n	10003402 <tud_task_ext+0x2b6>
10003400:	e733      	b.n	1000326a <tud_task_ext+0x11e>
10003402:	7963      	ldrb	r3, [r4, #5]
10003404:	2b09      	cmp	r3, #9
10003406:	d900      	bls.n	1000340a <tud_task_ext+0x2be>
10003408:	e72f      	b.n	1000326a <tud_task_ext+0x11e>
1000340a:	4a31      	ldr	r2, [pc, #196]	; (100034d0 <tud_task_ext+0x384>)
1000340c:	009b      	lsls	r3, r3, #2
1000340e:	58d3      	ldr	r3, [r2, r3]
10003410:	469f      	mov	pc, r3
10003412:	2370      	movs	r3, #112	; 0x70
10003414:	7a21      	ldrb	r1, [r4, #8]
10003416:	420b      	tst	r3, r1
10003418:	d000      	beq.n	1000341c <tud_task_ext+0x2d0>
1000341a:	e726      	b.n	1000326a <tud_task_ext+0x11e>
1000341c:	330f      	adds	r3, #15
1000341e:	400b      	ands	r3, r1
10003420:	005b      	lsls	r3, r3, #1
10003422:	18e8      	adds	r0, r5, r3
10003424:	09ce      	lsrs	r6, r1, #7
10003426:	9301      	str	r3, [sp, #4]
10003428:	4b20      	ldr	r3, [pc, #128]	; (100034ac <tud_task_ext+0x360>)
1000342a:	1980      	adds	r0, r0, r6
1000342c:	7cc0      	ldrb	r0, [r0, #19]
1000342e:	2b00      	cmp	r3, #0
10003430:	d006      	beq.n	10003440 <tud_task_ext+0x2f4>
10003432:	4b1f      	ldr	r3, [pc, #124]	; (100034b0 <tud_task_ext+0x364>)
10003434:	781b      	ldrb	r3, [r3, #0]
10003436:	4298      	cmp	r0, r3
10003438:	d200      	bcs.n	1000343c <tud_task_ext+0x2f0>
1000343a:	e0a5      	b.n	10003588 <tud_task_ext+0x43c>
1000343c:	1ac0      	subs	r0, r0, r3
1000343e:	b2c0      	uxtb	r0, r0
10003440:	2800      	cmp	r0, #0
10003442:	d000      	beq.n	10003446 <tud_task_ext+0x2fa>
10003444:	e09a      	b.n	1000357c <tud_task_ext+0x430>
10003446:	2a00      	cmp	r2, #0
10003448:	d000      	beq.n	1000344c <tud_task_ext+0x300>
1000344a:	e158      	b.n	100036fe <tud_task_ext+0x5b2>
1000344c:	4b21      	ldr	r3, [pc, #132]	; (100034d4 <tud_task_ext+0x388>)
1000344e:	4698      	mov	r8, r3
10003450:	7963      	ldrb	r3, [r4, #5]
10003452:	001a      	movs	r2, r3
10003454:	4699      	mov	r9, r3
10003456:	2302      	movs	r3, #2
10003458:	439a      	bics	r2, r3
1000345a:	2a01      	cmp	r2, #1
1000345c:	d100      	bne.n	10003460 <tud_task_ext+0x314>
1000345e:	e152      	b.n	10003706 <tud_task_ext+0x5ba>
10003460:	464b      	mov	r3, r9
10003462:	2b00      	cmp	r3, #0
10003464:	d000      	beq.n	10003468 <tud_task_ext+0x31c>
10003466:	e700      	b.n	1000326a <tud_task_ext+0x11e>
10003468:	9b01      	ldr	r3, [sp, #4]
1000346a:	aa08      	add	r2, sp, #32
1000346c:	18eb      	adds	r3, r5, r3
1000346e:	199e      	adds	r6, r3, r6
10003470:	3630      	adds	r6, #48	; 0x30
10003472:	78f3      	ldrb	r3, [r6, #3]
10003474:	3202      	adds	r2, #2
10003476:	079b      	lsls	r3, r3, #30
10003478:	0fdb      	lsrs	r3, r3, #31
1000347a:	8013      	strh	r3, [r2, #0]
1000347c:	4658      	mov	r0, fp
1000347e:	2302      	movs	r3, #2
10003480:	a90a      	add	r1, sp, #40	; 0x28
10003482:	f000 fb37 	bl	10003af4 <tud_control_xfer>
10003486:	e672      	b.n	1000316e <tud_task_ext+0x22>
10003488:	005a      	lsls	r2, r3, #1
1000348a:	18d3      	adds	r3, r2, r3
1000348c:	4a0c      	ldr	r2, [pc, #48]	; (100034c0 <tud_task_ext+0x374>)
1000348e:	00db      	lsls	r3, r3, #3
10003490:	6812      	ldr	r2, [r2, #0]
10003492:	18d3      	adds	r3, r2, r3
10003494:	2b00      	cmp	r3, #0
10003496:	d100      	bne.n	1000349a <tud_task_ext+0x34e>
10003498:	e773      	b.n	10003382 <tud_task_ext+0x236>
1000349a:	691e      	ldr	r6, [r3, #16]
1000349c:	e6b4      	b.n	10003208 <tud_task_ext+0xbc>
1000349e:	46c0      	nop			; (mov r8, r8)
100034a0:	10004924 	.word	0x10004924
100034a4:	2000178c 	.word	0x2000178c
100034a8:	20001734 	.word	0x20001734
100034ac:	00000000 	.word	0x00000000
100034b0:	20001f16 	.word	0x20001f16
100034b4:	10003f59 	.word	0x10003f59
	...
100034c0:	20001694 	.word	0x20001694
100034c4:	10003e79 	.word	0x10003e79
100034c8:	00000000 	.word	0x00000000
100034cc:	100003a5 	.word	0x100003a5
100034d0:	10004948 	.word	0x10004948
100034d4:	100049b0 	.word	0x100049b0
100034d8:	7a23      	ldrb	r3, [r4, #8]
100034da:	2b0f      	cmp	r3, #15
100034dc:	d900      	bls.n	100034e0 <tud_task_ext+0x394>
100034de:	e6c4      	b.n	1000326a <tud_task_ext+0x11e>
100034e0:	4ab5      	ldr	r2, [pc, #724]	; (100037b8 <tud_task_ext+0x66c>)
100034e2:	18eb      	adds	r3, r5, r3
100034e4:	78db      	ldrb	r3, [r3, #3]
100034e6:	2a00      	cmp	r2, #0
100034e8:	d005      	beq.n	100034f6 <tud_task_ext+0x3aa>
100034ea:	4ab4      	ldr	r2, [pc, #720]	; (100037bc <tud_task_ext+0x670>)
100034ec:	7812      	ldrb	r2, [r2, #0]
100034ee:	4293      	cmp	r3, r2
100034f0:	d363      	bcc.n	100035ba <tud_task_ext+0x46e>
100034f2:	1a9b      	subs	r3, r3, r2
100034f4:	b2db      	uxtb	r3, r3
100034f6:	2b00      	cmp	r3, #0
100034f8:	d000      	beq.n	100034fc <tud_task_ext+0x3b0>
100034fa:	e6b6      	b.n	1000326a <tud_task_ext+0x11e>
100034fc:	48b0      	ldr	r0, [pc, #704]	; (100037c0 <tud_task_ext+0x674>)
100034fe:	4eb1      	ldr	r6, [pc, #708]	; (100037c4 <tud_task_ext+0x678>)
10003500:	f000 fb5e 	bl	10003bc0 <usbd_control_set_complete_callback>
10003504:	2101      	movs	r1, #1
10003506:	4658      	mov	r0, fp
10003508:	68f3      	ldr	r3, [r6, #12]
1000350a:	aa0a      	add	r2, sp, #40	; 0x28
1000350c:	4798      	blx	r3
1000350e:	2800      	cmp	r0, #0
10003510:	d000      	beq.n	10003514 <tud_task_ext+0x3c8>
10003512:	e62c      	b.n	1000316e <tud_task_ext+0x22>
10003514:	2260      	movs	r2, #96	; 0x60
10003516:	0016      	movs	r6, r2
10003518:	7923      	ldrb	r3, [r4, #4]
1000351a:	401e      	ands	r6, r3
1000351c:	421a      	tst	r2, r3
1000351e:	d000      	beq.n	10003522 <tud_task_ext+0x3d6>
10003520:	e6a3      	b.n	1000326a <tud_task_ext+0x11e>
10003522:	7963      	ldrb	r3, [r4, #5]
10003524:	3b0a      	subs	r3, #10
10003526:	2b01      	cmp	r3, #1
10003528:	d900      	bls.n	1000352c <tud_task_ext+0x3e0>
1000352a:	e69e      	b.n	1000326a <tud_task_ext+0x11e>
1000352c:	f000 fb48 	bl	10003bc0 <usbd_control_set_complete_callback>
10003530:	7963      	ldrb	r3, [r4, #5]
10003532:	2b0a      	cmp	r3, #10
10003534:	d100      	bne.n	10003538 <tud_task_ext+0x3ec>
10003536:	e135      	b.n	100037a4 <tud_task_ext+0x658>
10003538:	4658      	mov	r0, fp
1000353a:	a90a      	add	r1, sp, #40	; 0x28
1000353c:	f000 fac2 	bl	10003ac4 <tud_control_status>
10003540:	e615      	b.n	1000316e <tud_task_ext+0x22>
10003542:	7a23      	ldrb	r3, [r4, #8]
10003544:	2b0f      	cmp	r3, #15
10003546:	d900      	bls.n	1000354a <tud_task_ext+0x3fe>
10003548:	e68f      	b.n	1000326a <tud_task_ext+0x11e>
1000354a:	4a9b      	ldr	r2, [pc, #620]	; (100037b8 <tud_task_ext+0x66c>)
1000354c:	18eb      	adds	r3, r5, r3
1000354e:	78db      	ldrb	r3, [r3, #3]
10003550:	2a00      	cmp	r2, #0
10003552:	d006      	beq.n	10003562 <tud_task_ext+0x416>
10003554:	4a99      	ldr	r2, [pc, #612]	; (100037bc <tud_task_ext+0x670>)
10003556:	7812      	ldrb	r2, [r2, #0]
10003558:	4293      	cmp	r3, r2
1000355a:	d200      	bcs.n	1000355e <tud_task_ext+0x412>
1000355c:	e0f6      	b.n	1000374c <tud_task_ext+0x600>
1000355e:	1a9b      	subs	r3, r3, r2
10003560:	b2db      	uxtb	r3, r3
10003562:	2b00      	cmp	r3, #0
10003564:	d000      	beq.n	10003568 <tud_task_ext+0x41c>
10003566:	e680      	b.n	1000326a <tud_task_ext+0x11e>
10003568:	4895      	ldr	r0, [pc, #596]	; (100037c0 <tud_task_ext+0x674>)
1000356a:	4e96      	ldr	r6, [pc, #600]	; (100037c4 <tud_task_ext+0x678>)
1000356c:	f000 fb28 	bl	10003bc0 <usbd_control_set_complete_callback>
10003570:	2101      	movs	r1, #1
10003572:	4658      	mov	r0, fp
10003574:	68f3      	ldr	r3, [r6, #12]
10003576:	aa0a      	add	r2, sp, #40	; 0x28
10003578:	4798      	blx	r3
1000357a:	e738      	b.n	100033ee <tud_task_ext+0x2a2>
1000357c:	2a00      	cmp	r2, #0
1000357e:	d000      	beq.n	10003582 <tud_task_ext+0x436>
10003580:	e673      	b.n	1000326a <tud_task_ext+0x11e>
10003582:	2300      	movs	r3, #0
10003584:	4698      	mov	r8, r3
10003586:	e763      	b.n	10003450 <tud_task_ext+0x304>
10003588:	0043      	lsls	r3, r0, #1
1000358a:	4698      	mov	r8, r3
1000358c:	4b8e      	ldr	r3, [pc, #568]	; (100037c8 <tud_task_ext+0x67c>)
1000358e:	4440      	add	r0, r8
10003590:	681b      	ldr	r3, [r3, #0]
10003592:	00c0      	lsls	r0, r0, #3
10003594:	4698      	mov	r8, r3
10003596:	4480      	add	r8, r0
10003598:	2a00      	cmp	r2, #0
1000359a:	d100      	bne.n	1000359e <tud_task_ext+0x452>
1000359c:	e758      	b.n	10003450 <tud_task_ext+0x304>
1000359e:	4643      	mov	r3, r8
100035a0:	2b00      	cmp	r3, #0
100035a2:	d100      	bne.n	100035a6 <tud_task_ext+0x45a>
100035a4:	e661      	b.n	1000326a <tud_task_ext+0x11e>
100035a6:	68d8      	ldr	r0, [r3, #12]
100035a8:	f000 fb0a 	bl	10003bc0 <usbd_control_set_complete_callback>
100035ac:	4643      	mov	r3, r8
100035ae:	2101      	movs	r1, #1
100035b0:	4658      	mov	r0, fp
100035b2:	68db      	ldr	r3, [r3, #12]
100035b4:	aa0a      	add	r2, sp, #40	; 0x28
100035b6:	4798      	blx	r3
100035b8:	e719      	b.n	100033ee <tud_task_ext+0x2a2>
100035ba:	4a83      	ldr	r2, [pc, #524]	; (100037c8 <tud_task_ext+0x67c>)
100035bc:	005e      	lsls	r6, r3, #1
100035be:	18f3      	adds	r3, r6, r3
100035c0:	6816      	ldr	r6, [r2, #0]
100035c2:	00db      	lsls	r3, r3, #3
100035c4:	18f6      	adds	r6, r6, r3
100035c6:	2e00      	cmp	r6, #0
100035c8:	d100      	bne.n	100035cc <tud_task_ext+0x480>
100035ca:	e64e      	b.n	1000326a <tud_task_ext+0x11e>
100035cc:	68f0      	ldr	r0, [r6, #12]
100035ce:	e797      	b.n	10003500 <tud_task_ext+0x3b4>
100035d0:	79a3      	ldrb	r3, [r4, #6]
100035d2:	9301      	str	r3, [sp, #4]
100035d4:	001a      	movs	r2, r3
100035d6:	786b      	ldrb	r3, [r5, #1]
100035d8:	429a      	cmp	r2, r3
100035da:	d007      	beq.n	100035ec <tud_task_ext+0x4a0>
100035dc:	786b      	ldrb	r3, [r5, #1]
100035de:	2b00      	cmp	r3, #0
100035e0:	d000      	beq.n	100035e4 <tud_task_ext+0x498>
100035e2:	e158      	b.n	10003896 <tud_task_ext+0x74a>
100035e4:	9b01      	ldr	r3, [sp, #4]
100035e6:	2b00      	cmp	r3, #0
100035e8:	d000      	beq.n	100035ec <tud_task_ext+0x4a0>
100035ea:	e0f9      	b.n	100037e0 <tud_task_ext+0x694>
100035ec:	9b01      	ldr	r3, [sp, #4]
100035ee:	4658      	mov	r0, fp
100035f0:	a90a      	add	r1, sp, #40	; 0x28
100035f2:	706b      	strb	r3, [r5, #1]
100035f4:	f000 fa66 	bl	10003ac4 <tud_control_status>
100035f8:	e5b9      	b.n	1000316e <tud_task_ext+0x22>
100035fa:	786b      	ldrb	r3, [r5, #1]
100035fc:	aa08      	add	r2, sp, #32
100035fe:	3202      	adds	r2, #2
10003600:	7013      	strb	r3, [r2, #0]
10003602:	4658      	mov	r0, fp
10003604:	2301      	movs	r3, #1
10003606:	a90a      	add	r1, sp, #40	; 0x28
10003608:	f000 fa74 	bl	10003af4 <tud_control_xfer>
1000360c:	e5af      	b.n	1000316e <tud_task_ext+0x22>
1000360e:	88e0      	ldrh	r0, [r4, #6]
10003610:	0a03      	lsrs	r3, r0, #8
10003612:	b2c0      	uxtb	r0, r0
10003614:	2b0f      	cmp	r3, #15
10003616:	d900      	bls.n	1000361a <tud_task_ext+0x4ce>
10003618:	e627      	b.n	1000326a <tud_task_ext+0x11e>
1000361a:	496c      	ldr	r1, [pc, #432]	; (100037cc <tud_task_ext+0x680>)
1000361c:	009a      	lsls	r2, r3, #2
1000361e:	588a      	ldr	r2, [r1, r2]
10003620:	4697      	mov	pc, r2
10003622:	a80a      	add	r0, sp, #40	; 0x28
10003624:	f000 fad2 	bl	10003bcc <usbd_control_set_request>
10003628:	4658      	mov	r0, fp
1000362a:	79a1      	ldrb	r1, [r4, #6]
1000362c:	f7ff fb86 	bl	10002d3c <dcd_set_address>
10003630:	2202      	movs	r2, #2
10003632:	782b      	ldrb	r3, [r5, #0]
10003634:	4313      	orrs	r3, r2
10003636:	702b      	strb	r3, [r5, #0]
10003638:	e599      	b.n	1000316e <tud_task_ext+0x22>
1000363a:	88e3      	ldrh	r3, [r4, #6]
1000363c:	2b01      	cmp	r3, #1
1000363e:	d000      	beq.n	10003642 <tud_task_ext+0x4f6>
10003640:	e613      	b.n	1000326a <tud_task_ext+0x11e>
10003642:	2208      	movs	r2, #8
10003644:	782b      	ldrb	r3, [r5, #0]
10003646:	4658      	mov	r0, fp
10003648:	4393      	bics	r3, r2
1000364a:	a90a      	add	r1, sp, #40	; 0x28
1000364c:	702b      	strb	r3, [r5, #0]
1000364e:	f000 fa39 	bl	10003ac4 <tud_control_status>
10003652:	e58c      	b.n	1000316e <tud_task_ext+0x22>
10003654:	2002      	movs	r0, #2
10003656:	7829      	ldrb	r1, [r5, #0]
10003658:	ab08      	add	r3, sp, #32
1000365a:	1c9a      	adds	r2, r3, #2
1000365c:	068b      	lsls	r3, r1, #26
1000365e:	0889      	lsrs	r1, r1, #2
10003660:	0fdb      	lsrs	r3, r3, #31
10003662:	4001      	ands	r1, r0
10003664:	430b      	orrs	r3, r1
10003666:	e708      	b.n	1000347a <tud_task_ext+0x32e>
10003668:	88e3      	ldrh	r3, [r4, #6]
1000366a:	2b01      	cmp	r3, #1
1000366c:	d000      	beq.n	10003670 <tud_task_ext+0x524>
1000366e:	e5fc      	b.n	1000326a <tud_task_ext+0x11e>
10003670:	2208      	movs	r2, #8
10003672:	782b      	ldrb	r3, [r5, #0]
10003674:	4658      	mov	r0, fp
10003676:	4313      	orrs	r3, r2
10003678:	a90a      	add	r1, sp, #40	; 0x28
1000367a:	702b      	strb	r3, [r5, #0]
1000367c:	f000 fa22 	bl	10003ac4 <tud_control_status>
10003680:	e575      	b.n	1000316e <tud_task_ext+0x22>
10003682:	4b53      	ldr	r3, [pc, #332]	; (100037d0 <tud_task_ext+0x684>)
10003684:	2b00      	cmp	r3, #0
10003686:	d100      	bne.n	1000368a <tud_task_ext+0x53e>
10003688:	e5ef      	b.n	1000326a <tud_task_ext+0x11e>
1000368a:	e000      	b.n	1000368e <tud_task_ext+0x542>
1000368c:	bf00      	nop
1000368e:	1e02      	subs	r2, r0, #0
10003690:	d100      	bne.n	10003694 <tud_task_ext+0x548>
10003692:	e5ea      	b.n	1000326a <tud_task_ext+0x11e>
10003694:	78d3      	ldrb	r3, [r2, #3]
10003696:	7891      	ldrb	r1, [r2, #2]
10003698:	021b      	lsls	r3, r3, #8
1000369a:	430b      	orrs	r3, r1
1000369c:	4658      	mov	r0, fp
1000369e:	a90a      	add	r1, sp, #40	; 0x28
100036a0:	f000 fa28 	bl	10003af4 <tud_control_xfer>
100036a4:	e6a3      	b.n	100033ee <tud_task_ext+0x2a2>
100036a6:	4b4b      	ldr	r3, [pc, #300]	; (100037d4 <tud_task_ext+0x688>)
100036a8:	2b00      	cmp	r3, #0
100036aa:	d100      	bne.n	100036ae <tud_task_ext+0x562>
100036ac:	e5dd      	b.n	1000326a <tud_task_ext+0x11e>
100036ae:	e000      	b.n	100036b2 <tud_task_ext+0x566>
100036b0:	bf00      	nop
100036b2:	1e02      	subs	r2, r0, #0
100036b4:	d100      	bne.n	100036b8 <tud_task_ext+0x56c>
100036b6:	e5d8      	b.n	1000326a <tud_task_ext+0x11e>
100036b8:	4658      	mov	r0, fp
100036ba:	7813      	ldrb	r3, [r2, #0]
100036bc:	a90a      	add	r1, sp, #40	; 0x28
100036be:	f000 fa19 	bl	10003af4 <tud_control_xfer>
100036c2:	e694      	b.n	100033ee <tud_task_ext+0x2a2>
100036c4:	8921      	ldrh	r1, [r4, #8]
100036c6:	f7fc ffbf 	bl	10000648 <tud_descriptor_string_cb>
100036ca:	1e02      	subs	r2, r0, #0
100036cc:	d1f4      	bne.n	100036b8 <tud_task_ext+0x56c>
100036ce:	e5cc      	b.n	1000326a <tud_task_ext+0x11e>
100036d0:	2b02      	cmp	r3, #2
100036d2:	d100      	bne.n	100036d6 <tud_task_ext+0x58a>
100036d4:	e11d      	b.n	10003912 <tud_task_ext+0x7c6>
100036d6:	4b40      	ldr	r3, [pc, #256]	; (100037d8 <tud_task_ext+0x68c>)
100036d8:	2b00      	cmp	r3, #0
100036da:	d100      	bne.n	100036de <tud_task_ext+0x592>
100036dc:	e5c5      	b.n	1000326a <tud_task_ext+0x11e>
100036de:	e000      	b.n	100036e2 <tud_task_ext+0x596>
100036e0:	bf00      	nop
100036e2:	0002      	movs	r2, r0
100036e4:	2a00      	cmp	r2, #0
100036e6:	d100      	bne.n	100036ea <tud_task_ext+0x59e>
100036e8:	e5bf      	b.n	1000326a <tud_task_ext+0x11e>
100036ea:	e7d3      	b.n	10003694 <tud_task_ext+0x548>
100036ec:	f7fc ffa4 	bl	10000638 <tud_descriptor_device_cb>
100036f0:	2312      	movs	r3, #18
100036f2:	0002      	movs	r2, r0
100036f4:	a90a      	add	r1, sp, #40	; 0x28
100036f6:	4658      	mov	r0, fp
100036f8:	f000 f9fc 	bl	10003af4 <tud_control_xfer>
100036fc:	e677      	b.n	100033ee <tud_task_ext+0x2a2>
100036fe:	4b31      	ldr	r3, [pc, #196]	; (100037c4 <tud_task_ext+0x678>)
10003700:	482f      	ldr	r0, [pc, #188]	; (100037c0 <tud_task_ext+0x674>)
10003702:	4698      	mov	r8, r3
10003704:	e750      	b.n	100035a8 <tud_task_ext+0x45c>
10003706:	88e2      	ldrh	r2, [r4, #6]
10003708:	2a00      	cmp	r2, #0
1000370a:	d109      	bne.n	10003720 <tud_task_ext+0x5d4>
1000370c:	464b      	mov	r3, r9
1000370e:	2b01      	cmp	r3, #1
10003710:	d027      	beq.n	10003762 <tud_task_ext+0x616>
10003712:	9b01      	ldr	r3, [sp, #4]
10003714:	18eb      	adds	r3, r5, r3
10003716:	199e      	adds	r6, r3, r6
10003718:	3630      	adds	r6, #48	; 0x30
1000371a:	78f3      	ldrb	r3, [r6, #3]
1000371c:	079b      	lsls	r3, r3, #30
1000371e:	d534      	bpl.n	1000378a <tud_task_ext+0x63e>
10003720:	4643      	mov	r3, r8
10003722:	2b00      	cmp	r3, #0
10003724:	d100      	bne.n	10003728 <tud_task_ext+0x5dc>
10003726:	e522      	b.n	1000316e <tud_task_ext+0x22>
10003728:	68d8      	ldr	r0, [r3, #12]
1000372a:	f000 fa49 	bl	10003bc0 <usbd_control_set_complete_callback>
1000372e:	4643      	mov	r3, r8
10003730:	2101      	movs	r1, #1
10003732:	68db      	ldr	r3, [r3, #12]
10003734:	aa0a      	add	r2, sp, #40	; 0x28
10003736:	4658      	mov	r0, fp
10003738:	4798      	blx	r3
1000373a:	2000      	movs	r0, #0
1000373c:	f000 fa40 	bl	10003bc0 <usbd_control_set_complete_callback>
10003740:	2334      	movs	r3, #52	; 0x34
10003742:	5ceb      	ldrb	r3, [r5, r3]
10003744:	07db      	lsls	r3, r3, #31
10003746:	d500      	bpl.n	1000374a <tud_task_ext+0x5fe>
10003748:	e511      	b.n	1000316e <tud_task_ext+0x22>
1000374a:	e6f5      	b.n	10003538 <tud_task_ext+0x3ec>
1000374c:	4a1e      	ldr	r2, [pc, #120]	; (100037c8 <tud_task_ext+0x67c>)
1000374e:	005e      	lsls	r6, r3, #1
10003750:	18f3      	adds	r3, r6, r3
10003752:	6816      	ldr	r6, [r2, #0]
10003754:	00db      	lsls	r3, r3, #3
10003756:	18f6      	adds	r6, r6, r3
10003758:	2e00      	cmp	r6, #0
1000375a:	d100      	bne.n	1000375e <tud_task_ext+0x612>
1000375c:	e585      	b.n	1000326a <tud_task_ext+0x11e>
1000375e:	68f0      	ldr	r0, [r6, #12]
10003760:	e704      	b.n	1000356c <tud_task_ext+0x420>
10003762:	9b01      	ldr	r3, [sp, #4]
10003764:	18eb      	adds	r3, r5, r3
10003766:	199e      	adds	r6, r3, r6
10003768:	3630      	adds	r6, #48	; 0x30
1000376a:	78f3      	ldrb	r3, [r6, #3]
1000376c:	079b      	lsls	r3, r3, #30
1000376e:	d5d7      	bpl.n	10003720 <tud_task_ext+0x5d4>
10003770:	4b1a      	ldr	r3, [pc, #104]	; (100037dc <tud_task_ext+0x690>)
10003772:	7818      	ldrb	r0, [r3, #0]
10003774:	f7ff fc06 	bl	10002f84 <dcd_edpt_clear_stall>
10003778:	2202      	movs	r2, #2
1000377a:	78f3      	ldrb	r3, [r6, #3]
1000377c:	4393      	bics	r3, r2
1000377e:	464a      	mov	r2, r9
10003780:	70f3      	strb	r3, [r6, #3]
10003782:	78f3      	ldrb	r3, [r6, #3]
10003784:	4393      	bics	r3, r2
10003786:	70f3      	strb	r3, [r6, #3]
10003788:	e7ca      	b.n	10003720 <tud_task_ext+0x5d4>
1000378a:	4b14      	ldr	r3, [pc, #80]	; (100037dc <tud_task_ext+0x690>)
1000378c:	7818      	ldrb	r0, [r3, #0]
1000378e:	f7ff fbdd 	bl	10002f4c <dcd_edpt_stall>
10003792:	2202      	movs	r2, #2
10003794:	78f3      	ldrb	r3, [r6, #3]
10003796:	4313      	orrs	r3, r2
10003798:	2201      	movs	r2, #1
1000379a:	70f3      	strb	r3, [r6, #3]
1000379c:	78f3      	ldrb	r3, [r6, #3]
1000379e:	4313      	orrs	r3, r2
100037a0:	70f3      	strb	r3, [r6, #3]
100037a2:	e7bd      	b.n	10003720 <tud_task_ext+0x5d4>
100037a4:	ab08      	add	r3, sp, #32
100037a6:	1c9a      	adds	r2, r3, #2
100037a8:	4658      	mov	r0, fp
100037aa:	2301      	movs	r3, #1
100037ac:	a90a      	add	r1, sp, #40	; 0x28
100037ae:	7016      	strb	r6, [r2, #0]
100037b0:	f000 f9a0 	bl	10003af4 <tud_control_xfer>
100037b4:	e4db      	b.n	1000316e <tud_task_ext+0x22>
100037b6:	46c0      	nop			; (mov r8, r8)
100037b8:	00000000 	.word	0x00000000
100037bc:	20001f16 	.word	0x20001f16
100037c0:	100003a5 	.word	0x100003a5
100037c4:	100049b0 	.word	0x100049b0
100037c8:	20001694 	.word	0x20001694
100037cc:	10004970 	.word	0x10004970
	...
100037dc:	2000154c 	.word	0x2000154c
100037e0:	1e58      	subs	r0, r3, #1
100037e2:	b2c0      	uxtb	r0, r0
100037e4:	f7fc ff2c 	bl	10000640 <tud_descriptor_configuration_cb>
100037e8:	2800      	cmp	r0, #0
100037ea:	d100      	bne.n	100037ee <tud_task_ext+0x6a2>
100037ec:	e53d      	b.n	1000326a <tud_task_ext+0x11e>
100037ee:	7843      	ldrb	r3, [r0, #1]
100037f0:	2b02      	cmp	r3, #2
100037f2:	d000      	beq.n	100037f6 <tud_task_ext+0x6aa>
100037f4:	e539      	b.n	1000326a <tud_task_ext+0x11e>
100037f6:	2201      	movs	r2, #1
100037f8:	2630      	movs	r6, #48	; 0x30
100037fa:	79c1      	ldrb	r1, [r0, #7]
100037fc:	118b      	asrs	r3, r1, #6
100037fe:	1149      	asrs	r1, r1, #5
10003800:	4013      	ands	r3, r2
10003802:	4011      	ands	r1, r2
10003804:	0109      	lsls	r1, r1, #4
10003806:	015b      	lsls	r3, r3, #5
10003808:	430b      	orrs	r3, r1
1000380a:	7829      	ldrb	r1, [r5, #0]
1000380c:	43b1      	bics	r1, r6
1000380e:	430b      	orrs	r3, r1
10003810:	702b      	strb	r3, [r5, #0]
10003812:	2309      	movs	r3, #9
10003814:	4699      	mov	r9, r3
10003816:	4481      	add	r9, r0
10003818:	464e      	mov	r6, r9
1000381a:	78c3      	ldrb	r3, [r0, #3]
1000381c:	7881      	ldrb	r1, [r0, #2]
1000381e:	021b      	lsls	r3, r3, #8
10003820:	430b      	orrs	r3, r1
10003822:	18c3      	adds	r3, r0, r3
10003824:	9303      	str	r3, [sp, #12]
10003826:	9207      	str	r2, [sp, #28]
10003828:	9b03      	ldr	r3, [sp, #12]
1000382a:	42b3      	cmp	r3, r6
1000382c:	d800      	bhi.n	10003830 <tud_task_ext+0x6e4>
1000382e:	e0ad      	b.n	1000398c <tud_task_ext+0x840>
10003830:	9a07      	ldr	r2, [sp, #28]
10003832:	7873      	ldrb	r3, [r6, #1]
10003834:	9204      	str	r2, [sp, #16]
10003836:	2b0b      	cmp	r3, #11
10003838:	d103      	bne.n	10003842 <tud_task_ext+0x6f6>
1000383a:	78f3      	ldrb	r3, [r6, #3]
1000383c:	9304      	str	r3, [sp, #16]
1000383e:	7833      	ldrb	r3, [r6, #0]
10003840:	18f6      	adds	r6, r6, r3
10003842:	7873      	ldrb	r3, [r6, #1]
10003844:	2b04      	cmp	r3, #4
10003846:	d000      	beq.n	1000384a <tud_task_ext+0x6fe>
10003848:	e50f      	b.n	1000326a <tud_task_ext+0x11e>
1000384a:	2100      	movs	r1, #0
1000384c:	9b03      	ldr	r3, [sp, #12]
1000384e:	4a55      	ldr	r2, [pc, #340]	; (100039a4 <tud_task_ext+0x858>)
10003850:	1b9b      	subs	r3, r3, r6
10003852:	b29b      	uxth	r3, r3
10003854:	9302      	str	r3, [sp, #8]
10003856:	4b54      	ldr	r3, [pc, #336]	; (100039a8 <tud_task_ext+0x85c>)
10003858:	4688      	mov	r8, r1
1000385a:	9305      	str	r3, [sp, #20]
1000385c:	781b      	ldrb	r3, [r3, #0]
1000385e:	428a      	cmp	r2, r1
10003860:	d068      	beq.n	10003934 <tud_task_ext+0x7e8>
10003862:	0032      	movs	r2, r6
10003864:	000e      	movs	r6, r1
10003866:	4690      	mov	r8, r2
10003868:	429e      	cmp	r6, r3
1000386a:	d356      	bcc.n	1000391a <tud_task_ext+0x7ce>
1000386c:	d000      	beq.n	10003870 <tud_task_ext+0x724>
1000386e:	e4fc      	b.n	1000326a <tud_task_ext+0x11e>
10003870:	4b4e      	ldr	r3, [pc, #312]	; (100039ac <tud_task_ext+0x860>)
10003872:	9a02      	ldr	r2, [sp, #8]
10003874:	4641      	mov	r1, r8
10003876:	4658      	mov	r0, fp
10003878:	4691      	mov	r9, r2
1000387a:	4798      	blx	r3
1000387c:	2808      	cmp	r0, #8
1000387e:	d903      	bls.n	10003888 <tud_task_ext+0x73c>
10003880:	464b      	mov	r3, r9
10003882:	4283      	cmp	r3, r0
10003884:	d300      	bcc.n	10003888 <tud_task_ext+0x73c>
10003886:	e088      	b.n	1000399a <tud_task_ext+0x84e>
10003888:	9b05      	ldr	r3, [sp, #20]
1000388a:	3601      	adds	r6, #1
1000388c:	781b      	ldrb	r3, [r3, #0]
1000388e:	b2f6      	uxtb	r6, r6
10003890:	42b3      	cmp	r3, r6
10003892:	d2e9      	bcs.n	10003868 <tud_task_ext+0x71c>
10003894:	e4e9      	b.n	1000326a <tud_task_ext+0x11e>
10003896:	4658      	mov	r0, fp
10003898:	f7ff fb42 	bl	10002f20 <dcd_edpt_close_all>
1000389c:	78ab      	ldrb	r3, [r5, #2]
1000389e:	4a41      	ldr	r2, [pc, #260]	; (100039a4 <tud_task_ext+0x858>)
100038a0:	9302      	str	r3, [sp, #8]
100038a2:	4b41      	ldr	r3, [pc, #260]	; (100039a8 <tud_task_ext+0x85c>)
100038a4:	2600      	movs	r6, #0
100038a6:	4699      	mov	r9, r3
100038a8:	781b      	ldrb	r3, [r3, #0]
100038aa:	2a00      	cmp	r2, #0
100038ac:	d00e      	beq.n	100038cc <tud_task_ext+0x780>
100038ae:	4a40      	ldr	r2, [pc, #256]	; (100039b0 <tud_task_ext+0x864>)
100038b0:	4690      	mov	r8, r2
100038b2:	429e      	cmp	r6, r3
100038b4:	d323      	bcc.n	100038fe <tud_task_ext+0x7b2>
100038b6:	d11f      	bne.n	100038f8 <tud_task_ext+0x7ac>
100038b8:	4b3e      	ldr	r3, [pc, #248]	; (100039b4 <tud_task_ext+0x868>)
100038ba:	4658      	mov	r0, fp
100038bc:	4798      	blx	r3
100038be:	464b      	mov	r3, r9
100038c0:	3601      	adds	r6, #1
100038c2:	781b      	ldrb	r3, [r3, #0]
100038c4:	b2f6      	uxtb	r6, r6
100038c6:	42b3      	cmp	r3, r6
100038c8:	d2f3      	bcs.n	100038b2 <tud_task_ext+0x766>
100038ca:	e006      	b.n	100038da <tud_task_ext+0x78e>
100038cc:	4658      	mov	r0, fp
100038ce:	f000 fad3 	bl	10003e78 <vendord_reset>
100038d2:	464b      	mov	r3, r9
100038d4:	781b      	ldrb	r3, [r3, #0]
100038d6:	2b00      	cmp	r3, #0
100038d8:	d10e      	bne.n	100038f8 <tud_task_ext+0x7ac>
100038da:	2253      	movs	r2, #83	; 0x53
100038dc:	2100      	movs	r1, #0
100038de:	0028      	movs	r0, r5
100038e0:	f7fe fe12 	bl	10002508 <__wrap_memset>
100038e4:	2210      	movs	r2, #16
100038e6:	21ff      	movs	r1, #255	; 0xff
100038e8:	1ce8      	adds	r0, r5, #3
100038ea:	f7fe fe0d 	bl	10002508 <__wrap_memset>
100038ee:	2220      	movs	r2, #32
100038f0:	21ff      	movs	r1, #255	; 0xff
100038f2:	4831      	ldr	r0, [pc, #196]	; (100039b8 <tud_task_ext+0x86c>)
100038f4:	f7fe fe08 	bl	10002508 <__wrap_memset>
100038f8:	9b02      	ldr	r3, [sp, #8]
100038fa:	70ab      	strb	r3, [r5, #2]
100038fc:	e672      	b.n	100035e4 <tud_task_ext+0x498>
100038fe:	4642      	mov	r2, r8
10003900:	2318      	movs	r3, #24
10003902:	6812      	ldr	r2, [r2, #0]
10003904:	4373      	muls	r3, r6
10003906:	4694      	mov	ip, r2
10003908:	4463      	add	r3, ip
1000390a:	2b00      	cmp	r3, #0
1000390c:	d0f4      	beq.n	100038f8 <tud_task_ext+0x7ac>
1000390e:	685b      	ldr	r3, [r3, #4]
10003910:	e7d3      	b.n	100038ba <tud_task_ext+0x76e>
10003912:	f7fc fe95 	bl	10000640 <tud_descriptor_configuration_cb>
10003916:	0002      	movs	r2, r0
10003918:	e6e4      	b.n	100036e4 <tud_task_ext+0x598>
1000391a:	4b25      	ldr	r3, [pc, #148]	; (100039b0 <tud_task_ext+0x864>)
1000391c:	681b      	ldr	r3, [r3, #0]
1000391e:	9306      	str	r3, [sp, #24]
10003920:	2318      	movs	r3, #24
10003922:	9a06      	ldr	r2, [sp, #24]
10003924:	4373      	muls	r3, r6
10003926:	4694      	mov	ip, r2
10003928:	4463      	add	r3, ip
1000392a:	2b00      	cmp	r3, #0
1000392c:	d100      	bne.n	10003930 <tud_task_ext+0x7e4>
1000392e:	e49c      	b.n	1000326a <tud_task_ext+0x11e>
10003930:	689b      	ldr	r3, [r3, #8]
10003932:	e79e      	b.n	10003872 <tud_task_ext+0x726>
10003934:	0031      	movs	r1, r6
10003936:	4658      	mov	r0, fp
10003938:	9a02      	ldr	r2, [sp, #8]
1000393a:	f000 faab 	bl	10003e94 <vendord_open>
1000393e:	4681      	mov	r9, r0
10003940:	2808      	cmp	r0, #8
10003942:	d800      	bhi.n	10003946 <tud_task_ext+0x7fa>
10003944:	e491      	b.n	1000326a <tud_task_ext+0x11e>
10003946:	9b02      	ldr	r3, [sp, #8]
10003948:	4283      	cmp	r3, r0
1000394a:	d200      	bcs.n	1000394e <tud_task_ext+0x802>
1000394c:	e48d      	b.n	1000326a <tud_task_ext+0x11e>
1000394e:	2200      	movs	r2, #0
10003950:	4640      	mov	r0, r8
10003952:	e00a      	b.n	1000396a <tud_task_ext+0x81e>
10003954:	78b3      	ldrb	r3, [r6, #2]
10003956:	18d3      	adds	r3, r2, r3
10003958:	b2db      	uxtb	r3, r3
1000395a:	18eb      	adds	r3, r5, r3
1000395c:	78d9      	ldrb	r1, [r3, #3]
1000395e:	29ff      	cmp	r1, #255	; 0xff
10003960:	d000      	beq.n	10003964 <tud_task_ext+0x818>
10003962:	e482      	b.n	1000326a <tud_task_ext+0x11e>
10003964:	3201      	adds	r2, #1
10003966:	70d8      	strb	r0, [r3, #3]
10003968:	b2d2      	uxtb	r2, r2
1000396a:	9b04      	ldr	r3, [sp, #16]
1000396c:	429a      	cmp	r2, r3
1000396e:	d1f1      	bne.n	10003954 <tud_task_ext+0x808>
10003970:	4680      	mov	r8, r0
10003972:	0003      	movs	r3, r0
10003974:	0031      	movs	r1, r6
10003976:	464a      	mov	r2, r9
10003978:	480f      	ldr	r0, [pc, #60]	; (100039b8 <tud_task_ext+0x86c>)
1000397a:	f000 fb89 	bl	10004090 <tu_edpt_bind_driver>
1000397e:	9b05      	ldr	r3, [sp, #20]
10003980:	444e      	add	r6, r9
10003982:	781b      	ldrb	r3, [r3, #0]
10003984:	4543      	cmp	r3, r8
10003986:	d300      	bcc.n	1000398a <tud_task_ext+0x83e>
10003988:	e74e      	b.n	10003828 <tud_task_ext+0x6dc>
1000398a:	e46e      	b.n	1000326a <tud_task_ext+0x11e>
1000398c:	4b0b      	ldr	r3, [pc, #44]	; (100039bc <tud_task_ext+0x870>)
1000398e:	2b00      	cmp	r3, #0
10003990:	d100      	bne.n	10003994 <tud_task_ext+0x848>
10003992:	e62b      	b.n	100035ec <tud_task_ext+0x4a0>
10003994:	e000      	b.n	10003998 <tud_task_ext+0x84c>
10003996:	bf00      	nop
10003998:	e628      	b.n	100035ec <tud_task_ext+0x4a0>
1000399a:	4643      	mov	r3, r8
1000399c:	4681      	mov	r9, r0
1000399e:	46b0      	mov	r8, r6
100039a0:	001e      	movs	r6, r3
100039a2:	e7d4      	b.n	1000394e <tud_task_ext+0x802>
100039a4:	00000000 	.word	0x00000000
100039a8:	20001f16 	.word	0x20001f16
100039ac:	10003e95 	.word	0x10003e95
100039b0:	20001694 	.word	0x20001694
100039b4:	10003e79 	.word	0x10003e79
100039b8:	20001747 	.word	0x20001747
100039bc:	00000000 	.word	0x00000000

100039c0 <usbd_open_edpt_pair>:
100039c0:	b5f8      	push	{r3, r4, r5, r6, r7, lr}
100039c2:	4657      	mov	r7, sl
100039c4:	464e      	mov	r6, r9
100039c6:	46de      	mov	lr, fp
100039c8:	4645      	mov	r5, r8
100039ca:	000c      	movs	r4, r1
100039cc:	b5e0      	push	{r5, r6, r7, lr}
100039ce:	0016      	movs	r6, r2
100039d0:	001f      	movs	r7, r3
100039d2:	2a00      	cmp	r2, #0
100039d4:	d03c      	beq.n	10003a50 <usbd_open_edpt_pair+0x90>
100039d6:	2370      	movs	r3, #112	; 0x70
100039d8:	4698      	mov	r8, r3
100039da:	4b1e      	ldr	r3, [pc, #120]	; (10003a54 <usbd_open_edpt_pair+0x94>)
100039dc:	2500      	movs	r5, #0
100039de:	469b      	mov	fp, r3
100039e0:	4b1d      	ldr	r3, [pc, #116]	; (10003a58 <usbd_open_edpt_pair+0x98>)
100039e2:	469a      	mov	sl, r3
100039e4:	e01a      	b.n	10003a1c <usbd_open_edpt_pair+0x5c>
100039e6:	465b      	mov	r3, fp
100039e8:	781b      	ldrb	r3, [r3, #0]
100039ea:	0020      	movs	r0, r4
100039ec:	4699      	mov	r9, r3
100039ee:	4653      	mov	r3, sl
100039f0:	7899      	ldrb	r1, [r3, #2]
100039f2:	f000 fb11 	bl	10004018 <tu_edpt_validate>
100039f6:	2800      	cmp	r0, #0
100039f8:	d01c      	beq.n	10003a34 <usbd_open_edpt_pair+0x74>
100039fa:	0021      	movs	r1, r4
100039fc:	4648      	mov	r0, r9
100039fe:	f7ff fa0b 	bl	10002e18 <dcd_edpt_open>
10003a02:	2800      	cmp	r0, #0
10003a04:	d016      	beq.n	10003a34 <usbd_open_edpt_pair+0x74>
10003a06:	78a3      	ldrb	r3, [r4, #2]
10003a08:	09da      	lsrs	r2, r3, #7
10003a0a:	2a01      	cmp	r2, #1
10003a0c:	d019      	beq.n	10003a42 <usbd_open_edpt_pair+0x82>
10003a0e:	9a0a      	ldr	r2, [sp, #40]	; 0x28
10003a10:	3501      	adds	r5, #1
10003a12:	7013      	strb	r3, [r2, #0]
10003a14:	7823      	ldrb	r3, [r4, #0]
10003a16:	18e4      	adds	r4, r4, r3
10003a18:	42b5      	cmp	r5, r6
10003a1a:	da19      	bge.n	10003a50 <usbd_open_edpt_pair+0x90>
10003a1c:	7863      	ldrb	r3, [r4, #1]
10003a1e:	2b05      	cmp	r3, #5
10003a20:	d108      	bne.n	10003a34 <usbd_open_edpt_pair+0x74>
10003a22:	78e3      	ldrb	r3, [r4, #3]
10003a24:	079b      	lsls	r3, r3, #30
10003a26:	0f9b      	lsrs	r3, r3, #30
10003a28:	42bb      	cmp	r3, r7
10003a2a:	d103      	bne.n	10003a34 <usbd_open_edpt_pair+0x74>
10003a2c:	4642      	mov	r2, r8
10003a2e:	78a3      	ldrb	r3, [r4, #2]
10003a30:	421a      	tst	r2, r3
10003a32:	d0d8      	beq.n	100039e6 <usbd_open_edpt_pair+0x26>
10003a34:	2000      	movs	r0, #0
10003a36:	bc3c      	pop	{r2, r3, r4, r5}
10003a38:	4690      	mov	r8, r2
10003a3a:	4699      	mov	r9, r3
10003a3c:	46a2      	mov	sl, r4
10003a3e:	46ab      	mov	fp, r5
10003a40:	bdf8      	pop	{r3, r4, r5, r6, r7, pc}
10003a42:	9a0b      	ldr	r2, [sp, #44]	; 0x2c
10003a44:	3501      	adds	r5, #1
10003a46:	7013      	strb	r3, [r2, #0]
10003a48:	7823      	ldrb	r3, [r4, #0]
10003a4a:	18e4      	adds	r4, r4, r3
10003a4c:	42b5      	cmp	r5, r6
10003a4e:	dbe5      	blt.n	10003a1c <usbd_open_edpt_pair+0x5c>
10003a50:	2001      	movs	r0, #1
10003a52:	e7f0      	b.n	10003a36 <usbd_open_edpt_pair+0x76>
10003a54:	2000154c 	.word	0x2000154c
10003a58:	20001734 	.word	0x20001734

10003a5c <usbd_edpt_xfer>:
10003a5c:	b570      	push	{r4, r5, r6, lr}
10003a5e:	247f      	movs	r4, #127	; 0x7f
10003a60:	400c      	ands	r4, r1
10003a62:	0060      	lsls	r0, r4, #1
10003a64:	4c0e      	ldr	r4, [pc, #56]	; (10003aa0 <usbd_edpt_xfer+0x44>)
10003a66:	09cd      	lsrs	r5, r1, #7
10003a68:	1824      	adds	r4, r4, r0
10003a6a:	1964      	adds	r4, r4, r5
10003a6c:	3430      	adds	r4, #48	; 0x30
10003a6e:	78e5      	ldrb	r5, [r4, #3]
10003a70:	2000      	movs	r0, #0
10003a72:	07ed      	lsls	r5, r5, #31
10003a74:	d500      	bpl.n	10003a78 <usbd_edpt_xfer+0x1c>
10003a76:	bd70      	pop	{r4, r5, r6, pc}
10003a78:	2601      	movs	r6, #1
10003a7a:	78e5      	ldrb	r5, [r4, #3]
10003a7c:	4809      	ldr	r0, [pc, #36]	; (10003aa4 <usbd_edpt_xfer+0x48>)
10003a7e:	4335      	orrs	r5, r6
10003a80:	7800      	ldrb	r0, [r0, #0]
10003a82:	70e5      	strb	r5, [r4, #3]
10003a84:	f7ff fa50 	bl	10002f28 <dcd_edpt_xfer>
10003a88:	2800      	cmp	r0, #0
10003a8a:	d1f4      	bne.n	10003a76 <usbd_edpt_xfer+0x1a>
10003a8c:	2201      	movs	r2, #1
10003a8e:	78e3      	ldrb	r3, [r4, #3]
10003a90:	4393      	bics	r3, r2
10003a92:	70e3      	strb	r3, [r4, #3]
10003a94:	78e3      	ldrb	r3, [r4, #3]
10003a96:	3203      	adds	r2, #3
10003a98:	4393      	bics	r3, r2
10003a9a:	70e3      	strb	r3, [r4, #3]
10003a9c:	e7eb      	b.n	10003a76 <usbd_edpt_xfer+0x1a>
10003a9e:	46c0      	nop			; (mov r8, r8)
10003aa0:	20001734 	.word	0x20001734
10003aa4:	2000154c 	.word	0x2000154c

10003aa8 <usbd_edpt_busy>:
10003aa8:	227f      	movs	r2, #127	; 0x7f
10003aaa:	09cb      	lsrs	r3, r1, #7
10003aac:	400a      	ands	r2, r1
10003aae:	4904      	ldr	r1, [pc, #16]	; (10003ac0 <usbd_edpt_busy+0x18>)
10003ab0:	0052      	lsls	r2, r2, #1
10003ab2:	1889      	adds	r1, r1, r2
10003ab4:	18c9      	adds	r1, r1, r3
10003ab6:	3130      	adds	r1, #48	; 0x30
10003ab8:	78c8      	ldrb	r0, [r1, #3]
10003aba:	07c0      	lsls	r0, r0, #31
10003abc:	0fc0      	lsrs	r0, r0, #31
10003abe:	4770      	bx	lr
10003ac0:	20001734 	.word	0x20001734

10003ac4 <tud_control_status>:
10003ac4:	b570      	push	{r4, r5, r6, lr}
10003ac6:	4e0a      	ldr	r6, [pc, #40]	; (10003af0 <tud_control_status+0x2c>)
10003ac8:	0005      	movs	r5, r0
10003aca:	2208      	movs	r2, #8
10003acc:	0030      	movs	r0, r6
10003ace:	000c      	movs	r4, r1
10003ad0:	f7fe fd20 	bl	10002514 <__wrap___aeabi_memcpy>
10003ad4:	2100      	movs	r1, #0
10003ad6:	5661      	ldrsb	r1, [r4, r1]
10003ad8:	2300      	movs	r3, #0
10003ada:	43c9      	mvns	r1, r1
10003adc:	0fc9      	lsrs	r1, r1, #31
10003ade:	0028      	movs	r0, r5
10003ae0:	60f3      	str	r3, [r6, #12]
10003ae2:	2200      	movs	r2, #0
10003ae4:	01c9      	lsls	r1, r1, #7
10003ae6:	60b3      	str	r3, [r6, #8]
10003ae8:	f7ff ffb8 	bl	10003a5c <usbd_edpt_xfer>
10003aec:	bd70      	pop	{r4, r5, r6, pc}
10003aee:	46c0      	nop			; (mov r8, r8)
10003af0:	20001698 	.word	0x20001698

10003af4 <tud_control_xfer>:
10003af4:	b5f8      	push	{r3, r4, r5, r6, r7, lr}
10003af6:	46ce      	mov	lr, r9
10003af8:	4647      	mov	r7, r8
10003afa:	4690      	mov	r8, r2
10003afc:	4e29      	ldr	r6, [pc, #164]	; (10003ba4 <tud_control_xfer+0xb0>)
10003afe:	b580      	push	{r7, lr}
10003b00:	4681      	mov	r9, r0
10003b02:	2208      	movs	r2, #8
10003b04:	0030      	movs	r0, r6
10003b06:	000d      	movs	r5, r1
10003b08:	001f      	movs	r7, r3
10003b0a:	f7fe fd03 	bl	10002514 <__wrap___aeabi_memcpy>
10003b0e:	4643      	mov	r3, r8
10003b10:	60b3      	str	r3, [r6, #8]
10003b12:	2300      	movs	r3, #0
10003b14:	81f3      	strh	r3, [r6, #14]
10003b16:	79ec      	ldrb	r4, [r5, #7]
10003b18:	79ab      	ldrb	r3, [r5, #6]
10003b1a:	0224      	lsls	r4, r4, #8
10003b1c:	431c      	orrs	r4, r3
10003b1e:	1c23      	adds	r3, r4, #0
10003b20:	42bc      	cmp	r4, r7
10003b22:	d900      	bls.n	10003b26 <tud_control_xfer+0x32>
10003b24:	1c3b      	adds	r3, r7, #0
10003b26:	b29f      	uxth	r7, r3
10003b28:	81b3      	strh	r3, [r6, #12]
10003b2a:	2c00      	cmp	r4, #0
10003b2c:	d012      	beq.n	10003b54 <tud_control_xfer+0x60>
10003b2e:	2f00      	cmp	r7, #0
10003b30:	d01e      	beq.n	10003b70 <tud_control_xfer+0x7c>
10003b32:	4643      	mov	r3, r8
10003b34:	2b00      	cmp	r3, #0
10003b36:	d032      	beq.n	10003b9e <tud_control_xfer+0xaa>
10003b38:	1c3b      	adds	r3, r7, #0
10003b3a:	2f40      	cmp	r7, #64	; 0x40
10003b3c:	d81e      	bhi.n	10003b7c <tud_control_xfer+0x88>
10003b3e:	b29f      	uxth	r7, r3
10003b40:	7833      	ldrb	r3, [r6, #0]
10003b42:	2b7f      	cmp	r3, #127	; 0x7f
10003b44:	d81f      	bhi.n	10003b86 <tud_control_xfer+0x92>
10003b46:	2100      	movs	r1, #0
10003b48:	4a17      	ldr	r2, [pc, #92]	; (10003ba8 <tud_control_xfer+0xb4>)
10003b4a:	003b      	movs	r3, r7
10003b4c:	4648      	mov	r0, r9
10003b4e:	f7ff ff85 	bl	10003a5c <usbd_edpt_xfer>
10003b52:	e009      	b.n	10003b68 <tud_control_xfer+0x74>
10003b54:	2100      	movs	r1, #0
10003b56:	5669      	ldrsb	r1, [r5, r1]
10003b58:	2300      	movs	r3, #0
10003b5a:	43c9      	mvns	r1, r1
10003b5c:	0fc9      	lsrs	r1, r1, #31
10003b5e:	2200      	movs	r2, #0
10003b60:	4648      	mov	r0, r9
10003b62:	01c9      	lsls	r1, r1, #7
10003b64:	f7ff ff7a 	bl	10003a5c <usbd_edpt_xfer>
10003b68:	bc0c      	pop	{r2, r3}
10003b6a:	4690      	mov	r8, r2
10003b6c:	4699      	mov	r9, r3
10003b6e:	bdf8      	pop	{r3, r4, r5, r6, r7, pc}
10003b70:	7833      	ldrb	r3, [r6, #0]
10003b72:	2b7f      	cmp	r3, #127	; 0x7f
10003b74:	d910      	bls.n	10003b98 <tud_control_xfer+0xa4>
10003b76:	2180      	movs	r1, #128	; 0x80
10003b78:	2200      	movs	r2, #0
10003b7a:	e7e6      	b.n	10003b4a <tud_control_xfer+0x56>
10003b7c:	2340      	movs	r3, #64	; 0x40
10003b7e:	b29f      	uxth	r7, r3
10003b80:	7833      	ldrb	r3, [r6, #0]
10003b82:	2b7f      	cmp	r3, #127	; 0x7f
10003b84:	d9df      	bls.n	10003b46 <tud_control_xfer+0x52>
10003b86:	4c08      	ldr	r4, [pc, #32]	; (10003ba8 <tud_control_xfer+0xb4>)
10003b88:	003a      	movs	r2, r7
10003b8a:	4641      	mov	r1, r8
10003b8c:	0020      	movs	r0, r4
10003b8e:	f7fe fcc1 	bl	10002514 <__wrap___aeabi_memcpy>
10003b92:	2180      	movs	r1, #128	; 0x80
10003b94:	0022      	movs	r2, r4
10003b96:	e7d8      	b.n	10003b4a <tud_control_xfer+0x56>
10003b98:	2100      	movs	r1, #0
10003b9a:	2200      	movs	r2, #0
10003b9c:	e7d5      	b.n	10003b4a <tud_control_xfer+0x56>
10003b9e:	2000      	movs	r0, #0
10003ba0:	e7e2      	b.n	10003b68 <tud_control_xfer+0x74>
10003ba2:	46c0      	nop			; (mov r8, r8)
10003ba4:	20001698 	.word	0x20001698
10003ba8:	200016f4 	.word	0x200016f4

10003bac <usbd_control_reset>:
10003bac:	b510      	push	{r4, lr}
10003bae:	2214      	movs	r2, #20
10003bb0:	2100      	movs	r1, #0
10003bb2:	4802      	ldr	r0, [pc, #8]	; (10003bbc <usbd_control_reset+0x10>)
10003bb4:	f7fe fca8 	bl	10002508 <__wrap_memset>
10003bb8:	bd10      	pop	{r4, pc}
10003bba:	46c0      	nop			; (mov r8, r8)
10003bbc:	20001698 	.word	0x20001698

10003bc0 <usbd_control_set_complete_callback>:
10003bc0:	4b01      	ldr	r3, [pc, #4]	; (10003bc8 <usbd_control_set_complete_callback+0x8>)
10003bc2:	6118      	str	r0, [r3, #16]
10003bc4:	4770      	bx	lr
10003bc6:	46c0      	nop			; (mov r8, r8)
10003bc8:	20001698 	.word	0x20001698

10003bcc <usbd_control_set_request>:
10003bcc:	b510      	push	{r4, lr}
10003bce:	4c05      	ldr	r4, [pc, #20]	; (10003be4 <usbd_control_set_request+0x18>)
10003bd0:	0001      	movs	r1, r0
10003bd2:	2208      	movs	r2, #8
10003bd4:	0020      	movs	r0, r4
10003bd6:	f7fe fc9d 	bl	10002514 <__wrap___aeabi_memcpy>
10003bda:	2300      	movs	r3, #0
10003bdc:	60a3      	str	r3, [r4, #8]
10003bde:	60e3      	str	r3, [r4, #12]
10003be0:	bd10      	pop	{r4, pc}
10003be2:	46c0      	nop			; (mov r8, r8)
10003be4:	20001698 	.word	0x20001698

10003be8 <usbd_control_xfer_cb>:
10003be8:	b5f8      	push	{r3, r4, r5, r6, r7, lr}
10003bea:	4c3a      	ldr	r4, [pc, #232]	; (10003cd4 <usbd_control_xfer_cb+0xec>)
10003bec:	001d      	movs	r5, r3
10003bee:	7823      	ldrb	r3, [r4, #0]
10003bf0:	0006      	movs	r6, r0
10003bf2:	09da      	lsrs	r2, r3, #7
10003bf4:	09c9      	lsrs	r1, r1, #7
10003bf6:	428a      	cmp	r2, r1
10003bf8:	d013      	beq.n	10003c22 <usbd_control_xfer_cb+0x3a>
10003bfa:	2000      	movs	r0, #0
10003bfc:	2d00      	cmp	r5, #0
10003bfe:	d000      	beq.n	10003c02 <usbd_control_xfer_cb+0x1a>
10003c00:	bdf8      	pop	{r3, r4, r5, r6, r7, pc}
10003c02:	4b35      	ldr	r3, [pc, #212]	; (10003cd8 <usbd_control_xfer_cb+0xf0>)
10003c04:	2b00      	cmp	r3, #0
10003c06:	d003      	beq.n	10003c10 <usbd_control_xfer_cb+0x28>
10003c08:	0021      	movs	r1, r4
10003c0a:	0030      	movs	r0, r6
10003c0c:	f7ff f8f6 	bl	10002dfc <dcd_edpt0_status_complete>
10003c10:	6923      	ldr	r3, [r4, #16]
10003c12:	2b00      	cmp	r3, #0
10003c14:	d043      	beq.n	10003c9e <usbd_control_xfer_cb+0xb6>
10003c16:	0022      	movs	r2, r4
10003c18:	2103      	movs	r1, #3
10003c1a:	0030      	movs	r0, r6
10003c1c:	4798      	blx	r3
10003c1e:	2001      	movs	r0, #1
10003c20:	e7ee      	b.n	10003c00 <usbd_control_xfer_cb+0x18>
10003c22:	2b7f      	cmp	r3, #127	; 0x7f
10003c24:	d806      	bhi.n	10003c34 <usbd_control_xfer_cb+0x4c>
10003c26:	68a0      	ldr	r0, [r4, #8]
10003c28:	2800      	cmp	r0, #0
10003c2a:	d036      	beq.n	10003c9a <usbd_control_xfer_cb+0xb2>
10003c2c:	002a      	movs	r2, r5
10003c2e:	492b      	ldr	r1, [pc, #172]	; (10003cdc <usbd_control_xfer_cb+0xf4>)
10003c30:	f7fe fc70 	bl	10002514 <__wrap___aeabi_memcpy>
10003c34:	68a3      	ldr	r3, [r4, #8]
10003c36:	89e2      	ldrh	r2, [r4, #14]
10003c38:	1959      	adds	r1, r3, r5
10003c3a:	1952      	adds	r2, r2, r5
10003c3c:	88e3      	ldrh	r3, [r4, #6]
10003c3e:	b292      	uxth	r2, r2
10003c40:	81e2      	strh	r2, [r4, #14]
10003c42:	60a1      	str	r1, [r4, #8]
10003c44:	4293      	cmp	r3, r2
10003c46:	d014      	beq.n	10003c72 <usbd_control_xfer_cb+0x8a>
10003c48:	2d3f      	cmp	r5, #63	; 0x3f
10003c4a:	d912      	bls.n	10003c72 <usbd_control_xfer_cb+0x8a>
10003c4c:	89a5      	ldrh	r5, [r4, #12]
10003c4e:	1aa8      	subs	r0, r5, r2
10003c50:	1c07      	adds	r7, r0, #0
10003c52:	b280      	uxth	r0, r0
10003c54:	2840      	cmp	r0, #64	; 0x40
10003c56:	d82e      	bhi.n	10003cb6 <usbd_control_xfer_cb+0xce>
10003c58:	7823      	ldrb	r3, [r4, #0]
10003c5a:	b2bf      	uxth	r7, r7
10003c5c:	2b7f      	cmp	r3, #127	; 0x7f
10003c5e:	d82c      	bhi.n	10003cba <usbd_control_xfer_cb+0xd2>
10003c60:	2100      	movs	r1, #0
10003c62:	42aa      	cmp	r2, r5
10003c64:	d034      	beq.n	10003cd0 <usbd_control_xfer_cb+0xe8>
10003c66:	4a1d      	ldr	r2, [pc, #116]	; (10003cdc <usbd_control_xfer_cb+0xf4>)
10003c68:	003b      	movs	r3, r7
10003c6a:	0030      	movs	r0, r6
10003c6c:	f7ff fef6 	bl	10003a5c <usbd_edpt_xfer>
10003c70:	e7c6      	b.n	10003c00 <usbd_control_xfer_cb+0x18>
10003c72:	6923      	ldr	r3, [r4, #16]
10003c74:	2b00      	cmp	r3, #0
10003c76:	d005      	beq.n	10003c84 <usbd_control_xfer_cb+0x9c>
10003c78:	0022      	movs	r2, r4
10003c7a:	2102      	movs	r1, #2
10003c7c:	0030      	movs	r0, r6
10003c7e:	4798      	blx	r3
10003c80:	2800      	cmp	r0, #0
10003c82:	d00e      	beq.n	10003ca2 <usbd_control_xfer_cb+0xba>
10003c84:	2100      	movs	r1, #0
10003c86:	5661      	ldrsb	r1, [r4, r1]
10003c88:	2300      	movs	r3, #0
10003c8a:	43c9      	mvns	r1, r1
10003c8c:	0fc9      	lsrs	r1, r1, #31
10003c8e:	2200      	movs	r2, #0
10003c90:	0030      	movs	r0, r6
10003c92:	01c9      	lsls	r1, r1, #7
10003c94:	f7ff fee2 	bl	10003a5c <usbd_edpt_xfer>
10003c98:	e7b2      	b.n	10003c00 <usbd_control_xfer_cb+0x18>
10003c9a:	2000      	movs	r0, #0
10003c9c:	e7b0      	b.n	10003c00 <usbd_control_xfer_cb+0x18>
10003c9e:	2001      	movs	r0, #1
10003ca0:	e7ae      	b.n	10003c00 <usbd_control_xfer_cb+0x18>
10003ca2:	2100      	movs	r1, #0
10003ca4:	0030      	movs	r0, r6
10003ca6:	f7ff f951 	bl	10002f4c <dcd_edpt_stall>
10003caa:	0030      	movs	r0, r6
10003cac:	2180      	movs	r1, #128	; 0x80
10003cae:	f7ff f94d 	bl	10002f4c <dcd_edpt_stall>
10003cb2:	2001      	movs	r0, #1
10003cb4:	e7a4      	b.n	10003c00 <usbd_control_xfer_cb+0x18>
10003cb6:	2740      	movs	r7, #64	; 0x40
10003cb8:	e7ce      	b.n	10003c58 <usbd_control_xfer_cb+0x70>
10003cba:	42aa      	cmp	r2, r5
10003cbc:	d007      	beq.n	10003cce <usbd_control_xfer_cb+0xe6>
10003cbe:	4c07      	ldr	r4, [pc, #28]	; (10003cdc <usbd_control_xfer_cb+0xf4>)
10003cc0:	003a      	movs	r2, r7
10003cc2:	0020      	movs	r0, r4
10003cc4:	f7fe fc26 	bl	10002514 <__wrap___aeabi_memcpy>
10003cc8:	2180      	movs	r1, #128	; 0x80
10003cca:	0022      	movs	r2, r4
10003ccc:	e7cc      	b.n	10003c68 <usbd_control_xfer_cb+0x80>
10003cce:	2180      	movs	r1, #128	; 0x80
10003cd0:	2200      	movs	r2, #0
10003cd2:	e7c9      	b.n	10003c68 <usbd_control_xfer_cb+0x80>
10003cd4:	20001698 	.word	0x20001698
10003cd8:	10002dfd 	.word	0x10002dfd
10003cdc:	200016f4 	.word	0x200016f4

10003ce0 <tud_vendor_n_available>:
10003ce0:	0002      	movs	r2, r0
10003ce2:	0040      	lsls	r0, r0, #1
10003ce4:	1880      	adds	r0, r0, r2
10003ce6:	b510      	push	{r4, lr}
10003ce8:	0140      	lsls	r0, r0, #5
10003cea:	1a80      	subs	r0, r0, r2
10003cec:	4b03      	ldr	r3, [pc, #12]	; (10003cfc <tud_vendor_n_available+0x1c>)
10003cee:	0080      	lsls	r0, r0, #2
10003cf0:	3004      	adds	r0, #4
10003cf2:	18c0      	adds	r0, r0, r3
10003cf4:	f000 fa1e 	bl	10004134 <tu_fifo_count>
10003cf8:	bd10      	pop	{r4, pc}
10003cfa:	46c0      	nop			; (mov r8, r8)
10003cfc:	20001798 	.word	0x20001798

10003d00 <tud_vendor_n_read>:
10003d00:	b5f0      	push	{r4, r5, r6, r7, lr}
10003d02:	46c6      	mov	lr, r8
10003d04:	0044      	lsls	r4, r0, #1
10003d06:	1824      	adds	r4, r4, r0
10003d08:	0164      	lsls	r4, r4, #5
10003d0a:	1a24      	subs	r4, r4, r0
10003d0c:	4f12      	ldr	r7, [pc, #72]	; (10003d58 <tud_vendor_n_read+0x58>)
10003d0e:	00a4      	lsls	r4, r4, #2
10003d10:	1d26      	adds	r6, r4, #4
10003d12:	19f6      	adds	r6, r6, r7
10003d14:	b500      	push	{lr}
10003d16:	0030      	movs	r0, r6
10003d18:	b292      	uxth	r2, r2
10003d1a:	f000 fa85 	bl	10004228 <tu_fifo_read_n>
10003d1e:	193b      	adds	r3, r7, r4
10003d20:	0005      	movs	r5, r0
10003d22:	7899      	ldrb	r1, [r3, #2]
10003d24:	2000      	movs	r0, #0
10003d26:	4698      	mov	r8, r3
10003d28:	f7ff febe 	bl	10003aa8 <usbd_edpt_busy>
10003d2c:	2800      	cmp	r0, #0
10003d2e:	d003      	beq.n	10003d38 <tud_vendor_n_read+0x38>
10003d30:	0028      	movs	r0, r5
10003d32:	bc04      	pop	{r2}
10003d34:	4690      	mov	r8, r2
10003d36:	bdf0      	pop	{r4, r5, r6, r7, pc}
10003d38:	0030      	movs	r0, r6
10003d3a:	f000 fa11 	bl	10004160 <tu_fifo_remaining>
10003d3e:	283f      	cmp	r0, #63	; 0x3f
10003d40:	d9f6      	bls.n	10003d30 <tud_vendor_n_read+0x30>
10003d42:	0022      	movs	r2, r4
10003d44:	4643      	mov	r3, r8
10003d46:	32fc      	adds	r2, #252	; 0xfc
10003d48:	7899      	ldrb	r1, [r3, #2]
10003d4a:	19d2      	adds	r2, r2, r7
10003d4c:	2340      	movs	r3, #64	; 0x40
10003d4e:	2000      	movs	r0, #0
10003d50:	f7ff fe84 	bl	10003a5c <usbd_edpt_xfer>
10003d54:	e7ec      	b.n	10003d30 <tud_vendor_n_read+0x30>
10003d56:	46c0      	nop			; (mov r8, r8)
10003d58:	20001798 	.word	0x20001798

10003d5c <tud_vendor_n_write>:
10003d5c:	b5f0      	push	{r4, r5, r6, r7, lr}
10003d5e:	0044      	lsls	r4, r0, #1
10003d60:	1824      	adds	r4, r4, r0
10003d62:	0164      	lsls	r4, r4, #5
10003d64:	1a24      	subs	r4, r4, r0
10003d66:	00a4      	lsls	r4, r4, #2
10003d68:	0026      	movs	r6, r4
10003d6a:	46c6      	mov	lr, r8
10003d6c:	4f15      	ldr	r7, [pc, #84]	; (10003dc4 <tud_vendor_n_write+0x68>)
10003d6e:	3618      	adds	r6, #24
10003d70:	19f6      	adds	r6, r6, r7
10003d72:	b500      	push	{lr}
10003d74:	0030      	movs	r0, r6
10003d76:	b292      	uxth	r2, r2
10003d78:	f000 fb12 	bl	100043a0 <tu_fifo_write_n>
10003d7c:	0005      	movs	r5, r0
10003d7e:	0030      	movs	r0, r6
10003d80:	f000 f9d8 	bl	10004134 <tu_fifo_count>
10003d84:	283f      	cmp	r0, #63	; 0x3f
10003d86:	d803      	bhi.n	10003d90 <tud_vendor_n_write+0x34>
10003d88:	0028      	movs	r0, r5
10003d8a:	bc04      	pop	{r2}
10003d8c:	4690      	mov	r8, r2
10003d8e:	bdf0      	pop	{r4, r5, r6, r7, pc}
10003d90:	193b      	adds	r3, r7, r4
10003d92:	2000      	movs	r0, #0
10003d94:	7859      	ldrb	r1, [r3, #1]
10003d96:	4698      	mov	r8, r3
10003d98:	f7ff fe86 	bl	10003aa8 <usbd_edpt_busy>
10003d9c:	2800      	cmp	r0, #0
10003d9e:	d1f3      	bne.n	10003d88 <tud_vendor_n_write+0x2c>
10003da0:	343d      	adds	r4, #61	; 0x3d
10003da2:	34ff      	adds	r4, #255	; 0xff
10003da4:	19e4      	adds	r4, r4, r7
10003da6:	2240      	movs	r2, #64	; 0x40
10003da8:	0021      	movs	r1, r4
10003daa:	0030      	movs	r0, r6
10003dac:	f000 fa3c 	bl	10004228 <tu_fifo_read_n>
10003db0:	1e03      	subs	r3, r0, #0
10003db2:	d0e9      	beq.n	10003d88 <tud_vendor_n_write+0x2c>
10003db4:	4642      	mov	r2, r8
10003db6:	2000      	movs	r0, #0
10003db8:	7851      	ldrb	r1, [r2, #1]
10003dba:	0022      	movs	r2, r4
10003dbc:	f7ff fe4e 	bl	10003a5c <usbd_edpt_xfer>
10003dc0:	e7e2      	b.n	10003d88 <tud_vendor_n_write+0x2c>
10003dc2:	46c0      	nop			; (mov r8, r8)
10003dc4:	20001798 	.word	0x20001798

10003dc8 <tud_vendor_n_flush>:
10003dc8:	b5f8      	push	{r3, r4, r5, r6, r7, lr}
10003dca:	0044      	lsls	r4, r0, #1
10003dcc:	1824      	adds	r4, r4, r0
10003dce:	0164      	lsls	r4, r4, #5
10003dd0:	1a24      	subs	r4, r4, r0
10003dd2:	4d11      	ldr	r5, [pc, #68]	; (10003e18 <tud_vendor_n_flush+0x50>)
10003dd4:	00a4      	lsls	r4, r4, #2
10003dd6:	192e      	adds	r6, r5, r4
10003dd8:	2000      	movs	r0, #0
10003dda:	7871      	ldrb	r1, [r6, #1]
10003ddc:	f7ff fe64 	bl	10003aa8 <usbd_edpt_busy>
10003de0:	2800      	cmp	r0, #0
10003de2:	d001      	beq.n	10003de8 <tud_vendor_n_flush+0x20>
10003de4:	2000      	movs	r0, #0
10003de6:	bdf8      	pop	{r3, r4, r5, r6, r7, pc}
10003de8:	0027      	movs	r7, r4
10003dea:	0020      	movs	r0, r4
10003dec:	373d      	adds	r7, #61	; 0x3d
10003dee:	37ff      	adds	r7, #255	; 0xff
10003df0:	197f      	adds	r7, r7, r5
10003df2:	3018      	adds	r0, #24
10003df4:	2240      	movs	r2, #64	; 0x40
10003df6:	0039      	movs	r1, r7
10003df8:	1940      	adds	r0, r0, r5
10003dfa:	f000 fa15 	bl	10004228 <tu_fifo_read_n>
10003dfe:	1e04      	subs	r4, r0, #0
10003e00:	d0f0      	beq.n	10003de4 <tud_vendor_n_flush+0x1c>
10003e02:	0003      	movs	r3, r0
10003e04:	003a      	movs	r2, r7
10003e06:	2000      	movs	r0, #0
10003e08:	7871      	ldrb	r1, [r6, #1]
10003e0a:	f7ff fe27 	bl	10003a5c <usbd_edpt_xfer>
10003e0e:	2800      	cmp	r0, #0
10003e10:	d0e8      	beq.n	10003de4 <tud_vendor_n_flush+0x1c>
10003e12:	0020      	movs	r0, r4
10003e14:	e7e7      	b.n	10003de6 <tud_vendor_n_flush+0x1e>
10003e16:	46c0      	nop			; (mov r8, r8)
10003e18:	20001798 	.word	0x20001798

10003e1c <vendord_init>:
10003e1c:	22be      	movs	r2, #190	; 0xbe
10003e1e:	b570      	push	{r4, r5, r6, lr}
10003e20:	4c14      	ldr	r4, [pc, #80]	; (10003e74 <vendord_init+0x58>)
10003e22:	b082      	sub	sp, #8
10003e24:	2100      	movs	r1, #0
10003e26:	0020      	movs	r0, r4
10003e28:	0052      	lsls	r2, r2, #1
10003e2a:	f7fe fb6d 	bl	10002508 <__wrap_memset>
10003e2e:	2500      	movs	r5, #0
10003e30:	0021      	movs	r1, r4
10003e32:	2301      	movs	r3, #1
10003e34:	2280      	movs	r2, #128	; 0x80
10003e36:	312c      	adds	r1, #44	; 0x2c
10003e38:	1d20      	adds	r0, r4, #4
10003e3a:	9500      	str	r5, [sp, #0]
10003e3c:	f000 f942 	bl	100040c4 <tu_fifo_config>
10003e40:	0026      	movs	r6, r4
10003e42:	0021      	movs	r1, r4
10003e44:	0020      	movs	r0, r4
10003e46:	2301      	movs	r3, #1
10003e48:	2240      	movs	r2, #64	; 0x40
10003e4a:	31ac      	adds	r1, #172	; 0xac
10003e4c:	36ec      	adds	r6, #236	; 0xec
10003e4e:	9500      	str	r5, [sp, #0]
10003e50:	3018      	adds	r0, #24
10003e52:	f000 f937 	bl	100040c4 <tu_fifo_config>
10003e56:	0030      	movs	r0, r6
10003e58:	f7fd f81e 	bl	10000e98 <mutex_init>
10003e5c:	6166      	str	r6, [r4, #20]
10003e5e:	0026      	movs	r6, r4
10003e60:	36f4      	adds	r6, #244	; 0xf4
10003e62:	0030      	movs	r0, r6
10003e64:	6125      	str	r5, [r4, #16]
10003e66:	f7fd f817 	bl	10000e98 <mutex_init>
10003e6a:	6266      	str	r6, [r4, #36]	; 0x24
10003e6c:	62a5      	str	r5, [r4, #40]	; 0x28
10003e6e:	b002      	add	sp, #8
10003e70:	bd70      	pop	{r4, r5, r6, pc}
10003e72:	46c0      	nop			; (mov r8, r8)
10003e74:	20001798 	.word	0x20001798

10003e78 <vendord_reset>:
10003e78:	b510      	push	{r4, lr}
10003e7a:	4c05      	ldr	r4, [pc, #20]	; (10003e90 <vendord_reset+0x18>)
10003e7c:	2300      	movs	r3, #0
10003e7e:	0020      	movs	r0, r4
10003e80:	c008      	stmia	r0!, {r3}
10003e82:	f000 fb39 	bl	100044f8 <tu_fifo_clear>
10003e86:	0020      	movs	r0, r4
10003e88:	3018      	adds	r0, #24
10003e8a:	f000 fb35 	bl	100044f8 <tu_fifo_clear>
10003e8e:	bd10      	pop	{r4, pc}
10003e90:	20001798 	.word	0x20001798

10003e94 <vendord_open>:
10003e94:	b5f0      	push	{r4, r5, r6, r7, lr}
10003e96:	46c6      	mov	lr, r8
10003e98:	b500      	push	{lr}
10003e9a:	794b      	ldrb	r3, [r1, #5]
10003e9c:	4680      	mov	r8, r0
10003e9e:	000f      	movs	r7, r1
10003ea0:	b082      	sub	sp, #8
10003ea2:	2bff      	cmp	r3, #255	; 0xff
10003ea4:	d004      	beq.n	10003eb0 <vendord_open+0x1c>
10003ea6:	2000      	movs	r0, #0
10003ea8:	b002      	add	sp, #8
10003eaa:	bc04      	pop	{r2}
10003eac:	4690      	mov	r8, r2
10003eae:	bdf0      	pop	{r4, r5, r6, r7, pc}
10003eb0:	4e27      	ldr	r6, [pc, #156]	; (10003f50 <vendord_open+0xbc>)
10003eb2:	7873      	ldrb	r3, [r6, #1]
10003eb4:	78b5      	ldrb	r5, [r6, #2]
10003eb6:	432b      	orrs	r3, r5
10003eb8:	d1f5      	bne.n	10003ea6 <vendord_open+0x12>
10003eba:	788b      	ldrb	r3, [r1, #2]
10003ebc:	780c      	ldrb	r4, [r1, #0]
10003ebe:	7033      	strb	r3, [r6, #0]
10003ec0:	7908      	ldrb	r0, [r1, #4]
10003ec2:	190c      	adds	r4, r1, r4
10003ec4:	2800      	cmp	r0, #0
10003ec6:	d021      	beq.n	10003f0c <vendord_open+0x78>
10003ec8:	7863      	ldrb	r3, [r4, #1]
10003eca:	2b05      	cmp	r3, #5
10003ecc:	d008      	beq.n	10003ee0 <vendord_open+0x4c>
10003ece:	18a2      	adds	r2, r4, r2
10003ed0:	e004      	b.n	10003edc <vendord_open+0x48>
10003ed2:	7821      	ldrb	r1, [r4, #0]
10003ed4:	1864      	adds	r4, r4, r1
10003ed6:	7861      	ldrb	r1, [r4, #1]
10003ed8:	2905      	cmp	r1, #5
10003eda:	d001      	beq.n	10003ee0 <vendord_open+0x4c>
10003edc:	4294      	cmp	r4, r2
10003ede:	d3f8      	bcc.n	10003ed2 <vendord_open+0x3e>
10003ee0:	4d1c      	ldr	r5, [pc, #112]	; (10003f54 <vendord_open+0xc0>)
10003ee2:	0002      	movs	r2, r0
10003ee4:	1c6b      	adds	r3, r5, #1
10003ee6:	9300      	str	r3, [sp, #0]
10003ee8:	0021      	movs	r1, r4
10003eea:	2302      	movs	r3, #2
10003eec:	4640      	mov	r0, r8
10003eee:	9501      	str	r5, [sp, #4]
10003ef0:	f7ff fd66 	bl	100039c0 <usbd_open_edpt_pair>
10003ef4:	2800      	cmp	r0, #0
10003ef6:	d0d6      	beq.n	10003ea6 <vendord_open+0x12>
10003ef8:	793a      	ldrb	r2, [r7, #4]
10003efa:	7869      	ldrb	r1, [r5, #1]
10003efc:	00d3      	lsls	r3, r2, #3
10003efe:	1a9b      	subs	r3, r3, r2
10003f00:	18e4      	adds	r4, r4, r3
10003f02:	2900      	cmp	r1, #0
10003f04:	d11b      	bne.n	10003f3e <vendord_open+0xaa>
10003f06:	7871      	ldrb	r1, [r6, #1]
10003f08:	2900      	cmp	r1, #0
10003f0a:	d102      	bne.n	10003f12 <vendord_open+0x7e>
10003f0c:	1be0      	subs	r0, r4, r7
10003f0e:	b280      	uxth	r0, r0
10003f10:	e7ca      	b.n	10003ea8 <vendord_open+0x14>
10003f12:	2000      	movs	r0, #0
10003f14:	f7ff fdc8 	bl	10003aa8 <usbd_edpt_busy>
10003f18:	2800      	cmp	r0, #0
10003f1a:	d1f7      	bne.n	10003f0c <vendord_open+0x78>
10003f1c:	0035      	movs	r5, r6
10003f1e:	0030      	movs	r0, r6
10003f20:	353d      	adds	r5, #61	; 0x3d
10003f22:	35ff      	adds	r5, #255	; 0xff
10003f24:	2240      	movs	r2, #64	; 0x40
10003f26:	0029      	movs	r1, r5
10003f28:	3018      	adds	r0, #24
10003f2a:	f000 f97d 	bl	10004228 <tu_fifo_read_n>
10003f2e:	1e03      	subs	r3, r0, #0
10003f30:	d0ec      	beq.n	10003f0c <vendord_open+0x78>
10003f32:	002a      	movs	r2, r5
10003f34:	7871      	ldrb	r1, [r6, #1]
10003f36:	2000      	movs	r0, #0
10003f38:	f7ff fd90 	bl	10003a5c <usbd_edpt_xfer>
10003f3c:	e7e6      	b.n	10003f0c <vendord_open+0x78>
10003f3e:	002a      	movs	r2, r5
10003f40:	2340      	movs	r3, #64	; 0x40
10003f42:	4640      	mov	r0, r8
10003f44:	32fb      	adds	r2, #251	; 0xfb
10003f46:	f7ff fd89 	bl	10003a5c <usbd_edpt_xfer>
10003f4a:	2800      	cmp	r0, #0
10003f4c:	d1db      	bne.n	10003f06 <vendord_open+0x72>
10003f4e:	e7aa      	b.n	10003ea6 <vendord_open+0x12>
10003f50:	20001798 	.word	0x20001798
10003f54:	20001799 	.word	0x20001799

10003f58 <vendord_xfer_cb>:
10003f58:	b510      	push	{r4, lr}
10003f5a:	4c26      	ldr	r4, [pc, #152]	; (10003ff4 <vendord_xfer_cb+0x9c>)
10003f5c:	78a2      	ldrb	r2, [r4, #2]
10003f5e:	428a      	cmp	r2, r1
10003f60:	d01d      	beq.n	10003f9e <vendord_xfer_cb+0x46>
10003f62:	7862      	ldrb	r2, [r4, #1]
10003f64:	2000      	movs	r0, #0
10003f66:	428a      	cmp	r2, r1
10003f68:	d118      	bne.n	10003f9c <vendord_xfer_cb+0x44>
10003f6a:	4a23      	ldr	r2, [pc, #140]	; (10003ff8 <vendord_xfer_cb+0xa0>)
10003f6c:	2a00      	cmp	r2, #0
10003f6e:	d005      	beq.n	10003f7c <vendord_xfer_cb+0x24>
10003f70:	041b      	lsls	r3, r3, #16
10003f72:	0c19      	lsrs	r1, r3, #16
10003f74:	2000      	movs	r0, #0
10003f76:	e000      	b.n	10003f7a <vendord_xfer_cb+0x22>
10003f78:	bf00      	nop
10003f7a:	7861      	ldrb	r1, [r4, #1]
10003f7c:	2000      	movs	r0, #0
10003f7e:	f7ff fd93 	bl	10003aa8 <usbd_edpt_busy>
10003f82:	2800      	cmp	r0, #0
10003f84:	d109      	bne.n	10003f9a <vendord_xfer_cb+0x42>
10003f86:	4c1d      	ldr	r4, [pc, #116]	; (10003ffc <vendord_xfer_cb+0xa4>)
10003f88:	2240      	movs	r2, #64	; 0x40
10003f8a:	0020      	movs	r0, r4
10003f8c:	3825      	subs	r0, #37	; 0x25
10003f8e:	0021      	movs	r1, r4
10003f90:	38ff      	subs	r0, #255	; 0xff
10003f92:	f000 f949 	bl	10004228 <tu_fifo_read_n>
10003f96:	1e03      	subs	r3, r0, #0
10003f98:	d121      	bne.n	10003fde <vendord_xfer_cb+0x86>
10003f9a:	2001      	movs	r0, #1
10003f9c:	bd10      	pop	{r4, pc}
10003f9e:	0021      	movs	r1, r4
10003fa0:	b29a      	uxth	r2, r3
10003fa2:	31fc      	adds	r1, #252	; 0xfc
10003fa4:	1d20      	adds	r0, r4, #4
10003fa6:	f000 f9fb 	bl	100043a0 <tu_fifo_write_n>
10003faa:	4b15      	ldr	r3, [pc, #84]	; (10004000 <vendord_xfer_cb+0xa8>)
10003fac:	2b00      	cmp	r3, #0
10003fae:	d002      	beq.n	10003fb6 <vendord_xfer_cb+0x5e>
10003fb0:	2000      	movs	r0, #0
10003fb2:	e000      	b.n	10003fb6 <vendord_xfer_cb+0x5e>
10003fb4:	bf00      	nop
10003fb6:	2000      	movs	r0, #0
10003fb8:	78a1      	ldrb	r1, [r4, #2]
10003fba:	f7ff fd75 	bl	10003aa8 <usbd_edpt_busy>
10003fbe:	2800      	cmp	r0, #0
10003fc0:	d1eb      	bne.n	10003f9a <vendord_xfer_cb+0x42>
10003fc2:	1d20      	adds	r0, r4, #4
10003fc4:	f000 f8cc 	bl	10004160 <tu_fifo_remaining>
10003fc8:	283f      	cmp	r0, #63	; 0x3f
10003fca:	d9e6      	bls.n	10003f9a <vendord_xfer_cb+0x42>
10003fcc:	0022      	movs	r2, r4
10003fce:	2340      	movs	r3, #64	; 0x40
10003fd0:	2000      	movs	r0, #0
10003fd2:	78a1      	ldrb	r1, [r4, #2]
10003fd4:	32fc      	adds	r2, #252	; 0xfc
10003fd6:	f7ff fd41 	bl	10003a5c <usbd_edpt_xfer>
10003fda:	2001      	movs	r0, #1
10003fdc:	e7de      	b.n	10003f9c <vendord_xfer_cb+0x44>
10003fde:	0022      	movs	r2, r4
10003fe0:	3a3d      	subs	r2, #61	; 0x3d
10003fe2:	3aff      	subs	r2, #255	; 0xff
10003fe4:	7851      	ldrb	r1, [r2, #1]
10003fe6:	2000      	movs	r0, #0
10003fe8:	0022      	movs	r2, r4
10003fea:	f7ff fd37 	bl	10003a5c <usbd_edpt_xfer>
10003fee:	2001      	movs	r0, #1
10003ff0:	e7d4      	b.n	10003f9c <vendord_xfer_cb+0x44>
10003ff2:	46c0      	nop			; (mov r8, r8)
10003ff4:	20001798 	.word	0x20001798
10003ff8:	00000000 	.word	0x00000000
10003ffc:	200018d4 	.word	0x200018d4
10004000:	00000000 	.word	0x00000000

10004004 <tusb_init>:
10004004:	b510      	push	{r4, lr}
10004006:	2000      	movs	r0, #0
10004008:	f7ff f82e 	bl	10003068 <tud_init>
1000400c:	bd10      	pop	{r4, pc}
1000400e:	46c0      	nop			; (mov r8, r8)

10004010 <tusb_inited>:
10004010:	b510      	push	{r4, lr}
10004012:	f7ff f81f 	bl	10003054 <tud_inited>
10004016:	bd10      	pop	{r4, pc}

10004018 <tu_edpt_validate>:
10004018:	7943      	ldrb	r3, [r0, #5]
1000401a:	7902      	ldrb	r2, [r0, #4]
1000401c:	021b      	lsls	r3, r3, #8
1000401e:	4313      	orrs	r3, r2
10004020:	055b      	lsls	r3, r3, #21
10004022:	0d5a      	lsrs	r2, r3, #21
10004024:	78c3      	ldrb	r3, [r0, #3]
10004026:	079b      	lsls	r3, r3, #30
10004028:	0f9b      	lsrs	r3, r3, #30
1000402a:	2b02      	cmp	r3, #2
1000402c:	d005      	beq.n	1000403a <tu_edpt_validate+0x22>
1000402e:	2b03      	cmp	r3, #3
10004030:	d015      	beq.n	1000405e <tu_edpt_validate+0x46>
10004032:	2000      	movs	r0, #0
10004034:	2b01      	cmp	r3, #1
10004036:	d008      	beq.n	1000404a <tu_edpt_validate+0x32>
10004038:	4770      	bx	lr
1000403a:	2902      	cmp	r1, #2
1000403c:	d01c      	beq.n	10004078 <tu_edpt_validate+0x60>
1000403e:	2000      	movs	r0, #0
10004040:	2340      	movs	r3, #64	; 0x40
10004042:	4293      	cmp	r3, r2
10004044:	4140      	adcs	r0, r0
10004046:	b2c0      	uxtb	r0, r0
10004048:	e7f6      	b.n	10004038 <tu_edpt_validate+0x20>
1000404a:	3902      	subs	r1, #2
1000404c:	424b      	negs	r3, r1
1000404e:	4159      	adcs	r1, r3
10004050:	4b0d      	ldr	r3, [pc, #52]	; (10004088 <tu_edpt_validate+0x70>)
10004052:	469c      	mov	ip, r3
10004054:	4461      	add	r1, ip
10004056:	4291      	cmp	r1, r2
10004058:	4140      	adcs	r0, r0
1000405a:	b2c0      	uxtb	r0, r0
1000405c:	e7ec      	b.n	10004038 <tu_edpt_validate+0x20>
1000405e:	3902      	subs	r1, #2
10004060:	424b      	negs	r3, r1
10004062:	4159      	adcs	r1, r3
10004064:	23f0      	movs	r3, #240	; 0xf0
10004066:	2000      	movs	r0, #0
10004068:	4249      	negs	r1, r1
1000406a:	009b      	lsls	r3, r3, #2
1000406c:	4019      	ands	r1, r3
1000406e:	3140      	adds	r1, #64	; 0x40
10004070:	4291      	cmp	r1, r2
10004072:	4140      	adcs	r0, r0
10004074:	b2c0      	uxtb	r0, r0
10004076:	e7df      	b.n	10004038 <tu_edpt_validate+0x20>
10004078:	4b04      	ldr	r3, [pc, #16]	; (1000408c <tu_edpt_validate+0x74>)
1000407a:	469c      	mov	ip, r3
1000407c:	4462      	add	r2, ip
1000407e:	4250      	negs	r0, r2
10004080:	4150      	adcs	r0, r2
10004082:	b2c0      	uxtb	r0, r0
10004084:	e7d8      	b.n	10004038 <tu_edpt_validate+0x20>
10004086:	46c0      	nop			; (mov r8, r8)
10004088:	000003ff 	.word	0x000003ff
1000408c:	fffffe00 	.word	0xfffffe00

10004090 <tu_edpt_bind_driver>:
10004090:	188a      	adds	r2, r1, r2
10004092:	b570      	push	{r4, r5, r6, lr}
10004094:	4291      	cmp	r1, r2
10004096:	d207      	bcs.n	100040a8 <tu_edpt_bind_driver+0x18>
10004098:	267f      	movs	r6, #127	; 0x7f
1000409a:	784c      	ldrb	r4, [r1, #1]
1000409c:	2c05      	cmp	r4, #5
1000409e:	d004      	beq.n	100040aa <tu_edpt_bind_driver+0x1a>
100040a0:	780c      	ldrb	r4, [r1, #0]
100040a2:	1909      	adds	r1, r1, r4
100040a4:	428a      	cmp	r2, r1
100040a6:	d8f8      	bhi.n	1000409a <tu_edpt_bind_driver+0xa>
100040a8:	bd70      	pop	{r4, r5, r6, pc}
100040aa:	0034      	movs	r4, r6
100040ac:	788d      	ldrb	r5, [r1, #2]
100040ae:	402c      	ands	r4, r5
100040b0:	0064      	lsls	r4, r4, #1
100040b2:	1904      	adds	r4, r0, r4
100040b4:	09ed      	lsrs	r5, r5, #7
100040b6:	5563      	strb	r3, [r4, r5]
100040b8:	780c      	ldrb	r4, [r1, #0]
100040ba:	1909      	adds	r1, r1, r4
100040bc:	428a      	cmp	r2, r1
100040be:	d8ec      	bhi.n	1000409a <tu_edpt_bind_driver+0xa>
100040c0:	e7f2      	b.n	100040a8 <tu_edpt_bind_driver+0x18>
100040c2:	46c0      	nop			; (mov r8, r8)

100040c4 <tu_fifo_config>:
100040c4:	b5f0      	push	{r4, r5, r6, r7, lr}
100040c6:	46c6      	mov	lr, r8
100040c8:	b500      	push	{lr}
100040ca:	0004      	movs	r4, r0
100040cc:	a806      	add	r0, sp, #24
100040ce:	7805      	ldrb	r5, [r0, #0]
100040d0:	2080      	movs	r0, #128	; 0x80
100040d2:	4688      	mov	r8, r1
100040d4:	0017      	movs	r7, r2
100040d6:	001e      	movs	r6, r3
100040d8:	0200      	lsls	r0, r0, #8
100040da:	4282      	cmp	r2, r0
100040dc:	d827      	bhi.n	1000412e <tu_fifo_config+0x6a>
100040de:	68e0      	ldr	r0, [r4, #12]
100040e0:	2800      	cmp	r0, #0
100040e2:	d003      	beq.n	100040ec <tu_fifo_config+0x28>
100040e4:	2101      	movs	r1, #1
100040e6:	4249      	negs	r1, r1
100040e8:	f000 faa6 	bl	10004638 <__mutex_enter_timeout_ms_veneer>
100040ec:	6920      	ldr	r0, [r4, #16]
100040ee:	2800      	cmp	r0, #0
100040f0:	d003      	beq.n	100040fa <tu_fifo_config+0x36>
100040f2:	2101      	movs	r1, #1
100040f4:	4249      	negs	r1, r1
100040f6:	f000 fa9f 	bl	10004638 <__mutex_enter_timeout_ms_veneer>
100040fa:	4643      	mov	r3, r8
100040fc:	6023      	str	r3, [r4, #0]
100040fe:	0473      	lsls	r3, r6, #17
10004100:	0c5b      	lsrs	r3, r3, #17
10004102:	03ed      	lsls	r5, r5, #15
10004104:	431d      	orrs	r5, r3
10004106:	2300      	movs	r3, #0
10004108:	68e0      	ldr	r0, [r4, #12]
1000410a:	8163      	strh	r3, [r4, #10]
1000410c:	80a7      	strh	r7, [r4, #4]
1000410e:	80e5      	strh	r5, [r4, #6]
10004110:	8123      	strh	r3, [r4, #8]
10004112:	2800      	cmp	r0, #0
10004114:	d001      	beq.n	1000411a <tu_fifo_config+0x56>
10004116:	f000 fa6f 	bl	100045f8 <__mutex_exit_veneer>
1000411a:	6920      	ldr	r0, [r4, #16]
1000411c:	2401      	movs	r4, #1
1000411e:	2800      	cmp	r0, #0
10004120:	d001      	beq.n	10004126 <tu_fifo_config+0x62>
10004122:	f000 fa69 	bl	100045f8 <__mutex_exit_veneer>
10004126:	0020      	movs	r0, r4
10004128:	bc04      	pop	{r2}
1000412a:	4690      	mov	r8, r2
1000412c:	bdf0      	pop	{r4, r5, r6, r7, pc}
1000412e:	2400      	movs	r4, #0
10004130:	e7f9      	b.n	10004126 <tu_fifo_config+0x62>
10004132:	46c0      	nop			; (mov r8, r8)

10004134 <tu_fifo_count>:
10004134:	b510      	push	{r4, lr}
10004136:	8904      	ldrh	r4, [r0, #8]
10004138:	8941      	ldrh	r1, [r0, #10]
1000413a:	8882      	ldrh	r2, [r0, #4]
1000413c:	b2a3      	uxth	r3, r4
1000413e:	b288      	uxth	r0, r1
10004140:	428c      	cmp	r4, r1
10004142:	d307      	bcc.n	10004154 <tu_fifo_count+0x20>
10004144:	1a1b      	subs	r3, r3, r0
10004146:	b29b      	uxth	r3, r3
10004148:	1c10      	adds	r0, r2, #0
1000414a:	429a      	cmp	r2, r3
1000414c:	d900      	bls.n	10004150 <tu_fifo_count+0x1c>
1000414e:	1c18      	adds	r0, r3, #0
10004150:	b280      	uxth	r0, r0
10004152:	bd10      	pop	{r4, pc}
10004154:	0051      	lsls	r1, r2, #1
10004156:	1a09      	subs	r1, r1, r0
10004158:	185b      	adds	r3, r3, r1
1000415a:	b29b      	uxth	r3, r3
1000415c:	e7f4      	b.n	10004148 <tu_fifo_count+0x14>
1000415e:	46c0      	nop			; (mov r8, r8)

10004160 <tu_fifo_remaining>:
10004160:	b530      	push	{r4, r5, lr}
10004162:	8904      	ldrh	r4, [r0, #8]
10004164:	8941      	ldrh	r1, [r0, #10]
10004166:	8882      	ldrh	r2, [r0, #4]
10004168:	b2a3      	uxth	r3, r4
1000416a:	b28d      	uxth	r5, r1
1000416c:	428c      	cmp	r4, r1
1000416e:	d307      	bcc.n	10004180 <tu_fifo_remaining+0x20>
10004170:	1b5b      	subs	r3, r3, r5
10004172:	b29b      	uxth	r3, r3
10004174:	2000      	movs	r0, #0
10004176:	429a      	cmp	r2, r3
10004178:	d901      	bls.n	1000417e <tu_fifo_remaining+0x1e>
1000417a:	1ad3      	subs	r3, r2, r3
1000417c:	b298      	uxth	r0, r3
1000417e:	bd30      	pop	{r4, r5, pc}
10004180:	0050      	lsls	r0, r2, #1
10004182:	1b40      	subs	r0, r0, r5
10004184:	181b      	adds	r3, r3, r0
10004186:	b29b      	uxth	r3, r3
10004188:	e7f4      	b.n	10004174 <tu_fifo_remaining+0x14>
1000418a:	46c0      	nop			; (mov r8, r8)

1000418c <tu_fifo_read>:
1000418c:	b570      	push	{r4, r5, r6, lr}
1000418e:	0004      	movs	r4, r0
10004190:	6900      	ldr	r0, [r0, #16]
10004192:	000d      	movs	r5, r1
10004194:	2800      	cmp	r0, #0
10004196:	d003      	beq.n	100041a0 <tu_fifo_read+0x14>
10004198:	2101      	movs	r1, #1
1000419a:	4249      	negs	r1, r1
1000419c:	f000 fa4c 	bl	10004638 <__mutex_enter_timeout_ms_veneer>
100041a0:	8926      	ldrh	r6, [r4, #8]
100041a2:	8962      	ldrh	r2, [r4, #10]
100041a4:	88a0      	ldrh	r0, [r4, #4]
100041a6:	b2b1      	uxth	r1, r6
100041a8:	b293      	uxth	r3, r2
100041aa:	4296      	cmp	r6, r2
100041ac:	d333      	bcc.n	10004216 <tu_fifo_read+0x8a>
100041ae:	1aca      	subs	r2, r1, r3
100041b0:	b292      	uxth	r2, r2
100041b2:	2a00      	cmp	r2, #0
100041b4:	d028      	beq.n	10004208 <tu_fifo_read+0x7c>
100041b6:	4290      	cmp	r0, r2
100041b8:	d208      	bcs.n	100041cc <tu_fifo_read+0x40>
100041ba:	4281      	cmp	r1, r0
100041bc:	d330      	bcc.n	10004220 <tu_fifo_read+0x94>
100041be:	1a0b      	subs	r3, r1, r0
100041c0:	b29b      	uxth	r3, r3
100041c2:	8163      	strh	r3, [r4, #10]
100041c4:	4298      	cmp	r0, r3
100041c6:	d803      	bhi.n	100041d0 <tu_fifo_read+0x44>
100041c8:	1a1b      	subs	r3, r3, r0
100041ca:	b29b      	uxth	r3, r3
100041cc:	4298      	cmp	r0, r3
100041ce:	d9fb      	bls.n	100041c8 <tu_fifo_read+0x3c>
100041d0:	88e2      	ldrh	r2, [r4, #6]
100041d2:	6821      	ldr	r1, [r4, #0]
100041d4:	0452      	lsls	r2, r2, #17
100041d6:	0c52      	lsrs	r2, r2, #17
100041d8:	4353      	muls	r3, r2
100041da:	0028      	movs	r0, r5
100041dc:	18c9      	adds	r1, r1, r3
100041de:	f7fe f999 	bl	10002514 <__wrap___aeabi_memcpy>
100041e2:	8961      	ldrh	r1, [r4, #10]
100041e4:	2501      	movs	r5, #1
100041e6:	1c4b      	adds	r3, r1, #1
100041e8:	b29b      	uxth	r3, r3
100041ea:	88a0      	ldrh	r0, [r4, #4]
100041ec:	4299      	cmp	r1, r3
100041ee:	d90e      	bls.n	1000420e <tu_fifo_read+0x82>
100041f0:	2300      	movs	r3, #0
100041f2:	0040      	lsls	r0, r0, #1
100041f4:	1a1b      	subs	r3, r3, r0
100041f6:	b29b      	uxth	r3, r3
100041f8:	6920      	ldr	r0, [r4, #16]
100041fa:	8163      	strh	r3, [r4, #10]
100041fc:	2800      	cmp	r0, #0
100041fe:	d001      	beq.n	10004204 <tu_fifo_read+0x78>
10004200:	f000 f9fa 	bl	100045f8 <__mutex_exit_veneer>
10004204:	0028      	movs	r0, r5
10004206:	bd70      	pop	{r4, r5, r6, pc}
10004208:	2500      	movs	r5, #0
1000420a:	8963      	ldrh	r3, [r4, #10]
1000420c:	b29b      	uxth	r3, r3
1000420e:	0040      	lsls	r0, r0, #1
10004210:	4283      	cmp	r3, r0
10004212:	dbf1      	blt.n	100041f8 <tu_fifo_read+0x6c>
10004214:	e7ee      	b.n	100041f4 <tu_fifo_read+0x68>
10004216:	0042      	lsls	r2, r0, #1
10004218:	1ad2      	subs	r2, r2, r3
1000421a:	188a      	adds	r2, r1, r2
1000421c:	b292      	uxth	r2, r2
1000421e:	e7c8      	b.n	100041b2 <tu_fifo_read+0x26>
10004220:	1809      	adds	r1, r1, r0
10004222:	b28b      	uxth	r3, r1
10004224:	8163      	strh	r3, [r4, #10]
10004226:	e7cd      	b.n	100041c4 <tu_fifo_read+0x38>

10004228 <tu_fifo_read_n>:
10004228:	b5f0      	push	{r4, r5, r6, r7, lr}
1000422a:	464f      	mov	r7, r9
1000422c:	4646      	mov	r6, r8
1000422e:	46d6      	mov	lr, sl
10004230:	0004      	movs	r4, r0
10004232:	6900      	ldr	r0, [r0, #16]
10004234:	4689      	mov	r9, r1
10004236:	4690      	mov	r8, r2
10004238:	b5c0      	push	{r6, r7, lr}
1000423a:	2800      	cmp	r0, #0
1000423c:	d003      	beq.n	10004246 <tu_fifo_read_n+0x1e>
1000423e:	2101      	movs	r1, #1
10004240:	4249      	negs	r1, r1
10004242:	f000 f9f9 	bl	10004638 <__mutex_enter_timeout_ms_veneer>
10004246:	8921      	ldrh	r1, [r4, #8]
10004248:	8963      	ldrh	r3, [r4, #10]
1000424a:	88a7      	ldrh	r7, [r4, #4]
1000424c:	b28a      	uxth	r2, r1
1000424e:	b29d      	uxth	r5, r3
10004250:	4299      	cmp	r1, r3
10004252:	d349      	bcc.n	100042e8 <tu_fifo_read_n+0xc0>
10004254:	1b56      	subs	r6, r2, r5
10004256:	b2b6      	uxth	r6, r6
10004258:	2e00      	cmp	r6, #0
1000425a:	d04b      	beq.n	100042f4 <tu_fifo_read_n+0xcc>
1000425c:	42b7      	cmp	r7, r6
1000425e:	d205      	bcs.n	1000426c <tu_fifo_read_n+0x44>
10004260:	42ba      	cmp	r2, r7
10004262:	d255      	bcs.n	10004310 <tu_fifo_read_n+0xe8>
10004264:	19d2      	adds	r2, r2, r7
10004266:	b295      	uxth	r5, r2
10004268:	003e      	movs	r6, r7
1000426a:	8165      	strh	r5, [r4, #10]
1000426c:	4643      	mov	r3, r8
1000426e:	45b0      	cmp	r8, r6
10004270:	d84c      	bhi.n	1000430c <tu_fifo_read_n+0xe4>
10004272:	b29e      	uxth	r6, r3
10004274:	42af      	cmp	r7, r5
10004276:	d803      	bhi.n	10004280 <tu_fifo_read_n+0x58>
10004278:	1bed      	subs	r5, r5, r7
1000427a:	b2ad      	uxth	r5, r5
1000427c:	42af      	cmp	r7, r5
1000427e:	d9fb      	bls.n	10004278 <tu_fifo_read_n+0x50>
10004280:	88e2      	ldrh	r2, [r4, #6]
10004282:	1b78      	subs	r0, r7, r5
10004284:	0452      	lsls	r2, r2, #17
10004286:	0c53      	lsrs	r3, r2, #17
10004288:	0019      	movs	r1, r3
1000428a:	4698      	mov	r8, r3
1000428c:	6823      	ldr	r3, [r4, #0]
1000428e:	4369      	muls	r1, r5
10004290:	469c      	mov	ip, r3
10004292:	b280      	uxth	r0, r0
10004294:	4461      	add	r1, ip
10004296:	4286      	cmp	r6, r0
10004298:	d932      	bls.n	10004300 <tu_fifo_read_n+0xd8>
1000429a:	4643      	mov	r3, r8
1000429c:	4358      	muls	r0, r3
1000429e:	b283      	uxth	r3, r0
100042a0:	001a      	movs	r2, r3
100042a2:	4648      	mov	r0, r9
100042a4:	469a      	mov	sl, r3
100042a6:	f7fe f935 	bl	10002514 <__wrap___aeabi_memcpy>
100042aa:	4643      	mov	r3, r8
100042ac:	4648      	mov	r0, r9
100042ae:	1bf7      	subs	r7, r6, r7
100042b0:	19ed      	adds	r5, r5, r7
100042b2:	435d      	muls	r5, r3
100042b4:	6821      	ldr	r1, [r4, #0]
100042b6:	4450      	add	r0, sl
100042b8:	b2aa      	uxth	r2, r5
100042ba:	f7fe f92b 	bl	10002514 <__wrap___aeabi_memcpy>
100042be:	8961      	ldrh	r1, [r4, #10]
100042c0:	88a7      	ldrh	r7, [r4, #4]
100042c2:	198b      	adds	r3, r1, r6
100042c4:	b29b      	uxth	r3, r3
100042c6:	007a      	lsls	r2, r7, #1
100042c8:	4299      	cmp	r1, r3
100042ca:	d915      	bls.n	100042f8 <tu_fifo_read_n+0xd0>
100042cc:	1a9b      	subs	r3, r3, r2
100042ce:	b29b      	uxth	r3, r3
100042d0:	6920      	ldr	r0, [r4, #16]
100042d2:	8163      	strh	r3, [r4, #10]
100042d4:	2800      	cmp	r0, #0
100042d6:	d001      	beq.n	100042dc <tu_fifo_read_n+0xb4>
100042d8:	f000 f98e 	bl	100045f8 <__mutex_exit_veneer>
100042dc:	0030      	movs	r0, r6
100042de:	bc1c      	pop	{r2, r3, r4}
100042e0:	4690      	mov	r8, r2
100042e2:	4699      	mov	r9, r3
100042e4:	46a2      	mov	sl, r4
100042e6:	bdf0      	pop	{r4, r5, r6, r7, pc}
100042e8:	007e      	lsls	r6, r7, #1
100042ea:	1b76      	subs	r6, r6, r5
100042ec:	1996      	adds	r6, r2, r6
100042ee:	b2b6      	uxth	r6, r6
100042f0:	2e00      	cmp	r6, #0
100042f2:	d1b3      	bne.n	1000425c <tu_fifo_read_n+0x34>
100042f4:	8963      	ldrh	r3, [r4, #10]
100042f6:	b29b      	uxth	r3, r3
100042f8:	007a      	lsls	r2, r7, #1
100042fa:	4293      	cmp	r3, r2
100042fc:	dbe8      	blt.n	100042d0 <tu_fifo_read_n+0xa8>
100042fe:	e7e5      	b.n	100042cc <tu_fifo_read_n+0xa4>
10004300:	4642      	mov	r2, r8
10004302:	4648      	mov	r0, r9
10004304:	4372      	muls	r2, r6
10004306:	f7fe f905 	bl	10002514 <__wrap___aeabi_memcpy>
1000430a:	e7d8      	b.n	100042be <tu_fifo_read_n+0x96>
1000430c:	1c33      	adds	r3, r6, #0
1000430e:	e7b0      	b.n	10004272 <tu_fifo_read_n+0x4a>
10004310:	1bd5      	subs	r5, r2, r7
10004312:	b2ad      	uxth	r5, r5
10004314:	e7a8      	b.n	10004268 <tu_fifo_read_n+0x40>
10004316:	46c0      	nop			; (mov r8, r8)

10004318 <tu_fifo_write>:
10004318:	b5f8      	push	{r3, r4, r5, r6, r7, lr}
1000431a:	0004      	movs	r4, r0
1000431c:	68c0      	ldr	r0, [r0, #12]
1000431e:	000e      	movs	r6, r1
10004320:	2800      	cmp	r0, #0
10004322:	d003      	beq.n	1000432c <tu_fifo_write+0x14>
10004324:	2101      	movs	r1, #1
10004326:	4249      	negs	r1, r1
10004328:	f000 f986 	bl	10004638 <__mutex_enter_timeout_ms_veneer>
1000432c:	8925      	ldrh	r5, [r4, #8]
1000432e:	8920      	ldrh	r0, [r4, #8]
10004330:	8961      	ldrh	r1, [r4, #10]
10004332:	88a2      	ldrh	r2, [r4, #4]
10004334:	b2ad      	uxth	r5, r5
10004336:	b283      	uxth	r3, r0
10004338:	b28f      	uxth	r7, r1
1000433a:	4288      	cmp	r0, r1
1000433c:	d328      	bcc.n	10004390 <tu_fifo_write+0x78>
1000433e:	1bdb      	subs	r3, r3, r7
10004340:	b29b      	uxth	r3, r3
10004342:	429a      	cmp	r2, r3
10004344:	d809      	bhi.n	1000435a <tu_fifo_write+0x42>
10004346:	79e7      	ldrb	r7, [r4, #7]
10004348:	09ff      	lsrs	r7, r7, #7
1000434a:	d106      	bne.n	1000435a <tu_fifo_write+0x42>
1000434c:	68e0      	ldr	r0, [r4, #12]
1000434e:	2800      	cmp	r0, #0
10004350:	d001      	beq.n	10004356 <tu_fifo_write+0x3e>
10004352:	f000 f951 	bl	100045f8 <__mutex_exit_veneer>
10004356:	0038      	movs	r0, r7
10004358:	bdf8      	pop	{r3, r4, r5, r6, r7, pc}
1000435a:	002b      	movs	r3, r5
1000435c:	4295      	cmp	r5, r2
1000435e:	d303      	bcc.n	10004368 <tu_fifo_write+0x50>
10004360:	1a9b      	subs	r3, r3, r2
10004362:	b29b      	uxth	r3, r3
10004364:	4293      	cmp	r3, r2
10004366:	d2fb      	bcs.n	10004360 <tu_fifo_write+0x48>
10004368:	88e2      	ldrh	r2, [r4, #6]
1000436a:	6821      	ldr	r1, [r4, #0]
1000436c:	0452      	lsls	r2, r2, #17
1000436e:	0c52      	lsrs	r2, r2, #17
10004370:	4353      	muls	r3, r2
10004372:	18c8      	adds	r0, r1, r3
10004374:	0031      	movs	r1, r6
10004376:	f7fe f8cd 	bl	10002514 <__wrap___aeabi_memcpy>
1000437a:	88a2      	ldrh	r2, [r4, #4]
1000437c:	1c6b      	adds	r3, r5, #1
1000437e:	b29b      	uxth	r3, r3
10004380:	0052      	lsls	r2, r2, #1
10004382:	429d      	cmp	r5, r3
10004384:	d909      	bls.n	1000439a <tu_fifo_write+0x82>
10004386:	1a9b      	subs	r3, r3, r2
10004388:	b29b      	uxth	r3, r3
1000438a:	2701      	movs	r7, #1
1000438c:	8123      	strh	r3, [r4, #8]
1000438e:	e7dd      	b.n	1000434c <tu_fifo_write+0x34>
10004390:	0051      	lsls	r1, r2, #1
10004392:	1bc9      	subs	r1, r1, r7
10004394:	185b      	adds	r3, r3, r1
10004396:	b29b      	uxth	r3, r3
10004398:	e7d3      	b.n	10004342 <tu_fifo_write+0x2a>
1000439a:	4293      	cmp	r3, r2
1000439c:	dbf5      	blt.n	1000438a <tu_fifo_write+0x72>
1000439e:	e7f2      	b.n	10004386 <tu_fifo_write+0x6e>

100043a0 <tu_fifo_write_n>:
100043a0:	b5f0      	push	{r4, r5, r6, r7, lr}
100043a2:	4645      	mov	r5, r8
100043a4:	46de      	mov	lr, fp
100043a6:	4657      	mov	r7, sl
100043a8:	464e      	mov	r6, r9
100043aa:	b5e0      	push	{r5, r6, r7, lr}
100043ac:	0004      	movs	r4, r0
100043ae:	4688      	mov	r8, r1
100043b0:	0015      	movs	r5, r2
100043b2:	b083      	sub	sp, #12
100043b4:	2a00      	cmp	r2, #0
100043b6:	d06a      	beq.n	1000448e <tu_fifo_write_n+0xee>
100043b8:	68c0      	ldr	r0, [r0, #12]
100043ba:	2800      	cmp	r0, #0
100043bc:	d003      	beq.n	100043c6 <tu_fifo_write_n+0x26>
100043be:	2101      	movs	r1, #1
100043c0:	4249      	negs	r1, r1
100043c2:	f000 f939 	bl	10004638 <__mutex_enter_timeout_ms_veneer>
100043c6:	8927      	ldrh	r7, [r4, #8]
100043c8:	79e2      	ldrb	r2, [r4, #7]
100043ca:	8963      	ldrh	r3, [r4, #10]
100043cc:	88a6      	ldrh	r6, [r4, #4]
100043ce:	b2bf      	uxth	r7, r7
100043d0:	b29b      	uxth	r3, r3
100043d2:	09d2      	lsrs	r2, r2, #7
100043d4:	d143      	bne.n	1000445e <tu_fifo_write_n+0xbe>
100043d6:	429f      	cmp	r7, r3
100043d8:	d263      	bcs.n	100044a2 <tu_fifo_write_n+0x102>
100043da:	0072      	lsls	r2, r6, #1
100043dc:	1ad3      	subs	r3, r2, r3
100043de:	18fb      	adds	r3, r7, r3
100043e0:	b29b      	uxth	r3, r3
100043e2:	2200      	movs	r2, #0
100043e4:	4691      	mov	r9, r2
100043e6:	429e      	cmp	r6, r3
100043e8:	d933      	bls.n	10004452 <tu_fifo_write_n+0xb2>
100043ea:	1af3      	subs	r3, r6, r3
100043ec:	1c1a      	adds	r2, r3, #0
100043ee:	b29b      	uxth	r3, r3
100043f0:	42ab      	cmp	r3, r5
100043f2:	d900      	bls.n	100043f6 <tu_fifo_write_n+0x56>
100043f4:	1c2a      	adds	r2, r5, #0
100043f6:	b293      	uxth	r3, r2
100043f8:	4699      	mov	r9, r3
100043fa:	464b      	mov	r3, r9
100043fc:	2b00      	cmp	r3, #0
100043fe:	d028      	beq.n	10004452 <tu_fifo_write_n+0xb2>
10004400:	19db      	adds	r3, r3, r7
10004402:	b29b      	uxth	r3, r3
10004404:	469b      	mov	fp, r3
10004406:	003d      	movs	r5, r7
10004408:	42b7      	cmp	r7, r6
1000440a:	d303      	bcc.n	10004414 <tu_fifo_write_n+0x74>
1000440c:	1bad      	subs	r5, r5, r6
1000440e:	b2ad      	uxth	r5, r5
10004410:	42b5      	cmp	r5, r6
10004412:	d2fb      	bcs.n	1000440c <tu_fifo_write_n+0x6c>
10004414:	88e2      	ldrh	r2, [r4, #6]
10004416:	1b71      	subs	r1, r6, r5
10004418:	0452      	lsls	r2, r2, #17
1000441a:	0c53      	lsrs	r3, r2, #17
1000441c:	0018      	movs	r0, r3
1000441e:	469a      	mov	sl, r3
10004420:	6823      	ldr	r3, [r4, #0]
10004422:	4368      	muls	r0, r5
10004424:	469c      	mov	ip, r3
10004426:	b289      	uxth	r1, r1
10004428:	4460      	add	r0, ip
1000442a:	4549      	cmp	r1, r9
1000442c:	d345      	bcc.n	100044ba <tu_fifo_write_n+0x11a>
1000442e:	4652      	mov	r2, sl
10004430:	464b      	mov	r3, r9
10004432:	4641      	mov	r1, r8
10004434:	435a      	muls	r2, r3
10004436:	f7fe f86d 	bl	10002514 <__wrap___aeabi_memcpy>
1000443a:	88a3      	ldrh	r3, [r4, #4]
1000443c:	005b      	lsls	r3, r3, #1
1000443e:	45bb      	cmp	fp, r7
10004440:	d301      	bcc.n	10004446 <tu_fifo_write_n+0xa6>
10004442:	459b      	cmp	fp, r3
10004444:	db03      	blt.n	1000444e <tu_fifo_write_n+0xae>
10004446:	465a      	mov	r2, fp
10004448:	1ad3      	subs	r3, r2, r3
1000444a:	b29b      	uxth	r3, r3
1000444c:	469b      	mov	fp, r3
1000444e:	465b      	mov	r3, fp
10004450:	8123      	strh	r3, [r4, #8]
10004452:	68e0      	ldr	r0, [r4, #12]
10004454:	2800      	cmp	r0, #0
10004456:	d01c      	beq.n	10004492 <tu_fifo_write_n+0xf2>
10004458:	f000 f8ce 	bl	100045f8 <__mutex_exit_veneer>
1000445c:	e019      	b.n	10004492 <tu_fifo_write_n+0xf2>
1000445e:	42b5      	cmp	r5, r6
10004460:	d222      	bcs.n	100044a8 <tu_fifo_write_n+0x108>
10004462:	429f      	cmp	r7, r3
10004464:	d33e      	bcc.n	100044e4 <tu_fifo_write_n+0x144>
10004466:	1afa      	subs	r2, r7, r3
10004468:	b292      	uxth	r2, r2
1000446a:	0071      	lsls	r1, r6, #1
1000446c:	1952      	adds	r2, r2, r5
1000446e:	428a      	cmp	r2, r1
10004470:	db08      	blt.n	10004484 <tu_fifo_write_n+0xe4>
10004472:	199a      	adds	r2, r3, r6
10004474:	b292      	uxth	r2, r2
10004476:	1b57      	subs	r7, r2, r5
10004478:	b2bf      	uxth	r7, r7
1000447a:	4693      	mov	fp, r2
1000447c:	42bb      	cmp	r3, r7
1000447e:	d936      	bls.n	100044ee <tu_fifo_write_n+0x14e>
10004480:	1a7f      	subs	r7, r7, r1
10004482:	b2bf      	uxth	r7, r7
10004484:	19eb      	adds	r3, r5, r7
10004486:	b29b      	uxth	r3, r3
10004488:	469b      	mov	fp, r3
1000448a:	46a9      	mov	r9, r5
1000448c:	e7bb      	b.n	10004406 <tu_fifo_write_n+0x66>
1000448e:	2300      	movs	r3, #0
10004490:	4699      	mov	r9, r3
10004492:	4648      	mov	r0, r9
10004494:	b003      	add	sp, #12
10004496:	bc3c      	pop	{r2, r3, r4, r5}
10004498:	4690      	mov	r8, r2
1000449a:	4699      	mov	r9, r3
1000449c:	46a2      	mov	sl, r4
1000449e:	46ab      	mov	fp, r5
100044a0:	bdf0      	pop	{r4, r5, r6, r7, pc}
100044a2:	1afb      	subs	r3, r7, r3
100044a4:	b29b      	uxth	r3, r3
100044a6:	e79c      	b.n	100043e2 <tu_fifo_write_n+0x42>
100044a8:	1baa      	subs	r2, r5, r6
100044aa:	88e5      	ldrh	r5, [r4, #6]
100044ac:	001f      	movs	r7, r3
100044ae:	046d      	lsls	r5, r5, #17
100044b0:	0c6d      	lsrs	r5, r5, #17
100044b2:	4355      	muls	r5, r2
100044b4:	46b1      	mov	r9, r6
100044b6:	44a8      	add	r8, r5
100044b8:	e79f      	b.n	100043fa <tu_fifo_write_n+0x5a>
100044ba:	4653      	mov	r3, sl
100044bc:	4359      	muls	r1, r3
100044be:	b28b      	uxth	r3, r1
100044c0:	001a      	movs	r2, r3
100044c2:	4641      	mov	r1, r8
100044c4:	9301      	str	r3, [sp, #4]
100044c6:	f7fe f825 	bl	10002514 <__wrap___aeabi_memcpy>
100044ca:	4649      	mov	r1, r9
100044cc:	1b8a      	subs	r2, r1, r6
100044ce:	4651      	mov	r1, sl
100044d0:	18aa      	adds	r2, r5, r2
100044d2:	434a      	muls	r2, r1
100044d4:	9b01      	ldr	r3, [sp, #4]
100044d6:	6820      	ldr	r0, [r4, #0]
100044d8:	4443      	add	r3, r8
100044da:	0019      	movs	r1, r3
100044dc:	b292      	uxth	r2, r2
100044de:	f7fe f819 	bl	10002514 <__wrap___aeabi_memcpy>
100044e2:	e7aa      	b.n	1000443a <tu_fifo_write_n+0x9a>
100044e4:	0071      	lsls	r1, r6, #1
100044e6:	1aca      	subs	r2, r1, r3
100044e8:	18ba      	adds	r2, r7, r2
100044ea:	b292      	uxth	r2, r2
100044ec:	e7be      	b.n	1000446c <tu_fifo_write_n+0xcc>
100044ee:	46a9      	mov	r9, r5
100044f0:	42b9      	cmp	r1, r7
100044f2:	dd00      	ble.n	100044f6 <tu_fifo_write_n+0x156>
100044f4:	e787      	b.n	10004406 <tu_fifo_write_n+0x66>
100044f6:	e7c3      	b.n	10004480 <tu_fifo_write_n+0xe0>

100044f8 <tu_fifo_clear>:
100044f8:	b510      	push	{r4, lr}
100044fa:	0004      	movs	r4, r0
100044fc:	68c0      	ldr	r0, [r0, #12]
100044fe:	2800      	cmp	r0, #0
10004500:	d003      	beq.n	1000450a <tu_fifo_clear+0x12>
10004502:	2101      	movs	r1, #1
10004504:	4249      	negs	r1, r1
10004506:	f000 f897 	bl	10004638 <__mutex_enter_timeout_ms_veneer>
1000450a:	6920      	ldr	r0, [r4, #16]
1000450c:	2800      	cmp	r0, #0
1000450e:	d003      	beq.n	10004518 <tu_fifo_clear+0x20>
10004510:	2101      	movs	r1, #1
10004512:	4249      	negs	r1, r1
10004514:	f000 f890 	bl	10004638 <__mutex_enter_timeout_ms_veneer>
10004518:	2300      	movs	r3, #0
1000451a:	68e0      	ldr	r0, [r4, #12]
1000451c:	8163      	strh	r3, [r4, #10]
1000451e:	8123      	strh	r3, [r4, #8]
10004520:	2800      	cmp	r0, #0
10004522:	d001      	beq.n	10004528 <tu_fifo_clear+0x30>
10004524:	f000 f868 	bl	100045f8 <__mutex_exit_veneer>
10004528:	6920      	ldr	r0, [r4, #16]
1000452a:	2800      	cmp	r0, #0
1000452c:	d001      	beq.n	10004532 <tu_fifo_clear+0x3a>
1000452e:	f000 f863 	bl	100045f8 <__mutex_exit_veneer>
10004532:	2001      	movs	r0, #1
10004534:	bd10      	pop	{r4, pc}
10004536:	46c0      	nop			; (mov r8, r8)

10004538 <board_init>:
10004538:	b510      	push	{r4, lr}
1000453a:	2019      	movs	r0, #25
1000453c:	f7fc f956 	bl	100007ec <gpio_init>
10004540:	23d0      	movs	r3, #208	; 0xd0
10004542:	2280      	movs	r2, #128	; 0x80
10004544:	21e1      	movs	r1, #225	; 0xe1
10004546:	061b      	lsls	r3, r3, #24
10004548:	0492      	lsls	r2, r2, #18
1000454a:	625a      	str	r2, [r3, #36]	; 0x24
1000454c:	4804      	ldr	r0, [pc, #16]	; (10004560 <board_init+0x28>)
1000454e:	4b05      	ldr	r3, [pc, #20]	; (10004564 <board_init+0x2c>)
10004550:	2200      	movs	r2, #0
10004552:	6018      	str	r0, [r3, #0]
10004554:	0249      	lsls	r1, r1, #9
10004556:	2301      	movs	r3, #1
10004558:	f7fe f9fa 	bl	10002950 <stdio_uart_init_full>
1000455c:	bd10      	pop	{r4, pc}
1000455e:	46c0      	nop			; (mov r8, r8)
10004560:	40034000 	.word	0x40034000
10004564:	20001f08 	.word	0x20001f08

10004568 <strlen>:
10004568:	b510      	push	{r4, lr}
1000456a:	0783      	lsls	r3, r0, #30
1000456c:	d027      	beq.n	100045be <strlen+0x56>
1000456e:	7803      	ldrb	r3, [r0, #0]
10004570:	2b00      	cmp	r3, #0
10004572:	d026      	beq.n	100045c2 <strlen+0x5a>
10004574:	0003      	movs	r3, r0
10004576:	2103      	movs	r1, #3
10004578:	e002      	b.n	10004580 <strlen+0x18>
1000457a:	781a      	ldrb	r2, [r3, #0]
1000457c:	2a00      	cmp	r2, #0
1000457e:	d01c      	beq.n	100045ba <strlen+0x52>
10004580:	3301      	adds	r3, #1
10004582:	420b      	tst	r3, r1
10004584:	d1f9      	bne.n	1000457a <strlen+0x12>
10004586:	6819      	ldr	r1, [r3, #0]
10004588:	4a0f      	ldr	r2, [pc, #60]	; (100045c8 <strlen+0x60>)
1000458a:	4c10      	ldr	r4, [pc, #64]	; (100045cc <strlen+0x64>)
1000458c:	188a      	adds	r2, r1, r2
1000458e:	438a      	bics	r2, r1
10004590:	4222      	tst	r2, r4
10004592:	d10f      	bne.n	100045b4 <strlen+0x4c>
10004594:	3304      	adds	r3, #4
10004596:	6819      	ldr	r1, [r3, #0]
10004598:	4a0b      	ldr	r2, [pc, #44]	; (100045c8 <strlen+0x60>)
1000459a:	188a      	adds	r2, r1, r2
1000459c:	438a      	bics	r2, r1
1000459e:	4222      	tst	r2, r4
100045a0:	d108      	bne.n	100045b4 <strlen+0x4c>
100045a2:	3304      	adds	r3, #4
100045a4:	6819      	ldr	r1, [r3, #0]
100045a6:	4a08      	ldr	r2, [pc, #32]	; (100045c8 <strlen+0x60>)
100045a8:	188a      	adds	r2, r1, r2
100045aa:	438a      	bics	r2, r1
100045ac:	4222      	tst	r2, r4
100045ae:	d0f1      	beq.n	10004594 <strlen+0x2c>
100045b0:	e000      	b.n	100045b4 <strlen+0x4c>
100045b2:	3301      	adds	r3, #1
100045b4:	781a      	ldrb	r2, [r3, #0]
100045b6:	2a00      	cmp	r2, #0
100045b8:	d1fb      	bne.n	100045b2 <strlen+0x4a>
100045ba:	1a18      	subs	r0, r3, r0
100045bc:	bd10      	pop	{r4, pc}
100045be:	0003      	movs	r3, r0
100045c0:	e7e1      	b.n	10004586 <strlen+0x1e>
100045c2:	2000      	movs	r0, #0
100045c4:	e7fa      	b.n	100045bc <strlen+0x54>
100045c6:	46c0      	nop			; (mov r8, r8)
100045c8:	fefefeff 	.word	0xfefefeff
100045cc:	80808080 	.word	0x80808080

100045d0 <_fini>:
100045d0:	b5f8      	push	{r3, r4, r5, r6, r7, lr}
100045d2:	46c0      	nop			; (mov r8, r8)
100045d4:	0000      	movs	r0, r0
	...

100045d8 <__pio_jtag_reset_veneer>:
100045d8:	b401      	push	{r0}
100045da:	4802      	ldr	r0, [pc, #8]	; (100045e4 <__pio_jtag_reset_veneer+0xc>)
100045dc:	4684      	mov	ip, r0
100045de:	bc01      	pop	{r0}
100045e0:	4760      	bx	ip
100045e2:	bf00      	nop
100045e4:	200001dd 	.word	0x200001dd

100045e8 <__flash_do_cmd_veneer>:
100045e8:	b401      	push	{r0}
100045ea:	4802      	ldr	r0, [pc, #8]	; (100045f4 <__flash_do_cmd_veneer+0xc>)
100045ec:	4684      	mov	ip, r0
100045ee:	bc01      	pop	{r0}
100045f0:	4760      	bx	ip
100045f2:	bf00      	nop
100045f4:	20000879 	.word	0x20000879

100045f8 <__mutex_exit_veneer>:
100045f8:	b401      	push	{r0}
100045fa:	4802      	ldr	r0, [pc, #8]	; (10004604 <__mutex_exit_veneer+0xc>)
100045fc:	4684      	mov	ip, r0
100045fe:	bc01      	pop	{r0}
10004600:	4760      	bx	ip
10004602:	bf00      	nop
10004604:	200007d9 	.word	0x200007d9

10004608 <__pio_jtag_idcode_scan_veneer>:
10004608:	b401      	push	{r0}
1000460a:	4802      	ldr	r0, [pc, #8]	; (10004614 <__pio_jtag_idcode_scan_veneer+0xc>)
1000460c:	4684      	mov	ip, r0
1000460e:	bc01      	pop	{r0}
10004610:	4760      	bx	ip
10004612:	bf00      	nop
10004614:	20000635 	.word	0x20000635

10004618 <__reset_non_control_endpoints_veneer>:
10004618:	b401      	push	{r0}
1000461a:	4802      	ldr	r0, [pc, #8]	; (10004624 <__reset_non_control_endpoints_veneer+0xc>)
1000461c:	4684      	mov	ip, r0
1000461e:	bc01      	pop	{r0}
10004620:	4760      	bx	ip
10004622:	bf00      	nop
10004624:	2000093d 	.word	0x2000093d

10004628 <____aeabi_idiv0_veneer>:
10004628:	b401      	push	{r0}
1000462a:	4802      	ldr	r0, [pc, #8]	; (10004634 <____aeabi_idiv0_veneer+0xc>)
1000462c:	4684      	mov	ip, r0
1000462e:	bc01      	pop	{r0}
10004630:	4760      	bx	ip
10004632:	bf00      	nop
10004634:	20001375 	.word	0x20001375

10004638 <__mutex_enter_timeout_ms_veneer>:
10004638:	b401      	push	{r0}
1000463a:	4802      	ldr	r0, [pc, #8]	; (10004644 <__mutex_enter_timeout_ms_veneer+0xc>)
1000463c:	4684      	mov	ip, r0
1000463e:	bc01      	pop	{r0}
10004640:	4760      	bx	ip
10004642:	bf00      	nop
10004644:	20000749 	.word	0x20000749

10004648 <__mutex_try_enter_block_until_veneer>:
10004648:	b401      	push	{r0}
1000464a:	4802      	ldr	r0, [pc, #8]	; (10004654 <__mutex_try_enter_block_until_veneer+0xc>)
1000464c:	4684      	mov	ip, r0
1000464e:	bc01      	pop	{r0}
10004650:	4760      	bx	ip
10004652:	bf00      	nop
10004654:	20000699 	.word	0x20000699

10004658 <__hw_endpoint_start_next_buffer_veneer>:
10004658:	b401      	push	{r0}
1000465a:	4802      	ldr	r0, [pc, #8]	; (10004664 <__hw_endpoint_start_next_buffer_veneer+0xc>)
1000465c:	4684      	mov	ip, r0
1000465e:	bc01      	pop	{r0}
10004660:	4760      	bx	ip
10004662:	bf00      	nop
10004664:	20001149 	.word	0x20001149

10004668 <__e15_is_critical_frame_period_veneer>:
10004668:	b401      	push	{r0}
1000466a:	4802      	ldr	r0, [pc, #8]	; (10004674 <__e15_is_critical_frame_period_veneer+0xc>)
1000466c:	4684      	mov	ip, r0
1000466e:	bc01      	pop	{r0}
10004670:	4760      	bx	ip
10004672:	bf00      	nop
10004674:	200010ad 	.word	0x200010ad

10004678 <__e15_is_bulkin_ep.isra.0_veneer>:
10004678:	b401      	push	{r0}
1000467a:	4802      	ldr	r0, [pc, #8]	; (10004684 <__e15_is_bulkin_ep.isra.0_veneer+0xc>)
1000467c:	4684      	mov	ip, r0
1000467e:	bc01      	pop	{r0}
10004680:	4760      	bx	ip
10004682:	bf00      	nop
10004684:	20001085 	.word	0x20001085

10004688 <__hw_endpoint_reset_transfer_veneer>:
10004688:	b401      	push	{r0}
1000468a:	4802      	ldr	r0, [pc, #8]	; (10004694 <__hw_endpoint_reset_transfer_veneer+0xc>)
1000468c:	4684      	mov	ip, r0
1000468e:	bc01      	pop	{r0}
10004690:	4760      	bx	ip
10004692:	bf00      	nop
10004694:	200010e5 	.word	0x200010e5

10004698 <___hw_endpoint_buffer_control_update32_veneer>:
10004698:	b401      	push	{r0}
1000469a:	4802      	ldr	r0, [pc, #8]	; (100046a4 <___hw_endpoint_buffer_control_update32_veneer+0xc>)
1000469c:	4684      	mov	ip, r0
1000469e:	bc01      	pop	{r0}
100046a0:	4760      	bx	ip
100046a2:	bf00      	nop
100046a4:	200010f1 	.word	0x200010f1

Disassembly of section .data:

200000c0 <pio_jtag_write_blocking>:
200000c0:	b5f0      	push	{r4, r5, r6, r7, lr}
200000c2:	4645      	mov	r5, r8
200000c4:	464e      	mov	r6, r9
200000c6:	46de      	mov	lr, fp
200000c8:	4657      	mov	r7, sl
200000ca:	b5e0      	push	{r5, r6, r7, lr}
200000cc:	3207      	adds	r2, #7
200000ce:	b083      	sub	sp, #12
200000d0:	10d5      	asrs	r5, r2, #3
200000d2:	0006      	movs	r6, r0
200000d4:	4698      	mov	r8, r3
200000d6:	9101      	str	r1, [sp, #4]
200000d8:	f001 f9ae 	bl	20001438 <__dma_init_veneer>
200000dc:	2d04      	cmp	r5, #4
200000de:	d82e      	bhi.n	2000013e <pio_jtag_write_blocking+0x7e>
200000e0:	2d00      	cmp	r5, #0
200000e2:	d025      	beq.n	20000130 <pio_jtag_write_blocking+0x70>
200000e4:	6874      	ldr	r4, [r6, #4]
200000e6:	6833      	ldr	r3, [r6, #0]
200000e8:	3404      	adds	r4, #4
200000ea:	00a4      	lsls	r4, r4, #2
200000ec:	191a      	adds	r2, r3, r4
200000ee:	469a      	mov	sl, r3
200000f0:	2300      	movs	r3, #0
200000f2:	4694      	mov	ip, r2
200000f4:	4699      	mov	r9, r3
200000f6:	002a      	movs	r2, r5
200000f8:	2101      	movs	r1, #1
200000fa:	3410      	adds	r4, #16
200000fc:	44a2      	add	sl, r4
200000fe:	2d00      	cmp	r5, #0
20000100:	d044      	beq.n	2000018c <pio_jtag_write_blocking+0xcc>
20000102:	6874      	ldr	r4, [r6, #4]
20000104:	000f      	movs	r7, r1
20000106:	0020      	movs	r0, r4
20000108:	3010      	adds	r0, #16
2000010a:	4087      	lsls	r7, r0
2000010c:	46bb      	mov	fp, r7
2000010e:	6833      	ldr	r3, [r6, #0]
20000110:	465f      	mov	r7, fp
20000112:	6858      	ldr	r0, [r3, #4]
20000114:	4238      	tst	r0, r7
20000116:	d14f      	bne.n	200001b8 <pio_jtag_write_blocking+0xf8>
20000118:	4664      	mov	r4, ip
2000011a:	9b01      	ldr	r3, [sp, #4]
2000011c:	3d01      	subs	r5, #1
2000011e:	1c58      	adds	r0, r3, #1
20000120:	781b      	ldrb	r3, [r3, #0]
20000122:	7023      	strb	r3, [r4, #0]
20000124:	2a00      	cmp	r2, #0
20000126:	d14a      	bne.n	200001be <pio_jtag_write_blocking+0xfe>
20000128:	002b      	movs	r3, r5
2000012a:	9001      	str	r0, [sp, #4]
2000012c:	2b00      	cmp	r3, #0
2000012e:	d1e6      	bne.n	200000fe <pio_jtag_write_blocking+0x3e>
20000130:	b003      	add	sp, #12
20000132:	bc3c      	pop	{r2, r3, r4, r5}
20000134:	4690      	mov	r8, r2
20000136:	4699      	mov	r9, r3
20000138:	46a2      	mov	sl, r4
2000013a:	46ab      	mov	fp, r5
2000013c:	bdf0      	pop	{r4, r5, r6, r7, pc}
2000013e:	2320      	movs	r3, #32
20000140:	4a21      	ldr	r2, [pc, #132]	; (200001c8 <pio_jtag_write_blocking+0x108>)
20000142:	20a0      	movs	r0, #160	; 0xa0
20000144:	6811      	ldr	r1, [r2, #0]
20000146:	05c0      	lsls	r0, r0, #23
20000148:	430b      	orrs	r3, r1
2000014a:	6013      	str	r3, [r2, #0]
2000014c:	2310      	movs	r3, #16
2000014e:	4a1f      	ldr	r2, [pc, #124]	; (200001cc <pio_jtag_write_blocking+0x10c>)
20000150:	4684      	mov	ip, r0
20000152:	6811      	ldr	r1, [r2, #0]
20000154:	9801      	ldr	r0, [sp, #4]
20000156:	430b      	orrs	r3, r1
20000158:	6013      	str	r3, [r2, #0]
2000015a:	4b1d      	ldr	r3, [pc, #116]	; (200001d0 <pio_jtag_write_blocking+0x110>)
2000015c:	4641      	mov	r1, r8
2000015e:	681a      	ldr	r2, [r3, #0]
20000160:	23a0      	movs	r3, #160	; 0xa0
20000162:	0192      	lsls	r2, r2, #6
20000164:	05db      	lsls	r3, r3, #23
20000166:	18d3      	adds	r3, r2, r3
20000168:	6059      	str	r1, [r3, #4]
2000016a:	2101      	movs	r1, #1
2000016c:	61d9      	str	r1, [r3, #28]
2000016e:	4b19      	ldr	r3, [pc, #100]	; (200001d4 <pio_jtag_write_blocking+0x114>)
20000170:	681b      	ldr	r3, [r3, #0]
20000172:	019b      	lsls	r3, r3, #6
20000174:	4463      	add	r3, ip
20000176:	6018      	str	r0, [r3, #0]
20000178:	61d9      	str	r1, [r3, #28]
2000017a:	4b17      	ldr	r3, [pc, #92]	; (200001d8 <pio_jtag_write_blocking+0x118>)
2000017c:	2180      	movs	r1, #128	; 0x80
2000017e:	469c      	mov	ip, r3
20000180:	0449      	lsls	r1, r1, #17
20000182:	4462      	add	r2, ip
20000184:	6813      	ldr	r3, [r2, #0]
20000186:	420b      	tst	r3, r1
20000188:	d1fc      	bne.n	20000184 <pio_jtag_write_blocking+0xc4>
2000018a:	e7d1      	b.n	20000130 <pio_jtag_write_blocking+0x70>
2000018c:	2a00      	cmp	r2, #0
2000018e:	d0cf      	beq.n	20000130 <pio_jtag_write_blocking+0x70>
20000190:	6833      	ldr	r3, [r6, #0]
20000192:	6874      	ldr	r4, [r6, #4]
20000194:	6858      	ldr	r0, [r3, #4]
20000196:	000b      	movs	r3, r1
20000198:	3408      	adds	r4, #8
2000019a:	40a3      	lsls	r3, r4
2000019c:	4218      	tst	r0, r3
2000019e:	d1ae      	bne.n	200000fe <pio_jtag_write_blocking+0x3e>
200001a0:	4653      	mov	r3, sl
200001a2:	464c      	mov	r4, r9
200001a4:	4640      	mov	r0, r8
200001a6:	78db      	ldrb	r3, [r3, #3]
200001a8:	3a01      	subs	r2, #1
200001aa:	5503      	strb	r3, [r0, r4]
200001ac:	2301      	movs	r3, #1
200001ae:	469b      	mov	fp, r3
200001b0:	0013      	movs	r3, r2
200001b2:	44d9      	add	r9, fp
200001b4:	432b      	orrs	r3, r5
200001b6:	e7b9      	b.n	2000012c <pio_jtag_write_blocking+0x6c>
200001b8:	2a00      	cmp	r2, #0
200001ba:	d0a9      	beq.n	20000110 <pio_jtag_write_blocking+0x50>
200001bc:	e7ea      	b.n	20000194 <pio_jtag_write_blocking+0xd4>
200001be:	6833      	ldr	r3, [r6, #0]
200001c0:	6874      	ldr	r4, [r6, #4]
200001c2:	9001      	str	r0, [sp, #4]
200001c4:	e7e6      	b.n	20000194 <pio_jtag_write_blocking+0xd4>
200001c6:	46c0      	nop			; (mov r8, r8)
200001c8:	20001ec8 	.word	0x20001ec8
200001cc:	20001efc 	.word	0x20001efc
200001d0:	20001ecc 	.word	0x20001ecc
200001d4:	20001468 	.word	0x20001468
200001d8:	50000010 	.word	0x50000010

200001dc <pio_jtag_reset>:
200001dc:	4b2b      	ldr	r3, [pc, #172]	; (2000028c <pio_jtag_reset+0xb0>)
200001de:	b5f0      	push	{r4, r5, r6, r7, lr}
200001e0:	681f      	ldr	r7, [r3, #0]
200001e2:	46c6      	mov	lr, r8
200001e4:	1d7b      	adds	r3, r7, #5
200001e6:	01fa      	lsls	r2, r7, #7
200001e8:	031b      	lsls	r3, r3, #12
200001ea:	4313      	orrs	r3, r2
200001ec:	4a28      	ldr	r2, [pc, #160]	; (20000290 <pio_jtag_reset+0xb4>)
200001ee:	b500      	push	{lr}
200001f0:	4013      	ands	r3, r2
200001f2:	2280      	movs	r2, #128	; 0x80
200001f4:	05d2      	lsls	r2, r2, #23
200001f6:	b084      	sub	sp, #16
200001f8:	4313      	orrs	r3, r2
200001fa:	9301      	str	r3, [sp, #4]
200001fc:	23c0      	movs	r3, #192	; 0xc0
200001fe:	031b      	lsls	r3, r3, #12
20000200:	9302      	str	r3, [sp, #8]
20000202:	4b24      	ldr	r3, [pc, #144]	; (20000294 <pio_jtag_reset+0xb8>)
20000204:	6805      	ldr	r5, [r0, #0]
20000206:	9303      	str	r3, [sp, #12]
20000208:	23a0      	movs	r3, #160	; 0xa0
2000020a:	035b      	lsls	r3, r3, #13
2000020c:	2206      	movs	r2, #6
2000020e:	0006      	movs	r6, r0
20000210:	9300      	str	r3, [sp, #0]
20000212:	0028      	movs	r0, r5
20000214:	2306      	movs	r3, #6
20000216:	000c      	movs	r4, r1
20000218:	2100      	movs	r1, #0
2000021a:	f001 f8d5 	bl	200013c8 <__pio_sm_set_pindirs_with_mask_veneer>
2000021e:	4b1e      	ldr	r3, [pc, #120]	; (20000298 <pio_jtag_reset+0xbc>)
20000220:	2002      	movs	r0, #2
20000222:	18eb      	adds	r3, r5, r3
20000224:	1e5a      	subs	r2, r3, #1
20000226:	4193      	sbcs	r3, r2
20000228:	3306      	adds	r3, #6
2000022a:	4698      	mov	r8, r3
2000022c:	0019      	movs	r1, r3
2000022e:	f001 f8e3 	bl	200013f8 <__gpio_set_function_veneer>
20000232:	4641      	mov	r1, r8
20000234:	2001      	movs	r0, #1
20000236:	f001 f8df 	bl	200013f8 <__gpio_set_function_veneer>
2000023a:	466b      	mov	r3, sp
2000023c:	003a      	movs	r2, r7
2000023e:	0028      	movs	r0, r5
20000240:	2100      	movs	r1, #0
20000242:	f001 f899 	bl	20001378 <__pio_sm_init_veneer>
20000246:	2201      	movs	r2, #1
20000248:	2080      	movs	r0, #128	; 0x80
2000024a:	682b      	ldr	r3, [r5, #0]
2000024c:	0240      	lsls	r0, r0, #9
2000024e:	4313      	orrs	r3, r2
20000250:	602b      	str	r3, [r5, #0]
20000252:	6833      	ldr	r3, [r6, #0]
20000254:	685a      	ldr	r2, [r3, #4]
20000256:	4202      	tst	r2, r0
20000258:	d1fc      	bne.n	20000254 <pio_jtag_reset+0x78>
2000025a:	2206      	movs	r2, #6
2000025c:	2080      	movs	r0, #128	; 0x80
2000025e:	611a      	str	r2, [r3, #16]
20000260:	0240      	lsls	r0, r0, #9
20000262:	685a      	ldr	r2, [r3, #4]
20000264:	4202      	tst	r2, r0
20000266:	d1fc      	bne.n	20000262 <pio_jtag_reset+0x86>
20000268:	221f      	movs	r2, #31
2000026a:	611a      	str	r2, [r3, #16]
2000026c:	4b0b      	ldr	r3, [pc, #44]	; (2000029c <pio_jtag_reset+0xc0>)
2000026e:	4669      	mov	r1, sp
20000270:	681a      	ldr	r2, [r3, #0]
20000272:	0020      	movs	r0, r4
20000274:	9200      	str	r2, [sp, #0]
20000276:	466a      	mov	r2, sp
20000278:	791b      	ldrb	r3, [r3, #4]
2000027a:	7113      	strb	r3, [r2, #4]
2000027c:	2205      	movs	r2, #5
2000027e:	f001 f8c3 	bl	20001408 <____wrap_memcpy_veneer>
20000282:	2005      	movs	r0, #5
20000284:	b004      	add	sp, #16
20000286:	bc04      	pop	{r2}
20000288:	4690      	mov	r8, r2
2000028a:	bdf0      	pop	{r4, r5, r6, r7, pc}
2000028c:	20002028 	.word	0x20002028
20000290:	9fffffff 	.word	0x9fffffff
20000294:	44100442 	.word	0x44100442
20000298:	afe00000 	.word	0xafe00000
2000029c:	100046a8 	.word	0x100046a8

200002a0 <pio_jtag_ir_scan>:
200002a0:	b5f0      	push	{r4, r5, r6, r7, lr}
200002a2:	46de      	mov	lr, fp
200002a4:	4657      	mov	r7, sl
200002a6:	464e      	mov	r6, r9
200002a8:	4645      	mov	r5, r8
200002aa:	4698      	mov	r8, r3
200002ac:	4b68      	ldr	r3, [pc, #416]	; (20000450 <pio_jtag_ir_scan+0x1b0>)
200002ae:	b5e0      	push	{r5, r6, r7, lr}
200002b0:	681e      	ldr	r6, [r3, #0]
200002b2:	469b      	mov	fp, r3
200002b4:	1d73      	adds	r3, r6, #5
200002b6:	4691      	mov	r9, r2
200002b8:	031b      	lsls	r3, r3, #12
200002ba:	01f2      	lsls	r2, r6, #7
200002bc:	4313      	orrs	r3, r2
200002be:	4a65      	ldr	r2, [pc, #404]	; (20000454 <pio_jtag_ir_scan+0x1b4>)
200002c0:	b085      	sub	sp, #20
200002c2:	4013      	ands	r3, r2
200002c4:	2280      	movs	r2, #128	; 0x80
200002c6:	05d2      	lsls	r2, r2, #23
200002c8:	4313      	orrs	r3, r2
200002ca:	9301      	str	r3, [sp, #4]
200002cc:	23c0      	movs	r3, #192	; 0xc0
200002ce:	031b      	lsls	r3, r3, #12
200002d0:	9302      	str	r3, [sp, #8]
200002d2:	4b61      	ldr	r3, [pc, #388]	; (20000458 <pio_jtag_ir_scan+0x1b8>)
200002d4:	6805      	ldr	r5, [r0, #0]
200002d6:	9303      	str	r3, [sp, #12]
200002d8:	23a0      	movs	r3, #160	; 0xa0
200002da:	035b      	lsls	r3, r3, #13
200002dc:	2206      	movs	r2, #6
200002de:	0004      	movs	r4, r0
200002e0:	9300      	str	r3, [sp, #0]
200002e2:	0028      	movs	r0, r5
200002e4:	2306      	movs	r3, #6
200002e6:	000f      	movs	r7, r1
200002e8:	2100      	movs	r1, #0
200002ea:	f001 f86d 	bl	200013c8 <__pio_sm_set_pindirs_with_mask_veneer>
200002ee:	4b5b      	ldr	r3, [pc, #364]	; (2000045c <pio_jtag_ir_scan+0x1bc>)
200002f0:	2002      	movs	r0, #2
200002f2:	18eb      	adds	r3, r5, r3
200002f4:	1e5a      	subs	r2, r3, #1
200002f6:	4193      	sbcs	r3, r2
200002f8:	3306      	adds	r3, #6
200002fa:	469a      	mov	sl, r3
200002fc:	0019      	movs	r1, r3
200002fe:	f001 f87b 	bl	200013f8 <__gpio_set_function_veneer>
20000302:	4651      	mov	r1, sl
20000304:	2001      	movs	r0, #1
20000306:	f001 f877 	bl	200013f8 <__gpio_set_function_veneer>
2000030a:	466b      	mov	r3, sp
2000030c:	0032      	movs	r2, r6
2000030e:	2100      	movs	r1, #0
20000310:	0028      	movs	r0, r5
20000312:	f001 f831 	bl	20001378 <__pio_sm_init_veneer>
20000316:	2201      	movs	r2, #1
20000318:	2180      	movs	r1, #128	; 0x80
2000031a:	682b      	ldr	r3, [r5, #0]
2000031c:	0249      	lsls	r1, r1, #9
2000031e:	4313      	orrs	r3, r2
20000320:	602b      	str	r3, [r5, #0]
20000322:	6823      	ldr	r3, [r4, #0]
20000324:	685a      	ldr	r2, [r3, #4]
20000326:	420a      	tst	r2, r1
20000328:	d1fc      	bne.n	20000324 <pio_jtag_ir_scan+0x84>
2000032a:	2203      	movs	r2, #3
2000032c:	2180      	movs	r1, #128	; 0x80
2000032e:	611a      	str	r2, [r3, #16]
20000330:	0249      	lsls	r1, r1, #9
20000332:	685a      	ldr	r2, [r3, #4]
20000334:	420a      	tst	r2, r1
20000336:	d1fc      	bne.n	20000332 <pio_jtag_ir_scan+0x92>
20000338:	2203      	movs	r2, #3
2000033a:	2000      	movs	r0, #0
2000033c:	611a      	str	r2, [r3, #16]
2000033e:	f001 f833 	bl	200013a8 <__sleep_ms_veneer>
20000342:	4b47      	ldr	r3, [pc, #284]	; (20000460 <pio_jtag_ir_scan+0x1c0>)
20000344:	2180      	movs	r1, #128	; 0x80
20000346:	681b      	ldr	r3, [r3, #0]
20000348:	05c9      	lsls	r1, r1, #23
2000034a:	469a      	mov	sl, r3
2000034c:	4652      	mov	r2, sl
2000034e:	3306      	adds	r3, #6
20000350:	01d2      	lsls	r2, r2, #7
20000352:	031b      	lsls	r3, r3, #12
20000354:	4313      	orrs	r3, r2
20000356:	4a3f      	ldr	r2, [pc, #252]	; (20000454 <pio_jtag_ir_scan+0x1b4>)
20000358:	6826      	ldr	r6, [r4, #0]
2000035a:	4013      	ands	r3, r2
2000035c:	430b      	orrs	r3, r1
2000035e:	9301      	str	r3, [sp, #4]
20000360:	4b40      	ldr	r3, [pc, #256]	; (20000464 <pio_jtag_ir_scan+0x1c4>)
20000362:	2212      	movs	r2, #18
20000364:	9303      	str	r3, [sp, #12]
20000366:	4b40      	ldr	r3, [pc, #256]	; (20000468 <pio_jtag_ir_scan+0x1c8>)
20000368:	0030      	movs	r0, r6
2000036a:	9302      	str	r3, [sp, #8]
2000036c:	23a0      	movs	r3, #160	; 0xa0
2000036e:	035b      	lsls	r3, r3, #13
20000370:	2100      	movs	r1, #0
20000372:	9300      	str	r3, [sp, #0]
20000374:	231a      	movs	r3, #26
20000376:	f001 f827 	bl	200013c8 <__pio_sm_set_pindirs_with_mask_veneer>
2000037a:	4838      	ldr	r0, [pc, #224]	; (2000045c <pio_jtag_ir_scan+0x1bc>)
2000037c:	1835      	adds	r5, r6, r0
2000037e:	1e6b      	subs	r3, r5, #1
20000380:	419d      	sbcs	r5, r3
20000382:	3506      	adds	r5, #6
20000384:	0029      	movs	r1, r5
20000386:	2004      	movs	r0, #4
20000388:	f001 f836 	bl	200013f8 <__gpio_set_function_veneer>
2000038c:	0029      	movs	r1, r5
2000038e:	2001      	movs	r0, #1
20000390:	f001 f832 	bl	200013f8 <__gpio_set_function_veneer>
20000394:	0029      	movs	r1, r5
20000396:	2501      	movs	r5, #1
20000398:	2003      	movs	r0, #3
2000039a:	f001 f82d 	bl	200013f8 <__gpio_set_function_veneer>
2000039e:	0030      	movs	r0, r6
200003a0:	466b      	mov	r3, sp
200003a2:	4652      	mov	r2, sl
200003a4:	2100      	movs	r1, #0
200003a6:	f000 ffe7 	bl	20001378 <__pio_sm_init_veneer>
200003aa:	0039      	movs	r1, r7
200003ac:	465f      	mov	r7, fp
200003ae:	6833      	ldr	r3, [r6, #0]
200003b0:	4642      	mov	r2, r8
200003b2:	432b      	orrs	r3, r5
200003b4:	6033      	str	r3, [r6, #0]
200003b6:	0020      	movs	r0, r4
200003b8:	464b      	mov	r3, r9
200003ba:	f7ff fe81 	bl	200000c0 <pio_jtag_write_blocking>
200003be:	2180      	movs	r1, #128	; 0x80
200003c0:	683f      	ldr	r7, [r7, #0]
200003c2:	05c9      	lsls	r1, r1, #23
200003c4:	1d7b      	adds	r3, r7, #5
200003c6:	01fa      	lsls	r2, r7, #7
200003c8:	031b      	lsls	r3, r3, #12
200003ca:	4313      	orrs	r3, r2
200003cc:	4a21      	ldr	r2, [pc, #132]	; (20000454 <pio_jtag_ir_scan+0x1b4>)
200003ce:	6826      	ldr	r6, [r4, #0]
200003d0:	4013      	ands	r3, r2
200003d2:	430b      	orrs	r3, r1
200003d4:	9301      	str	r3, [sp, #4]
200003d6:	23c0      	movs	r3, #192	; 0xc0
200003d8:	031b      	lsls	r3, r3, #12
200003da:	9302      	str	r3, [sp, #8]
200003dc:	4b1e      	ldr	r3, [pc, #120]	; (20000458 <pio_jtag_ir_scan+0x1b8>)
200003de:	2206      	movs	r2, #6
200003e0:	9303      	str	r3, [sp, #12]
200003e2:	23a0      	movs	r3, #160	; 0xa0
200003e4:	035b      	lsls	r3, r3, #13
200003e6:	2100      	movs	r1, #0
200003e8:	0030      	movs	r0, r6
200003ea:	9300      	str	r3, [sp, #0]
200003ec:	2306      	movs	r3, #6
200003ee:	f000 ffeb 	bl	200013c8 <__pio_sm_set_pindirs_with_mask_veneer>
200003f2:	481a      	ldr	r0, [pc, #104]	; (2000045c <pio_jtag_ir_scan+0x1bc>)
200003f4:	1833      	adds	r3, r6, r0
200003f6:	1e5a      	subs	r2, r3, #1
200003f8:	4193      	sbcs	r3, r2
200003fa:	3306      	adds	r3, #6
200003fc:	4698      	mov	r8, r3
200003fe:	0019      	movs	r1, r3
20000400:	2002      	movs	r0, #2
20000402:	f000 fff9 	bl	200013f8 <__gpio_set_function_veneer>
20000406:	4641      	mov	r1, r8
20000408:	2001      	movs	r0, #1
2000040a:	f000 fff5 	bl	200013f8 <__gpio_set_function_veneer>
2000040e:	466b      	mov	r3, sp
20000410:	2100      	movs	r1, #0
20000412:	003a      	movs	r2, r7
20000414:	0030      	movs	r0, r6
20000416:	f000 ffaf 	bl	20001378 <__pio_sm_init_veneer>
2000041a:	2180      	movs	r1, #128	; 0x80
2000041c:	6833      	ldr	r3, [r6, #0]
2000041e:	0249      	lsls	r1, r1, #9
20000420:	431d      	orrs	r5, r3
20000422:	6823      	ldr	r3, [r4, #0]
20000424:	6035      	str	r5, [r6, #0]
20000426:	685a      	ldr	r2, [r3, #4]
20000428:	420a      	tst	r2, r1
2000042a:	d1fc      	bne.n	20000426 <pio_jtag_ir_scan+0x186>
2000042c:	2202      	movs	r2, #2
2000042e:	2180      	movs	r1, #128	; 0x80
20000430:	611a      	str	r2, [r3, #16]
20000432:	0249      	lsls	r1, r1, #9
20000434:	685a      	ldr	r2, [r3, #4]
20000436:	420a      	tst	r2, r1
20000438:	d1fc      	bne.n	20000434 <pio_jtag_ir_scan+0x194>
2000043a:	2203      	movs	r2, #3
2000043c:	2000      	movs	r0, #0
2000043e:	611a      	str	r2, [r3, #16]
20000440:	b005      	add	sp, #20
20000442:	bc3c      	pop	{r2, r3, r4, r5}
20000444:	4690      	mov	r8, r2
20000446:	4699      	mov	r9, r3
20000448:	46a2      	mov	sl, r4
2000044a:	46ab      	mov	fp, r5
2000044c:	bdf0      	pop	{r4, r5, r6, r7, pc}
2000044e:	46c0      	nop			; (mov r8, r8)
20000450:	20002028 	.word	0x20002028
20000454:	9fffffff 	.word	0x9fffffff
20000458:	44100442 	.word	0x44100442
2000045c:	afe00000 	.word	0xafe00000
20000460:	2000202c 	.word	0x2000202c
20000464:	44118484 	.word	0x44118484
20000468:	100c0000 	.word	0x100c0000

2000046c <pio_jtag_dr_scan>:
2000046c:	b5f0      	push	{r4, r5, r6, r7, lr}
2000046e:	46de      	mov	lr, fp
20000470:	464e      	mov	r6, r9
20000472:	4645      	mov	r5, r8
20000474:	4657      	mov	r7, sl
20000476:	b5e0      	push	{r5, r6, r7, lr}
20000478:	4698      	mov	r8, r3
2000047a:	4b67      	ldr	r3, [pc, #412]	; (20000618 <pio_jtag_dr_scan+0x1ac>)
2000047c:	b087      	sub	sp, #28
2000047e:	681e      	ldr	r6, [r3, #0]
20000480:	469b      	mov	fp, r3
20000482:	1d73      	adds	r3, r6, #5
20000484:	9201      	str	r2, [sp, #4]
20000486:	031b      	lsls	r3, r3, #12
20000488:	01f2      	lsls	r2, r6, #7
2000048a:	4313      	orrs	r3, r2
2000048c:	4a63      	ldr	r2, [pc, #396]	; (2000061c <pio_jtag_dr_scan+0x1b0>)
2000048e:	6805      	ldr	r5, [r0, #0]
20000490:	4013      	ands	r3, r2
20000492:	2280      	movs	r2, #128	; 0x80
20000494:	05d2      	lsls	r2, r2, #23
20000496:	4313      	orrs	r3, r2
20000498:	9303      	str	r3, [sp, #12]
2000049a:	23c0      	movs	r3, #192	; 0xc0
2000049c:	031b      	lsls	r3, r3, #12
2000049e:	9304      	str	r3, [sp, #16]
200004a0:	4b5f      	ldr	r3, [pc, #380]	; (20000620 <pio_jtag_dr_scan+0x1b4>)
200004a2:	2206      	movs	r2, #6
200004a4:	9305      	str	r3, [sp, #20]
200004a6:	23a0      	movs	r3, #160	; 0xa0
200004a8:	035b      	lsls	r3, r3, #13
200004aa:	0004      	movs	r4, r0
200004ac:	9302      	str	r3, [sp, #8]
200004ae:	0028      	movs	r0, r5
200004b0:	2306      	movs	r3, #6
200004b2:	4689      	mov	r9, r1
200004b4:	2100      	movs	r1, #0
200004b6:	f000 ff87 	bl	200013c8 <__pio_sm_set_pindirs_with_mask_veneer>
200004ba:	4b5a      	ldr	r3, [pc, #360]	; (20000624 <pio_jtag_dr_scan+0x1b8>)
200004bc:	2002      	movs	r0, #2
200004be:	18ef      	adds	r7, r5, r3
200004c0:	1e7b      	subs	r3, r7, #1
200004c2:	419f      	sbcs	r7, r3
200004c4:	3706      	adds	r7, #6
200004c6:	0039      	movs	r1, r7
200004c8:	f000 ff96 	bl	200013f8 <__gpio_set_function_veneer>
200004cc:	0039      	movs	r1, r7
200004ce:	2001      	movs	r0, #1
200004d0:	f000 ff92 	bl	200013f8 <__gpio_set_function_veneer>
200004d4:	0032      	movs	r2, r6
200004d6:	2100      	movs	r1, #0
200004d8:	ab02      	add	r3, sp, #8
200004da:	0028      	movs	r0, r5
200004dc:	f000 ff4c 	bl	20001378 <__pio_sm_init_veneer>
200004e0:	2201      	movs	r2, #1
200004e2:	2180      	movs	r1, #128	; 0x80
200004e4:	682b      	ldr	r3, [r5, #0]
200004e6:	0249      	lsls	r1, r1, #9
200004e8:	4313      	orrs	r3, r2
200004ea:	602b      	str	r3, [r5, #0]
200004ec:	6823      	ldr	r3, [r4, #0]
200004ee:	685a      	ldr	r2, [r3, #4]
200004f0:	420a      	tst	r2, r1
200004f2:	d1fc      	bne.n	200004ee <pio_jtag_dr_scan+0x82>
200004f4:	2202      	movs	r2, #2
200004f6:	2180      	movs	r1, #128	; 0x80
200004f8:	611a      	str	r2, [r3, #16]
200004fa:	0249      	lsls	r1, r1, #9
200004fc:	685a      	ldr	r2, [r3, #4]
200004fe:	420a      	tst	r2, r1
20000500:	d1fc      	bne.n	200004fc <pio_jtag_dr_scan+0x90>
20000502:	2701      	movs	r7, #1
20000504:	2000      	movs	r0, #0
20000506:	611f      	str	r7, [r3, #16]
20000508:	f000 ff4e 	bl	200013a8 <__sleep_ms_veneer>
2000050c:	4b46      	ldr	r3, [pc, #280]	; (20000628 <pio_jtag_dr_scan+0x1bc>)
2000050e:	2180      	movs	r1, #128	; 0x80
20000510:	681b      	ldr	r3, [r3, #0]
20000512:	05c9      	lsls	r1, r1, #23
20000514:	469a      	mov	sl, r3
20000516:	4652      	mov	r2, sl
20000518:	3306      	adds	r3, #6
2000051a:	01d2      	lsls	r2, r2, #7
2000051c:	031b      	lsls	r3, r3, #12
2000051e:	4313      	orrs	r3, r2
20000520:	4a3e      	ldr	r2, [pc, #248]	; (2000061c <pio_jtag_dr_scan+0x1b0>)
20000522:	6826      	ldr	r6, [r4, #0]
20000524:	4013      	ands	r3, r2
20000526:	430b      	orrs	r3, r1
20000528:	9303      	str	r3, [sp, #12]
2000052a:	4b40      	ldr	r3, [pc, #256]	; (2000062c <pio_jtag_dr_scan+0x1c0>)
2000052c:	2212      	movs	r2, #18
2000052e:	9305      	str	r3, [sp, #20]
20000530:	4b3f      	ldr	r3, [pc, #252]	; (20000630 <pio_jtag_dr_scan+0x1c4>)
20000532:	0030      	movs	r0, r6
20000534:	9304      	str	r3, [sp, #16]
20000536:	23a0      	movs	r3, #160	; 0xa0
20000538:	035b      	lsls	r3, r3, #13
2000053a:	2100      	movs	r1, #0
2000053c:	9302      	str	r3, [sp, #8]
2000053e:	231a      	movs	r3, #26
20000540:	f000 ff42 	bl	200013c8 <__pio_sm_set_pindirs_with_mask_veneer>
20000544:	4837      	ldr	r0, [pc, #220]	; (20000624 <pio_jtag_dr_scan+0x1b8>)
20000546:	1835      	adds	r5, r6, r0
20000548:	1e6b      	subs	r3, r5, #1
2000054a:	419d      	sbcs	r5, r3
2000054c:	3506      	adds	r5, #6
2000054e:	0029      	movs	r1, r5
20000550:	2004      	movs	r0, #4
20000552:	f000 ff51 	bl	200013f8 <__gpio_set_function_veneer>
20000556:	0029      	movs	r1, r5
20000558:	2001      	movs	r0, #1
2000055a:	f000 ff4d 	bl	200013f8 <__gpio_set_function_veneer>
2000055e:	0029      	movs	r1, r5
20000560:	2003      	movs	r0, #3
20000562:	f000 ff49 	bl	200013f8 <__gpio_set_function_veneer>
20000566:	0030      	movs	r0, r6
20000568:	4652      	mov	r2, sl
2000056a:	2100      	movs	r1, #0
2000056c:	ab02      	add	r3, sp, #8
2000056e:	f000 ff03 	bl	20001378 <__pio_sm_init_veneer>
20000572:	6833      	ldr	r3, [r6, #0]
20000574:	4642      	mov	r2, r8
20000576:	433b      	orrs	r3, r7
20000578:	6033      	str	r3, [r6, #0]
2000057a:	465e      	mov	r6, fp
2000057c:	464b      	mov	r3, r9
2000057e:	0020      	movs	r0, r4
20000580:	9901      	ldr	r1, [sp, #4]
20000582:	f7ff fd9d 	bl	200000c0 <pio_jtag_write_blocking>
20000586:	2180      	movs	r1, #128	; 0x80
20000588:	6836      	ldr	r6, [r6, #0]
2000058a:	05c9      	lsls	r1, r1, #23
2000058c:	1d73      	adds	r3, r6, #5
2000058e:	01f2      	lsls	r2, r6, #7
20000590:	031b      	lsls	r3, r3, #12
20000592:	4313      	orrs	r3, r2
20000594:	4a21      	ldr	r2, [pc, #132]	; (2000061c <pio_jtag_dr_scan+0x1b0>)
20000596:	6825      	ldr	r5, [r4, #0]
20000598:	4013      	ands	r3, r2
2000059a:	430b      	orrs	r3, r1
2000059c:	9303      	str	r3, [sp, #12]
2000059e:	23c0      	movs	r3, #192	; 0xc0
200005a0:	031b      	lsls	r3, r3, #12
200005a2:	9304      	str	r3, [sp, #16]
200005a4:	4b1e      	ldr	r3, [pc, #120]	; (20000620 <pio_jtag_dr_scan+0x1b4>)
200005a6:	2206      	movs	r2, #6
200005a8:	9305      	str	r3, [sp, #20]
200005aa:	23a0      	movs	r3, #160	; 0xa0
200005ac:	035b      	lsls	r3, r3, #13
200005ae:	2100      	movs	r1, #0
200005b0:	0028      	movs	r0, r5
200005b2:	9302      	str	r3, [sp, #8]
200005b4:	2306      	movs	r3, #6
200005b6:	f000 ff07 	bl	200013c8 <__pio_sm_set_pindirs_with_mask_veneer>
200005ba:	481a      	ldr	r0, [pc, #104]	; (20000624 <pio_jtag_dr_scan+0x1b8>)
200005bc:	182b      	adds	r3, r5, r0
200005be:	1e5a      	subs	r2, r3, #1
200005c0:	4193      	sbcs	r3, r2
200005c2:	3306      	adds	r3, #6
200005c4:	4698      	mov	r8, r3
200005c6:	0019      	movs	r1, r3
200005c8:	2002      	movs	r0, #2
200005ca:	f000 ff15 	bl	200013f8 <__gpio_set_function_veneer>
200005ce:	4641      	mov	r1, r8
200005d0:	2001      	movs	r0, #1
200005d2:	f000 ff11 	bl	200013f8 <__gpio_set_function_veneer>
200005d6:	2100      	movs	r1, #0
200005d8:	ab02      	add	r3, sp, #8
200005da:	0032      	movs	r2, r6
200005dc:	0028      	movs	r0, r5
200005de:	f000 fecb 	bl	20001378 <__pio_sm_init_veneer>
200005e2:	2180      	movs	r1, #128	; 0x80
200005e4:	682b      	ldr	r3, [r5, #0]
200005e6:	0249      	lsls	r1, r1, #9
200005e8:	431f      	orrs	r7, r3
200005ea:	6823      	ldr	r3, [r4, #0]
200005ec:	602f      	str	r7, [r5, #0]
200005ee:	685a      	ldr	r2, [r3, #4]
200005f0:	420a      	tst	r2, r1
200005f2:	d1fc      	bne.n	200005ee <pio_jtag_dr_scan+0x182>
200005f4:	2202      	movs	r2, #2
200005f6:	2180      	movs	r1, #128	; 0x80
200005f8:	611a      	str	r2, [r3, #16]
200005fa:	0249      	lsls	r1, r1, #9
200005fc:	685a      	ldr	r2, [r3, #4]
200005fe:	420a      	tst	r2, r1
20000600:	d1fc      	bne.n	200005fc <pio_jtag_dr_scan+0x190>
20000602:	2203      	movs	r2, #3
20000604:	2000      	movs	r0, #0
20000606:	611a      	str	r2, [r3, #16]
20000608:	b007      	add	sp, #28
2000060a:	bc3c      	pop	{r2, r3, r4, r5}
2000060c:	4690      	mov	r8, r2
2000060e:	4699      	mov	r9, r3
20000610:	46a2      	mov	sl, r4
20000612:	46ab      	mov	fp, r5
20000614:	bdf0      	pop	{r4, r5, r6, r7, pc}
20000616:	46c0      	nop			; (mov r8, r8)
20000618:	20002028 	.word	0x20002028
2000061c:	9fffffff 	.word	0x9fffffff
20000620:	44100442 	.word	0x44100442
20000624:	afe00000 	.word	0xafe00000
20000628:	2000202c 	.word	0x2000202c
2000062c:	44118484 	.word	0x44118484
20000630:	100c0000 	.word	0x100c0000

20000634 <pio_jtag_idcode_scan>:
20000634:	2307      	movs	r3, #7
20000636:	b570      	push	{r4, r5, r6, lr}
20000638:	4e12      	ldr	r6, [pc, #72]	; (20000684 <pio_jtag_idcode_scan+0x50>)
2000063a:	b082      	sub	sp, #8
2000063c:	9301      	str	r3, [sp, #4]
2000063e:	6833      	ldr	r3, [r6, #0]
20000640:	0004      	movs	r4, r0
20000642:	000d      	movs	r5, r1
20000644:	2b00      	cmp	r3, #0
20000646:	d00e      	beq.n	20000666 <pio_jtag_idcode_scan+0x32>
20000648:	002a      	movs	r2, r5
2000064a:	a901      	add	r1, sp, #4
2000064c:	2320      	movs	r3, #32
2000064e:	0020      	movs	r0, r4
20000650:	f7ff fe26 	bl	200002a0 <pio_jtag_ir_scan>
20000654:	2320      	movs	r3, #32
20000656:	002a      	movs	r2, r5
20000658:	0020      	movs	r0, r4
2000065a:	a901      	add	r1, sp, #4
2000065c:	f7ff ff06 	bl	2000046c <pio_jtag_dr_scan>
20000660:	2004      	movs	r0, #4
20000662:	b002      	add	sp, #8
20000664:	bd70      	pop	{r4, r5, r6, pc}
20000666:	4908      	ldr	r1, [pc, #32]	; (20000688 <pio_jtag_idcode_scan+0x54>)
20000668:	6800      	ldr	r0, [r0, #0]
2000066a:	f000 fea5 	bl	200013b8 <__pio_add_program_veneer>
2000066e:	4b07      	ldr	r3, [pc, #28]	; (2000068c <pio_jtag_idcode_scan+0x58>)
20000670:	4907      	ldr	r1, [pc, #28]	; (20000690 <pio_jtag_idcode_scan+0x5c>)
20000672:	6018      	str	r0, [r3, #0]
20000674:	6820      	ldr	r0, [r4, #0]
20000676:	f000 fe9f 	bl	200013b8 <__pio_add_program_veneer>
2000067a:	4b06      	ldr	r3, [pc, #24]	; (20000694 <pio_jtag_idcode_scan+0x60>)
2000067c:	6018      	str	r0, [r3, #0]
2000067e:	2301      	movs	r3, #1
20000680:	6033      	str	r3, [r6, #0]
20000682:	e7e1      	b.n	20000648 <pio_jtag_idcode_scan+0x14>
20000684:	20001aa4 	.word	0x20001aa4
20000688:	100046b0 	.word	0x100046b0
2000068c:	2000202c 	.word	0x2000202c
20000690:	100046c8 	.word	0x100046c8
20000694:	20002028 	.word	0x20002028

20000698 <mutex_try_enter_block_until>:
20000698:	b5f0      	push	{r4, r5, r6, r7, lr}
2000069a:	46c6      	mov	lr, r8
2000069c:	0015      	movs	r5, r2
2000069e:	b500      	push	{lr}
200006a0:	0004      	movs	r4, r0
200006a2:	001e      	movs	r6, r3
200006a4:	6802      	ldr	r2, [r0, #0]
200006a6:	f3ef 8110 	mrs	r1, PRIMASK
200006aa:	b672      	cpsid	i
200006ac:	6813      	ldr	r3, [r2, #0]
200006ae:	2b00      	cmp	r3, #0
200006b0:	d0fc      	beq.n	200006ac <mutex_try_enter_block_until+0x14>
200006b2:	f3bf 8f5f 	dmb	sy
200006b6:	2304      	movs	r3, #4
200006b8:	56e3      	ldrsb	r3, [r4, r3]
200006ba:	2b00      	cmp	r3, #0
200006bc:	db36      	blt.n	2000072c <mutex_try_enter_block_until+0x94>
200006be:	6822      	ldr	r2, [r4, #0]
200006c0:	f3bf 8f5f 	dmb	sy
200006c4:	2000      	movs	r0, #0
200006c6:	6010      	str	r0, [r2, #0]
200006c8:	f381 8810 	msr	PRIMASK, r1
200006cc:	22d0      	movs	r2, #208	; 0xd0
200006ce:	2700      	movs	r7, #0
200006d0:	0612      	lsls	r2, r2, #24
200006d2:	57d7      	ldrsb	r7, [r2, r7]
200006d4:	429f      	cmp	r7, r3
200006d6:	d103      	bne.n	200006e0 <mutex_try_enter_block_until+0x48>
200006d8:	2000      	movs	r0, #0
200006da:	bc04      	pop	{r2}
200006dc:	4690      	mov	r8, r2
200006de:	bdf0      	pop	{r4, r5, r6, r7, pc}
200006e0:	2300      	movs	r3, #0
200006e2:	4698      	mov	r8, r3
200006e4:	e00c      	b.n	20000700 <mutex_try_enter_block_until+0x68>
200006e6:	6822      	ldr	r2, [r4, #0]
200006e8:	f3bf 8f5f 	dmb	sy
200006ec:	4641      	mov	r1, r8
200006ee:	6011      	str	r1, [r2, #0]
200006f0:	f383 8810 	msr	PRIMASK, r3
200006f4:	0028      	movs	r0, r5
200006f6:	0031      	movs	r1, r6
200006f8:	f000 fe8e 	bl	20001418 <__best_effort_wfe_or_timeout_veneer>
200006fc:	2800      	cmp	r0, #0
200006fe:	d1eb      	bne.n	200006d8 <mutex_try_enter_block_until+0x40>
20000700:	6822      	ldr	r2, [r4, #0]
20000702:	f3ef 8310 	mrs	r3, PRIMASK
20000706:	b672      	cpsid	i
20000708:	6811      	ldr	r1, [r2, #0]
2000070a:	2900      	cmp	r1, #0
2000070c:	d0fc      	beq.n	20000708 <mutex_try_enter_block_until+0x70>
2000070e:	f3bf 8f5f 	dmb	sy
20000712:	7922      	ldrb	r2, [r4, #4]
20000714:	2a7f      	cmp	r2, #127	; 0x7f
20000716:	d9e6      	bls.n	200006e6 <mutex_try_enter_block_until+0x4e>
20000718:	6822      	ldr	r2, [r4, #0]
2000071a:	7127      	strb	r7, [r4, #4]
2000071c:	f3bf 8f5f 	dmb	sy
20000720:	2100      	movs	r1, #0
20000722:	6011      	str	r1, [r2, #0]
20000724:	f383 8810 	msr	PRIMASK, r3
20000728:	2001      	movs	r0, #1
2000072a:	e7d6      	b.n	200006da <mutex_try_enter_block_until+0x42>
2000072c:	23d0      	movs	r3, #208	; 0xd0
2000072e:	061b      	lsls	r3, r3, #24
20000730:	681b      	ldr	r3, [r3, #0]
20000732:	7123      	strb	r3, [r4, #4]
20000734:	6823      	ldr	r3, [r4, #0]
20000736:	f3bf 8f5f 	dmb	sy
2000073a:	2200      	movs	r2, #0
2000073c:	601a      	str	r2, [r3, #0]
2000073e:	f381 8810 	msr	PRIMASK, r1
20000742:	2001      	movs	r0, #1
20000744:	e7c9      	b.n	200006da <mutex_try_enter_block_until+0x42>
20000746:	46c0      	nop			; (mov r8, r8)

20000748 <mutex_enter_timeout_ms>:
20000748:	b5f0      	push	{r4, r5, r6, r7, lr}
2000074a:	46c6      	mov	lr, r8
2000074c:	b500      	push	{lr}
2000074e:	000d      	movs	r5, r1
20000750:	0004      	movs	r4, r0
20000752:	f000 fe49 	bl	200013e8 <__time_us_64_veneer>
20000756:	22fa      	movs	r2, #250	; 0xfa
20000758:	0006      	movs	r6, r0
2000075a:	000f      	movs	r7, r1
2000075c:	2300      	movs	r3, #0
2000075e:	0028      	movs	r0, r5
20000760:	2100      	movs	r1, #0
20000762:	0092      	lsls	r2, r2, #2
20000764:	f000 fe10 	bl	20001388 <____wrap___aeabi_lmul_veneer>
20000768:	1836      	adds	r6, r6, r0
2000076a:	414f      	adcs	r7, r1
2000076c:	2f00      	cmp	r7, #0
2000076e:	db2c      	blt.n	200007ca <mutex_enter_timeout_ms+0x82>
20000770:	23d0      	movs	r3, #208	; 0xd0
20000772:	061b      	lsls	r3, r3, #24
20000774:	681b      	ldr	r3, [r3, #0]
20000776:	2500      	movs	r5, #0
20000778:	4698      	mov	r8, r3
2000077a:	e00b      	b.n	20000794 <mutex_enter_timeout_ms+0x4c>
2000077c:	6822      	ldr	r2, [r4, #0]
2000077e:	f3bf 8f5f 	dmb	sy
20000782:	6015      	str	r5, [r2, #0]
20000784:	f383 8810 	msr	PRIMASK, r3
20000788:	0030      	movs	r0, r6
2000078a:	0039      	movs	r1, r7
2000078c:	f000 fe44 	bl	20001418 <__best_effort_wfe_or_timeout_veneer>
20000790:	2800      	cmp	r0, #0
20000792:	d118      	bne.n	200007c6 <mutex_enter_timeout_ms+0x7e>
20000794:	6822      	ldr	r2, [r4, #0]
20000796:	f3ef 8310 	mrs	r3, PRIMASK
2000079a:	b672      	cpsid	i
2000079c:	6811      	ldr	r1, [r2, #0]
2000079e:	2900      	cmp	r1, #0
200007a0:	d0fc      	beq.n	2000079c <mutex_enter_timeout_ms+0x54>
200007a2:	f3bf 8f5f 	dmb	sy
200007a6:	7922      	ldrb	r2, [r4, #4]
200007a8:	2a7f      	cmp	r2, #127	; 0x7f
200007aa:	d9e7      	bls.n	2000077c <mutex_enter_timeout_ms+0x34>
200007ac:	4642      	mov	r2, r8
200007ae:	7122      	strb	r2, [r4, #4]
200007b0:	6822      	ldr	r2, [r4, #0]
200007b2:	f3bf 8f5f 	dmb	sy
200007b6:	2100      	movs	r1, #0
200007b8:	6011      	str	r1, [r2, #0]
200007ba:	f383 8810 	msr	PRIMASK, r3
200007be:	2001      	movs	r0, #1
200007c0:	bc04      	pop	{r2}
200007c2:	4690      	mov	r8, r2
200007c4:	bdf0      	pop	{r4, r5, r6, r7, pc}
200007c6:	2000      	movs	r0, #0
200007c8:	e7fa      	b.n	200007c0 <mutex_enter_timeout_ms+0x78>
200007ca:	2601      	movs	r6, #1
200007cc:	4f01      	ldr	r7, [pc, #4]	; (200007d4 <mutex_enter_timeout_ms+0x8c>)
200007ce:	4276      	negs	r6, r6
200007d0:	e7ce      	b.n	20000770 <mutex_enter_timeout_ms+0x28>
200007d2:	46c0      	nop			; (mov r8, r8)
200007d4:	7fffffff 	.word	0x7fffffff

200007d8 <mutex_exit>:
200007d8:	6802      	ldr	r2, [r0, #0]
200007da:	f3ef 8110 	mrs	r1, PRIMASK
200007de:	b672      	cpsid	i
200007e0:	6813      	ldr	r3, [r2, #0]
200007e2:	2b00      	cmp	r3, #0
200007e4:	d0fc      	beq.n	200007e0 <mutex_exit+0x8>
200007e6:	f3bf 8f5f 	dmb	sy
200007ea:	23ff      	movs	r3, #255	; 0xff
200007ec:	7103      	strb	r3, [r0, #4]
200007ee:	6803      	ldr	r3, [r0, #0]
200007f0:	f3bf 8f5f 	dmb	sy
200007f4:	2200      	movs	r2, #0
200007f6:	601a      	str	r2, [r3, #0]
200007f8:	f381 8810 	msr	PRIMASK, r1
200007fc:	bf40      	sev
200007fe:	4770      	bx	lr

20000800 <flash_init_boot2_copyout>:
20000800:	4808      	ldr	r0, [pc, #32]	; (20000824 <flash_init_boot2_copyout+0x24>)
20000802:	b510      	push	{r4, lr}
20000804:	7803      	ldrb	r3, [r0, #0]
20000806:	2b00      	cmp	r3, #0
20000808:	d10a      	bne.n	20000820 <flash_init_boot2_copyout+0x20>
2000080a:	2380      	movs	r3, #128	; 0x80
2000080c:	4906      	ldr	r1, [pc, #24]	; (20000828 <flash_init_boot2_copyout+0x28>)
2000080e:	4a07      	ldr	r2, [pc, #28]	; (2000082c <flash_init_boot2_copyout+0x2c>)
20000810:	055b      	lsls	r3, r3, #21
20000812:	681c      	ldr	r4, [r3, #0]
20000814:	50cc      	str	r4, [r1, r3]
20000816:	3304      	adds	r3, #4
20000818:	4293      	cmp	r3, r2
2000081a:	d1fa      	bne.n	20000812 <flash_init_boot2_copyout+0x12>
2000081c:	2301      	movs	r3, #1
2000081e:	7003      	strb	r3, [r0, #0]
20000820:	bd10      	pop	{r4, pc}
20000822:	46c0      	nop			; (mov r8, r8)
20000824:	20001f18 	.word	0x20001f18
20000828:	10001924 	.word	0x10001924
2000082c:	10000100 	.word	0x10000100

20000830 <flash_enable_xip_via_boot2>:
20000830:	b510      	push	{r4, lr}
20000832:	4b02      	ldr	r3, [pc, #8]	; (2000083c <flash_enable_xip_via_boot2+0xc>)
20000834:	3301      	adds	r3, #1
20000836:	4798      	blx	r3
20000838:	bd10      	pop	{r4, pc}
2000083a:	46c0      	nop			; (mov r8, r8)
2000083c:	20001924 	.word	0x20001924

20000840 <flash_cs_force.constprop.0>:
20000840:	4b05      	ldr	r3, [pc, #20]	; (20000858 <flash_cs_force.constprop.0+0x18>)
20000842:	681a      	ldr	r2, [r3, #0]
20000844:	2380      	movs	r3, #128	; 0x80
20000846:	009b      	lsls	r3, r3, #2
20000848:	4053      	eors	r3, r2
2000084a:	22c0      	movs	r2, #192	; 0xc0
2000084c:	0092      	lsls	r2, r2, #2
2000084e:	4013      	ands	r3, r2
20000850:	4a02      	ldr	r2, [pc, #8]	; (2000085c <flash_cs_force.constprop.0+0x1c>)
20000852:	6013      	str	r3, [r2, #0]
20000854:	4770      	bx	lr
20000856:	46c0      	nop			; (mov r8, r8)
20000858:	4001800c 	.word	0x4001800c
2000085c:	4001900c 	.word	0x4001900c

20000860 <flash_cs_force.constprop.1>:
20000860:	4b03      	ldr	r3, [pc, #12]	; (20000870 <flash_cs_force.constprop.1+0x10>)
20000862:	681a      	ldr	r2, [r3, #0]
20000864:	23c0      	movs	r3, #192	; 0xc0
20000866:	009b      	lsls	r3, r3, #2
20000868:	4393      	bics	r3, r2
2000086a:	4a02      	ldr	r2, [pc, #8]	; (20000874 <flash_cs_force.constprop.1+0x14>)
2000086c:	6013      	str	r3, [r2, #0]
2000086e:	4770      	bx	lr
20000870:	4001800c 	.word	0x4001800c
20000874:	4001900c 	.word	0x4001900c

20000878 <flash_do_cmd>:
20000878:	2314      	movs	r3, #20
2000087a:	b5f0      	push	{r4, r5, r6, r7, lr}
2000087c:	46d6      	mov	lr, sl
2000087e:	464f      	mov	r7, r9
20000880:	4646      	mov	r6, r8
20000882:	469a      	mov	sl, r3
20000884:	4681      	mov	r9, r0
20000886:	8818      	ldrh	r0, [r3, #0]
20000888:	3304      	adds	r3, #4
2000088a:	b5c0      	push	{r6, r7, lr}
2000088c:	4698      	mov	r8, r3
2000088e:	000e      	movs	r6, r1
20000890:	881b      	ldrh	r3, [r3, #0]
20000892:	4927      	ldr	r1, [pc, #156]	; (20000930 <flash_do_cmd+0xb8>)
20000894:	0014      	movs	r4, r2
20000896:	4798      	blx	r3
20000898:	4653      	mov	r3, sl
2000089a:	0007      	movs	r7, r0
2000089c:	8818      	ldrh	r0, [r3, #0]
2000089e:	4643      	mov	r3, r8
200008a0:	4924      	ldr	r1, [pc, #144]	; (20000934 <flash_do_cmd+0xbc>)
200008a2:	881b      	ldrh	r3, [r3, #0]
200008a4:	4798      	blx	r3
200008a6:	4653      	mov	r3, sl
200008a8:	0005      	movs	r5, r0
200008aa:	8818      	ldrh	r0, [r3, #0]
200008ac:	4643      	mov	r3, r8
200008ae:	4922      	ldr	r1, [pc, #136]	; (20000938 <flash_do_cmd+0xc0>)
200008b0:	881b      	ldrh	r3, [r3, #0]
200008b2:	4798      	blx	r3
200008b4:	4680      	mov	r8, r0
200008b6:	f7ff ffa3 	bl	20000800 <flash_init_boot2_copyout>
200008ba:	47b8      	blx	r7
200008bc:	47a8      	blx	r5
200008be:	f7ff ffbf 	bl	20000840 <flash_cs_force.constprop.0>
200008c2:	2c00      	cmp	r4, #0
200008c4:	d01b      	beq.n	200008fe <flash_do_cmd+0x86>
200008c6:	21c0      	movs	r1, #192	; 0xc0
200008c8:	0022      	movs	r2, r4
200008ca:	2708      	movs	r7, #8
200008cc:	2002      	movs	r0, #2
200008ce:	0549      	lsls	r1, r1, #21
200008d0:	003d      	movs	r5, r7
200008d2:	6a8b      	ldr	r3, [r1, #40]	; 0x28
200008d4:	401d      	ands	r5, r3
200008d6:	4218      	tst	r0, r3
200008d8:	d00b      	beq.n	200008f2 <flash_do_cmd+0x7a>
200008da:	2c00      	cmp	r4, #0
200008dc:	d009      	beq.n	200008f2 <flash_do_cmd+0x7a>
200008de:	1b13      	subs	r3, r2, r4
200008e0:	2b0d      	cmp	r3, #13
200008e2:	d81f      	bhi.n	20000924 <flash_do_cmd+0xac>
200008e4:	464b      	mov	r3, r9
200008e6:	781b      	ldrb	r3, [r3, #0]
200008e8:	3c01      	subs	r4, #1
200008ea:	660b      	str	r3, [r1, #96]	; 0x60
200008ec:	2301      	movs	r3, #1
200008ee:	469c      	mov	ip, r3
200008f0:	44e1      	add	r9, ip
200008f2:	0023      	movs	r3, r4
200008f4:	2d00      	cmp	r5, #0
200008f6:	d10c      	bne.n	20000912 <flash_do_cmd+0x9a>
200008f8:	4313      	orrs	r3, r2
200008fa:	2b00      	cmp	r3, #0
200008fc:	d1e8      	bne.n	200008d0 <flash_do_cmd+0x58>
200008fe:	f7ff ffaf 	bl	20000860 <flash_cs_force.constprop.1>
20000902:	47c0      	blx	r8
20000904:	f7ff ff94 	bl	20000830 <flash_enable_xip_via_boot2>
20000908:	bc1c      	pop	{r2, r3, r4}
2000090a:	4690      	mov	r8, r2
2000090c:	4699      	mov	r9, r3
2000090e:	46a2      	mov	sl, r4
20000910:	bdf0      	pop	{r4, r5, r6, r7, pc}
20000912:	2a00      	cmp	r2, #0
20000914:	d0f1      	beq.n	200008fa <flash_do_cmd+0x82>
20000916:	6e0b      	ldr	r3, [r1, #96]	; 0x60
20000918:	3a01      	subs	r2, #1
2000091a:	7033      	strb	r3, [r6, #0]
2000091c:	0013      	movs	r3, r2
2000091e:	3601      	adds	r6, #1
20000920:	4323      	orrs	r3, r4
20000922:	e7ea      	b.n	200008fa <flash_do_cmd+0x82>
20000924:	2d00      	cmp	r5, #0
20000926:	d0d3      	beq.n	200008d0 <flash_do_cmd+0x58>
20000928:	2a00      	cmp	r2, #0
2000092a:	d0d1      	beq.n	200008d0 <flash_do_cmd+0x58>
2000092c:	e7f3      	b.n	20000916 <flash_do_cmd+0x9e>
2000092e:	46c0      	nop			; (mov r8, r8)
20000930:	00004649 	.word	0x00004649
20000934:	00005845 	.word	0x00005845
20000938:	00004346 	.word	0x00004346

2000093c <reset_non_control_endpoints>:
2000093c:	2300      	movs	r3, #0
2000093e:	4a1c      	ldr	r2, [pc, #112]	; (200009b0 <reset_non_control_endpoints+0x74>)
20000940:	b510      	push	{r4, lr}
20000942:	6093      	str	r3, [r2, #8]
20000944:	60d3      	str	r3, [r2, #12]
20000946:	4a1b      	ldr	r2, [pc, #108]	; (200009b4 <reset_non_control_endpoints+0x78>)
20000948:	2100      	movs	r1, #0
2000094a:	6093      	str	r3, [r2, #8]
2000094c:	60d3      	str	r3, [r2, #12]
2000094e:	4a1a      	ldr	r2, [pc, #104]	; (200009b8 <reset_non_control_endpoints+0x7c>)
20000950:	481a      	ldr	r0, [pc, #104]	; (200009bc <reset_non_control_endpoints+0x80>)
20000952:	6093      	str	r3, [r2, #8]
20000954:	60d3      	str	r3, [r2, #12]
20000956:	4a1a      	ldr	r2, [pc, #104]	; (200009c0 <reset_non_control_endpoints+0x84>)
20000958:	6093      	str	r3, [r2, #8]
2000095a:	60d3      	str	r3, [r2, #12]
2000095c:	4a19      	ldr	r2, [pc, #100]	; (200009c4 <reset_non_control_endpoints+0x88>)
2000095e:	6093      	str	r3, [r2, #8]
20000960:	60d3      	str	r3, [r2, #12]
20000962:	4a19      	ldr	r2, [pc, #100]	; (200009c8 <reset_non_control_endpoints+0x8c>)
20000964:	6093      	str	r3, [r2, #8]
20000966:	60d3      	str	r3, [r2, #12]
20000968:	4a18      	ldr	r2, [pc, #96]	; (200009cc <reset_non_control_endpoints+0x90>)
2000096a:	6093      	str	r3, [r2, #8]
2000096c:	60d3      	str	r3, [r2, #12]
2000096e:	4a18      	ldr	r2, [pc, #96]	; (200009d0 <reset_non_control_endpoints+0x94>)
20000970:	6093      	str	r3, [r2, #8]
20000972:	60d3      	str	r3, [r2, #12]
20000974:	4a17      	ldr	r2, [pc, #92]	; (200009d4 <reset_non_control_endpoints+0x98>)
20000976:	6093      	str	r3, [r2, #8]
20000978:	60d3      	str	r3, [r2, #12]
2000097a:	4a17      	ldr	r2, [pc, #92]	; (200009d8 <reset_non_control_endpoints+0x9c>)
2000097c:	6093      	str	r3, [r2, #8]
2000097e:	60d3      	str	r3, [r2, #12]
20000980:	4a16      	ldr	r2, [pc, #88]	; (200009dc <reset_non_control_endpoints+0xa0>)
20000982:	6093      	str	r3, [r2, #8]
20000984:	60d3      	str	r3, [r2, #12]
20000986:	4a16      	ldr	r2, [pc, #88]	; (200009e0 <reset_non_control_endpoints+0xa4>)
20000988:	6093      	str	r3, [r2, #8]
2000098a:	60d3      	str	r3, [r2, #12]
2000098c:	4a15      	ldr	r2, [pc, #84]	; (200009e4 <reset_non_control_endpoints+0xa8>)
2000098e:	6093      	str	r3, [r2, #8]
20000990:	60d3      	str	r3, [r2, #12]
20000992:	4a15      	ldr	r2, [pc, #84]	; (200009e8 <reset_non_control_endpoints+0xac>)
20000994:	6093      	str	r3, [r2, #8]
20000996:	60d3      	str	r3, [r2, #12]
20000998:	4a14      	ldr	r2, [pc, #80]	; (200009ec <reset_non_control_endpoints+0xb0>)
2000099a:	6093      	str	r3, [r2, #8]
2000099c:	60d3      	str	r3, [r2, #12]
2000099e:	22f0      	movs	r2, #240	; 0xf0
200009a0:	0092      	lsls	r2, r2, #2
200009a2:	f000 fd19 	bl	200013d8 <____wrap_memset_veneer>
200009a6:	4b12      	ldr	r3, [pc, #72]	; (200009f0 <reset_non_control_endpoints+0xb4>)
200009a8:	4a12      	ldr	r2, [pc, #72]	; (200009f4 <reset_non_control_endpoints+0xb8>)
200009aa:	601a      	str	r2, [r3, #0]
200009ac:	bd10      	pop	{r4, pc}
200009ae:	46c0      	nop			; (mov r8, r8)
200009b0:	50100000 	.word	0x50100000
200009b4:	50100008 	.word	0x50100008
200009b8:	50100010 	.word	0x50100010
200009bc:	20001ae8 	.word	0x20001ae8
200009c0:	50100018 	.word	0x50100018
200009c4:	50100020 	.word	0x50100020
200009c8:	50100028 	.word	0x50100028
200009cc:	50100030 	.word	0x50100030
200009d0:	50100038 	.word	0x50100038
200009d4:	50100040 	.word	0x50100040
200009d8:	50100048 	.word	0x50100048
200009dc:	50100050 	.word	0x50100050
200009e0:	50100058 	.word	0x50100058
200009e4:	50100060 	.word	0x50100060
200009e8:	50100068 	.word	0x50100068
200009ec:	50100070 	.word	0x50100070
200009f0:	20001eac 	.word	0x20001eac
200009f4:	50100180 	.word	0x50100180

200009f8 <hw_handle_buff_status>:
200009f8:	b5f0      	push	{r4, r5, r6, r7, lr}
200009fa:	4657      	mov	r7, sl
200009fc:	46de      	mov	lr, fp
200009fe:	464e      	mov	r6, r9
20000a00:	4645      	mov	r5, r8
20000a02:	b5e0      	push	{r5, r6, r7, lr}
20000a04:	4b26      	ldr	r3, [pc, #152]	; (20000aa0 <hw_handle_buff_status+0xa8>)
20000a06:	b087      	sub	sp, #28
20000a08:	6d9f      	ldr	r7, [r3, #88]	; 0x58
20000a0a:	2f00      	cmp	r7, #0
20000a0c:	d024      	beq.n	20000a58 <hw_handle_buff_status+0x60>
20000a0e:	4b25      	ldr	r3, [pc, #148]	; (20000aa4 <hw_handle_buff_status+0xac>)
20000a10:	2400      	movs	r4, #0
20000a12:	4699      	mov	r9, r3
20000a14:	2301      	movs	r3, #1
20000a16:	469b      	mov	fp, r3
20000a18:	4b23      	ldr	r3, [pc, #140]	; (20000aa8 <hw_handle_buff_status+0xb0>)
20000a1a:	2601      	movs	r6, #1
20000a1c:	469a      	mov	sl, r3
20000a1e:	e004      	b.n	20000a2a <hw_handle_buff_status+0x32>
20000a20:	3401      	adds	r4, #1
20000a22:	0076      	lsls	r6, r6, #1
20000a24:	b2e4      	uxtb	r4, r4
20000a26:	2c20      	cmp	r4, #32
20000a28:	d016      	beq.n	20000a58 <hw_handle_buff_status+0x60>
20000a2a:	423e      	tst	r6, r7
20000a2c:	d0f8      	beq.n	20000a20 <hw_handle_buff_status+0x28>
20000a2e:	464b      	mov	r3, r9
20000a30:	465a      	mov	r2, fp
20000a32:	659e      	str	r6, [r3, #88]	; 0x58
20000a34:	0863      	lsrs	r3, r4, #1
20000a36:	005b      	lsls	r3, r3, #1
20000a38:	43a2      	bics	r2, r4
20000a3a:	189b      	adds	r3, r3, r2
20000a3c:	015b      	lsls	r3, r3, #5
20000a3e:	4453      	add	r3, sl
20000a40:	0018      	movs	r0, r3
20000a42:	4698      	mov	r8, r3
20000a44:	f000 fbb6 	bl	200011b4 <hw_endpoint_xfer_continue>
20000a48:	2800      	cmp	r0, #0
20000a4a:	d10c      	bne.n	20000a66 <hw_handle_buff_status+0x6e>
20000a4c:	3401      	adds	r4, #1
20000a4e:	43b7      	bics	r7, r6
20000a50:	b2e4      	uxtb	r4, r4
20000a52:	0076      	lsls	r6, r6, #1
20000a54:	2f00      	cmp	r7, #0
20000a56:	d1e6      	bne.n	20000a26 <hw_handle_buff_status+0x2e>
20000a58:	b007      	add	sp, #28
20000a5a:	bc3c      	pop	{r2, r3, r4, r5}
20000a5c:	4690      	mov	r8, r2
20000a5e:	4699      	mov	r9, r3
20000a60:	46a2      	mov	sl, r4
20000a62:	46ab      	mov	fp, r5
20000a64:	bdf0      	pop	{r4, r5, r6, r7, pc}
20000a66:	4642      	mov	r2, r8
20000a68:	4643      	mov	r3, r8
20000a6a:	8ad2      	ldrh	r2, [r2, #22]
20000a6c:	ad03      	add	r5, sp, #12
20000a6e:	789b      	ldrb	r3, [r3, #2]
20000a70:	9201      	str	r2, [sp, #4]
20000a72:	2100      	movs	r1, #0
20000a74:	2208      	movs	r2, #8
20000a76:	0028      	movs	r0, r5
20000a78:	9300      	str	r3, [sp, #0]
20000a7a:	f000 fcad 	bl	200013d8 <____wrap_memset_veneer>
20000a7e:	2307      	movs	r3, #7
20000a80:	706b      	strb	r3, [r5, #1]
20000a82:	9b00      	ldr	r3, [sp, #0]
20000a84:	9a01      	ldr	r2, [sp, #4]
20000a86:	712b      	strb	r3, [r5, #4]
20000a88:	2300      	movs	r3, #0
20000a8a:	0028      	movs	r0, r5
20000a8c:	2101      	movs	r1, #1
20000a8e:	60aa      	str	r2, [r5, #8]
20000a90:	716b      	strb	r3, [r5, #5]
20000a92:	f000 fbb7 	bl	20001204 <dcd_event_handler>
20000a96:	4640      	mov	r0, r8
20000a98:	f000 fb24 	bl	200010e4 <hw_endpoint_reset_transfer>
20000a9c:	e7d6      	b.n	20000a4c <hw_handle_buff_status+0x54>
20000a9e:	46c0      	nop			; (mov r8, r8)
20000aa0:	50110000 	.word	0x50110000
20000aa4:	50113000 	.word	0x50113000
20000aa8:	20001aa8 	.word	0x20001aa8

20000aac <dcd_rp2040_irq>:
20000aac:	2398      	movs	r3, #152	; 0x98
20000aae:	4ac9      	ldr	r2, [pc, #804]	; (20000dd4 <dcd_rp2040_irq+0x328>)
20000ab0:	b570      	push	{r4, r5, r6, lr}
20000ab2:	58d5      	ldr	r5, [r2, r3]
20000ab4:	2380      	movs	r3, #128	; 0x80
20000ab6:	002c      	movs	r4, r5
20000ab8:	029b      	lsls	r3, r3, #10
20000aba:	2610      	movs	r6, #16
20000abc:	b084      	sub	sp, #16
20000abe:	401c      	ands	r4, r3
20000ac0:	421d      	tst	r5, r3
20000ac2:	d079      	beq.n	20000bb8 <dcd_rp2040_irq+0x10c>
20000ac4:	4bc4      	ldr	r3, [pc, #784]	; (20000dd8 <dcd_rp2040_irq+0x32c>)
20000ac6:	4cc5      	ldr	r4, [pc, #788]	; (20000ddc <dcd_rp2040_irq+0x330>)
20000ac8:	6a9a      	ldr	r2, [r3, #40]	; 0x28
20000aca:	4bc5      	ldr	r3, [pc, #788]	; (20000de0 <dcd_rp2040_irq+0x334>)
20000acc:	2600      	movs	r6, #0
20000ace:	601a      	str	r2, [r3, #0]
20000ad0:	233b      	movs	r3, #59	; 0x3b
20000ad2:	5ce3      	ldrb	r3, [r4, r3]
20000ad4:	2b02      	cmp	r3, #2
20000ad6:	d100      	bne.n	20000ada <dcd_rp2040_irq+0x2e>
20000ad8:	e0f5      	b.n	20000cc6 <dcd_rp2040_irq+0x21a>
20000ada:	237b      	movs	r3, #123	; 0x7b
20000adc:	5ce3      	ldrb	r3, [r4, r3]
20000ade:	2b02      	cmp	r3, #2
20000ae0:	d100      	bne.n	20000ae4 <dcd_rp2040_irq+0x38>
20000ae2:	e101      	b.n	20000ce8 <dcd_rp2040_irq+0x23c>
20000ae4:	23bb      	movs	r3, #187	; 0xbb
20000ae6:	5ce3      	ldrb	r3, [r4, r3]
20000ae8:	2b02      	cmp	r3, #2
20000aea:	d100      	bne.n	20000aee <dcd_rp2040_irq+0x42>
20000aec:	e10e      	b.n	20000d0c <dcd_rp2040_irq+0x260>
20000aee:	23fb      	movs	r3, #251	; 0xfb
20000af0:	5ce3      	ldrb	r3, [r4, r3]
20000af2:	2b02      	cmp	r3, #2
20000af4:	d100      	bne.n	20000af8 <dcd_rp2040_irq+0x4c>
20000af6:	e11b      	b.n	20000d30 <dcd_rp2040_irq+0x284>
20000af8:	233c      	movs	r3, #60	; 0x3c
20000afa:	33ff      	adds	r3, #255	; 0xff
20000afc:	5ce3      	ldrb	r3, [r4, r3]
20000afe:	2b02      	cmp	r3, #2
20000b00:	d100      	bne.n	20000b04 <dcd_rp2040_irq+0x58>
20000b02:	e127      	b.n	20000d54 <dcd_rp2040_irq+0x2a8>
20000b04:	237c      	movs	r3, #124	; 0x7c
20000b06:	33ff      	adds	r3, #255	; 0xff
20000b08:	5ce3      	ldrb	r3, [r4, r3]
20000b0a:	2b02      	cmp	r3, #2
20000b0c:	d100      	bne.n	20000b10 <dcd_rp2040_irq+0x64>
20000b0e:	e136      	b.n	20000d7e <dcd_rp2040_irq+0x2d2>
20000b10:	23bc      	movs	r3, #188	; 0xbc
20000b12:	33ff      	adds	r3, #255	; 0xff
20000b14:	5ce3      	ldrb	r3, [r4, r3]
20000b16:	2b02      	cmp	r3, #2
20000b18:	d100      	bne.n	20000b1c <dcd_rp2040_irq+0x70>
20000b1a:	e145      	b.n	20000da8 <dcd_rp2040_irq+0x2fc>
20000b1c:	23fc      	movs	r3, #252	; 0xfc
20000b1e:	33ff      	adds	r3, #255	; 0xff
20000b20:	5ce3      	ldrb	r3, [r4, r3]
20000b22:	2b02      	cmp	r3, #2
20000b24:	d100      	bne.n	20000b28 <dcd_rp2040_irq+0x7c>
20000b26:	e179      	b.n	20000e1c <dcd_rp2040_irq+0x370>
20000b28:	4bae      	ldr	r3, [pc, #696]	; (20000de4 <dcd_rp2040_irq+0x338>)
20000b2a:	5ce3      	ldrb	r3, [r4, r3]
20000b2c:	2b02      	cmp	r3, #2
20000b2e:	d100      	bne.n	20000b32 <dcd_rp2040_irq+0x86>
20000b30:	e189      	b.n	20000e46 <dcd_rp2040_irq+0x39a>
20000b32:	4bad      	ldr	r3, [pc, #692]	; (20000de8 <dcd_rp2040_irq+0x33c>)
20000b34:	5ce3      	ldrb	r3, [r4, r3]
20000b36:	2b02      	cmp	r3, #2
20000b38:	d100      	bne.n	20000b3c <dcd_rp2040_irq+0x90>
20000b3a:	e198      	b.n	20000e6e <dcd_rp2040_irq+0x3c2>
20000b3c:	4bab      	ldr	r3, [pc, #684]	; (20000dec <dcd_rp2040_irq+0x340>)
20000b3e:	5ce3      	ldrb	r3, [r4, r3]
20000b40:	2b02      	cmp	r3, #2
20000b42:	d100      	bne.n	20000b46 <dcd_rp2040_irq+0x9a>
20000b44:	e1a7      	b.n	20000e96 <dcd_rp2040_irq+0x3ea>
20000b46:	4baa      	ldr	r3, [pc, #680]	; (20000df0 <dcd_rp2040_irq+0x344>)
20000b48:	5ce3      	ldrb	r3, [r4, r3]
20000b4a:	2b02      	cmp	r3, #2
20000b4c:	d100      	bne.n	20000b50 <dcd_rp2040_irq+0xa4>
20000b4e:	e1ca      	b.n	20000ee6 <dcd_rp2040_irq+0x43a>
20000b50:	4ba8      	ldr	r3, [pc, #672]	; (20000df4 <dcd_rp2040_irq+0x348>)
20000b52:	5ce3      	ldrb	r3, [r4, r3]
20000b54:	2b02      	cmp	r3, #2
20000b56:	d100      	bne.n	20000b5a <dcd_rp2040_irq+0xae>
20000b58:	e1d9      	b.n	20000f0e <dcd_rp2040_irq+0x462>
20000b5a:	4ba7      	ldr	r3, [pc, #668]	; (20000df8 <dcd_rp2040_irq+0x34c>)
20000b5c:	5ce3      	ldrb	r3, [r4, r3]
20000b5e:	2b02      	cmp	r3, #2
20000b60:	d100      	bne.n	20000b64 <dcd_rp2040_irq+0xb8>
20000b62:	e1ac      	b.n	20000ebe <dcd_rp2040_irq+0x412>
20000b64:	4ba5      	ldr	r3, [pc, #660]	; (20000dfc <dcd_rp2040_irq+0x350>)
20000b66:	5ce3      	ldrb	r3, [r4, r3]
20000b68:	2b02      	cmp	r3, #2
20000b6a:	d100      	bne.n	20000b6e <dcd_rp2040_irq+0xc2>
20000b6c:	e095      	b.n	20000c9a <dcd_rp2040_irq+0x1ee>
20000b6e:	4ba4      	ldr	r3, [pc, #656]	; (20000e00 <dcd_rp2040_irq+0x354>)
20000b70:	5ce3      	ldrb	r3, [r4, r3]
20000b72:	2b02      	cmp	r3, #2
20000b74:	d100      	bne.n	20000b78 <dcd_rp2040_irq+0xcc>
20000b76:	e1de      	b.n	20000f36 <dcd_rp2040_irq+0x48a>
20000b78:	2e00      	cmp	r6, #0
20000b7a:	d108      	bne.n	20000b8e <dcd_rp2040_irq+0xe2>
20000b7c:	4ba1      	ldr	r3, [pc, #644]	; (20000e04 <dcd_rp2040_irq+0x358>)
20000b7e:	781b      	ldrb	r3, [r3, #0]
20000b80:	2b00      	cmp	r3, #0
20000b82:	d104      	bne.n	20000b8e <dcd_rp2040_irq+0xe2>
20000b84:	2180      	movs	r1, #128	; 0x80
20000b86:	4aa0      	ldr	r2, [pc, #640]	; (20000e08 <dcd_rp2040_irq+0x35c>)
20000b88:	3390      	adds	r3, #144	; 0x90
20000b8a:	0289      	lsls	r1, r1, #10
20000b8c:	50d1      	str	r1, [r2, r3]
20000b8e:	ae01      	add	r6, sp, #4
20000b90:	4b90      	ldr	r3, [pc, #576]	; (20000dd4 <dcd_rp2040_irq+0x328>)
20000b92:	220c      	movs	r2, #12
20000b94:	2100      	movs	r1, #0
20000b96:	0030      	movs	r0, r6
20000b98:	6c9c      	ldr	r4, [r3, #72]	; 0x48
20000b9a:	f000 fc1d 	bl	200013d8 <____wrap_memset_veneer>
20000b9e:	23c0      	movs	r3, #192	; 0xc0
20000ba0:	0564      	lsls	r4, r4, #21
20000ba2:	009b      	lsls	r3, r3, #2
20000ba4:	0d64      	lsrs	r4, r4, #21
20000ba6:	6074      	str	r4, [r6, #4]
20000ba8:	0030      	movs	r0, r6
20000baa:	8033      	strh	r3, [r6, #0]
20000bac:	2101      	movs	r1, #1
20000bae:	2480      	movs	r4, #128	; 0x80
20000bb0:	f000 fb28 	bl	20001204 <dcd_event_handler>
20000bb4:	4e95      	ldr	r6, [pc, #596]	; (20000e0c <dcd_rp2040_irq+0x360>)
20000bb6:	02a4      	lsls	r4, r4, #10
20000bb8:	06eb      	lsls	r3, r5, #27
20000bba:	d46a      	bmi.n	20000c92 <dcd_rp2040_irq+0x1e6>
20000bbc:	2380      	movs	r3, #128	; 0x80
20000bbe:	025b      	lsls	r3, r3, #9
20000bc0:	421d      	tst	r5, r3
20000bc2:	d017      	beq.n	20000bf4 <dcd_rp2040_irq+0x148>
20000bc4:	2201      	movs	r2, #1
20000bc6:	2123      	movs	r1, #35	; 0x23
20000bc8:	431c      	orrs	r4, r3
20000bca:	4b84      	ldr	r3, [pc, #528]	; (20000ddc <dcd_rp2040_irq+0x330>)
20000bcc:	545a      	strb	r2, [r3, r1]
20000bce:	70da      	strb	r2, [r3, #3]
20000bd0:	466a      	mov	r2, sp
20000bd2:	2300      	movs	r3, #0
20000bd4:	80d3      	strh	r3, [r2, #6]
20000bd6:	23c0      	movs	r3, #192	; 0xc0
20000bd8:	00db      	lsls	r3, r3, #3
20000bda:	8093      	strh	r3, [r2, #4]
20000bdc:	4a8c      	ldr	r2, [pc, #560]	; (20000e10 <dcd_rp2040_irq+0x364>)
20000bde:	ab02      	add	r3, sp, #8
20000be0:	ca03      	ldmia	r2!, {r0, r1}
20000be2:	c303      	stmia	r3!, {r0, r1}
20000be4:	2101      	movs	r1, #1
20000be6:	a801      	add	r0, sp, #4
20000be8:	f000 fb0c 	bl	20001204 <dcd_event_handler>
20000bec:	2280      	movs	r2, #128	; 0x80
20000bee:	4b86      	ldr	r3, [pc, #536]	; (20000e08 <dcd_rp2040_irq+0x35c>)
20000bf0:	0292      	lsls	r2, r2, #10
20000bf2:	651a      	str	r2, [r3, #80]	; 0x50
20000bf4:	2380      	movs	r3, #128	; 0x80
20000bf6:	015b      	lsls	r3, r3, #5
20000bf8:	421d      	tst	r5, r3
20000bfa:	d131      	bne.n	20000c60 <dcd_rp2040_irq+0x1b4>
20000bfc:	2380      	movs	r3, #128	; 0x80
20000bfe:	01db      	lsls	r3, r3, #7
20000c00:	421d      	tst	r5, r3
20000c02:	d11b      	bne.n	20000c3c <dcd_rp2040_irq+0x190>
20000c04:	2380      	movs	r3, #128	; 0x80
20000c06:	021b      	lsls	r3, r3, #8
20000c08:	421d      	tst	r5, r3
20000c0a:	d104      	bne.n	20000c16 <dcd_rp2040_irq+0x16a>
20000c0c:	42ac      	cmp	r4, r5
20000c0e:	d000      	beq.n	20000c12 <dcd_rp2040_irq+0x166>
20000c10:	e1af      	b.n	20000f72 <dcd_rp2040_irq+0x4c6>
20000c12:	b004      	add	sp, #16
20000c14:	bd70      	pop	{r4, r5, r6, pc}
20000c16:	ae01      	add	r6, sp, #4
20000c18:	220c      	movs	r2, #12
20000c1a:	2100      	movs	r1, #0
20000c1c:	0030      	movs	r0, r6
20000c1e:	431c      	orrs	r4, r3
20000c20:	f000 fbda 	bl	200013d8 <____wrap_memset_veneer>
20000c24:	23a0      	movs	r3, #160	; 0xa0
20000c26:	00db      	lsls	r3, r3, #3
20000c28:	8033      	strh	r3, [r6, #0]
20000c2a:	2101      	movs	r1, #1
20000c2c:	0030      	movs	r0, r6
20000c2e:	f000 fae9 	bl	20001204 <dcd_event_handler>
20000c32:	2280      	movs	r2, #128	; 0x80
20000c34:	4b74      	ldr	r3, [pc, #464]	; (20000e08 <dcd_rp2040_irq+0x35c>)
20000c36:	0112      	lsls	r2, r2, #4
20000c38:	651a      	str	r2, [r3, #80]	; 0x50
20000c3a:	e7e7      	b.n	20000c0c <dcd_rp2040_irq+0x160>
20000c3c:	ae01      	add	r6, sp, #4
20000c3e:	220c      	movs	r2, #12
20000c40:	2100      	movs	r1, #0
20000c42:	0030      	movs	r0, r6
20000c44:	431c      	orrs	r4, r3
20000c46:	f000 fbc7 	bl	200013d8 <____wrap_memset_veneer>
20000c4a:	2380      	movs	r3, #128	; 0x80
20000c4c:	00db      	lsls	r3, r3, #3
20000c4e:	8033      	strh	r3, [r6, #0]
20000c50:	2101      	movs	r1, #1
20000c52:	0030      	movs	r0, r6
20000c54:	f000 fad6 	bl	20001204 <dcd_event_handler>
20000c58:	2210      	movs	r2, #16
20000c5a:	4b6b      	ldr	r3, [pc, #428]	; (20000e08 <dcd_rp2040_irq+0x35c>)
20000c5c:	651a      	str	r2, [r3, #80]	; 0x50
20000c5e:	e7d1      	b.n	20000c04 <dcd_rp2040_irq+0x158>
20000c60:	2600      	movs	r6, #0
20000c62:	431c      	orrs	r4, r3
20000c64:	4b5b      	ldr	r3, [pc, #364]	; (20000dd4 <dcd_rp2040_irq+0x328>)
20000c66:	601e      	str	r6, [r3, #0]
20000c68:	f7ff fe68 	bl	2000093c <reset_non_control_endpoints>
20000c6c:	220c      	movs	r2, #12
20000c6e:	2100      	movs	r1, #0
20000c70:	a801      	add	r0, sp, #4
20000c72:	f000 fbb1 	bl	200013d8 <____wrap_memset_veneer>
20000c76:	2380      	movs	r3, #128	; 0x80
20000c78:	466a      	mov	r2, sp
20000c7a:	005b      	lsls	r3, r3, #1
20000c7c:	8093      	strh	r3, [r2, #4]
20000c7e:	2101      	movs	r1, #1
20000c80:	a801      	add	r0, sp, #4
20000c82:	7216      	strb	r6, [r2, #8]
20000c84:	f000 fabe 	bl	20001204 <dcd_event_handler>
20000c88:	2280      	movs	r2, #128	; 0x80
20000c8a:	4b5f      	ldr	r3, [pc, #380]	; (20000e08 <dcd_rp2040_irq+0x35c>)
20000c8c:	0312      	lsls	r2, r2, #12
20000c8e:	651a      	str	r2, [r3, #80]	; 0x50
20000c90:	e7b4      	b.n	20000bfc <dcd_rp2040_irq+0x150>
20000c92:	f7ff feb1 	bl	200009f8 <hw_handle_buff_status>
20000c96:	0034      	movs	r4, r6
20000c98:	e790      	b.n	20000bbc <dcd_rp2040_irq+0x110>
20000c9a:	4b5e      	ldr	r3, [pc, #376]	; (20000e14 <dcd_rp2040_irq+0x368>)
20000c9c:	5ce3      	ldrb	r3, [r4, r3]
20000c9e:	2b00      	cmp	r3, #0
20000ca0:	d100      	bne.n	20000ca4 <dcd_rp2040_irq+0x1f8>
20000ca2:	e764      	b.n	20000b6e <dcd_rp2040_irq+0xc2>
20000ca4:	23ef      	movs	r3, #239	; 0xef
20000ca6:	009b      	lsls	r3, r3, #2
20000ca8:	5ce2      	ldrb	r2, [r4, r3]
20000caa:	2a00      	cmp	r2, #0
20000cac:	d000      	beq.n	20000cb0 <dcd_rp2040_irq+0x204>
20000cae:	e154      	b.n	20000f5a <dcd_rp2040_irq+0x4ae>
20000cb0:	4b53      	ldr	r3, [pc, #332]	; (20000e00 <dcd_rp2040_irq+0x354>)
20000cb2:	5ce3      	ldrb	r3, [r4, r3]
20000cb4:	2b02      	cmp	r3, #2
20000cb6:	d000      	beq.n	20000cba <dcd_rp2040_irq+0x20e>
20000cb8:	e769      	b.n	20000b8e <dcd_rp2040_irq+0xe2>
20000cba:	4b57      	ldr	r3, [pc, #348]	; (20000e18 <dcd_rp2040_irq+0x36c>)
20000cbc:	5ce3      	ldrb	r3, [r4, r3]
20000cbe:	2b00      	cmp	r3, #0
20000cc0:	d000      	beq.n	20000cc4 <dcd_rp2040_irq+0x218>
20000cc2:	e13d      	b.n	20000f40 <dcd_rp2040_irq+0x494>
20000cc4:	e763      	b.n	20000b8e <dcd_rp2040_irq+0xe2>
20000cc6:	3338      	adds	r3, #56	; 0x38
20000cc8:	5ce6      	ldrb	r6, [r4, r3]
20000cca:	2e00      	cmp	r6, #0
20000ccc:	d100      	bne.n	20000cd0 <dcd_rp2040_irq+0x224>
20000cce:	e704      	b.n	20000ada <dcd_rp2040_irq+0x2e>
20000cd0:	3302      	adds	r3, #2
20000cd2:	5ce2      	ldrb	r2, [r4, r3]
20000cd4:	2a00      	cmp	r2, #0
20000cd6:	d100      	bne.n	20000cda <dcd_rp2040_irq+0x22e>
20000cd8:	e6ff      	b.n	20000ada <dcd_rp2040_irq+0x2e>
20000cda:	2200      	movs	r2, #0
20000cdc:	0020      	movs	r0, r4
20000cde:	54e2      	strb	r2, [r4, r3]
20000ce0:	3020      	adds	r0, #32
20000ce2:	f000 fa31 	bl	20001148 <hw_endpoint_start_next_buffer>
20000ce6:	e6f8      	b.n	20000ada <dcd_rp2040_irq+0x2e>
20000ce8:	3378      	adds	r3, #120	; 0x78
20000cea:	5ce3      	ldrb	r3, [r4, r3]
20000cec:	2b00      	cmp	r3, #0
20000cee:	d100      	bne.n	20000cf2 <dcd_rp2040_irq+0x246>
20000cf0:	e6f8      	b.n	20000ae4 <dcd_rp2040_irq+0x38>
20000cf2:	227c      	movs	r2, #124	; 0x7c
20000cf4:	5ca1      	ldrb	r1, [r4, r2]
20000cf6:	001e      	movs	r6, r3
20000cf8:	2900      	cmp	r1, #0
20000cfa:	d100      	bne.n	20000cfe <dcd_rp2040_irq+0x252>
20000cfc:	e6f2      	b.n	20000ae4 <dcd_rp2040_irq+0x38>
20000cfe:	2300      	movs	r3, #0
20000d00:	0020      	movs	r0, r4
20000d02:	54a3      	strb	r3, [r4, r2]
20000d04:	3060      	adds	r0, #96	; 0x60
20000d06:	f000 fa1f 	bl	20001148 <hw_endpoint_start_next_buffer>
20000d0a:	e6eb      	b.n	20000ae4 <dcd_rp2040_irq+0x38>
20000d0c:	33b8      	adds	r3, #184	; 0xb8
20000d0e:	5ce3      	ldrb	r3, [r4, r3]
20000d10:	2b00      	cmp	r3, #0
20000d12:	d100      	bne.n	20000d16 <dcd_rp2040_irq+0x26a>
20000d14:	e6eb      	b.n	20000aee <dcd_rp2040_irq+0x42>
20000d16:	22bc      	movs	r2, #188	; 0xbc
20000d18:	5ca1      	ldrb	r1, [r4, r2]
20000d1a:	001e      	movs	r6, r3
20000d1c:	2900      	cmp	r1, #0
20000d1e:	d100      	bne.n	20000d22 <dcd_rp2040_irq+0x276>
20000d20:	e6e5      	b.n	20000aee <dcd_rp2040_irq+0x42>
20000d22:	2300      	movs	r3, #0
20000d24:	0020      	movs	r0, r4
20000d26:	54a3      	strb	r3, [r4, r2]
20000d28:	30a0      	adds	r0, #160	; 0xa0
20000d2a:	f000 fa0d 	bl	20001148 <hw_endpoint_start_next_buffer>
20000d2e:	e6de      	b.n	20000aee <dcd_rp2040_irq+0x42>
20000d30:	33f8      	adds	r3, #248	; 0xf8
20000d32:	5ce3      	ldrb	r3, [r4, r3]
20000d34:	2b00      	cmp	r3, #0
20000d36:	d100      	bne.n	20000d3a <dcd_rp2040_irq+0x28e>
20000d38:	e6de      	b.n	20000af8 <dcd_rp2040_irq+0x4c>
20000d3a:	22fc      	movs	r2, #252	; 0xfc
20000d3c:	5ca1      	ldrb	r1, [r4, r2]
20000d3e:	001e      	movs	r6, r3
20000d40:	2900      	cmp	r1, #0
20000d42:	d100      	bne.n	20000d46 <dcd_rp2040_irq+0x29a>
20000d44:	e6d8      	b.n	20000af8 <dcd_rp2040_irq+0x4c>
20000d46:	2300      	movs	r3, #0
20000d48:	0020      	movs	r0, r4
20000d4a:	54a3      	strb	r3, [r4, r2]
20000d4c:	30e0      	adds	r0, #224	; 0xe0
20000d4e:	f000 f9fb 	bl	20001148 <hw_endpoint_start_next_buffer>
20000d52:	e6d1      	b.n	20000af8 <dcd_rp2040_irq+0x4c>
20000d54:	3339      	adds	r3, #57	; 0x39
20000d56:	33ff      	adds	r3, #255	; 0xff
20000d58:	5ce3      	ldrb	r3, [r4, r3]
20000d5a:	2b00      	cmp	r3, #0
20000d5c:	d100      	bne.n	20000d60 <dcd_rp2040_irq+0x2b4>
20000d5e:	e6d1      	b.n	20000b04 <dcd_rp2040_irq+0x58>
20000d60:	229e      	movs	r2, #158	; 0x9e
20000d62:	0052      	lsls	r2, r2, #1
20000d64:	5ca1      	ldrb	r1, [r4, r2]
20000d66:	001e      	movs	r6, r3
20000d68:	2900      	cmp	r1, #0
20000d6a:	d100      	bne.n	20000d6e <dcd_rp2040_irq+0x2c2>
20000d6c:	e6ca      	b.n	20000b04 <dcd_rp2040_irq+0x58>
20000d6e:	0020      	movs	r0, r4
20000d70:	2300      	movs	r3, #0
20000d72:	3021      	adds	r0, #33	; 0x21
20000d74:	54a3      	strb	r3, [r4, r2]
20000d76:	30ff      	adds	r0, #255	; 0xff
20000d78:	f000 f9e6 	bl	20001148 <hw_endpoint_start_next_buffer>
20000d7c:	e6c2      	b.n	20000b04 <dcd_rp2040_irq+0x58>
20000d7e:	3379      	adds	r3, #121	; 0x79
20000d80:	33ff      	adds	r3, #255	; 0xff
20000d82:	5ce3      	ldrb	r3, [r4, r3]
20000d84:	2b00      	cmp	r3, #0
20000d86:	d100      	bne.n	20000d8a <dcd_rp2040_irq+0x2de>
20000d88:	e6c2      	b.n	20000b10 <dcd_rp2040_irq+0x64>
20000d8a:	22be      	movs	r2, #190	; 0xbe
20000d8c:	0052      	lsls	r2, r2, #1
20000d8e:	5ca1      	ldrb	r1, [r4, r2]
20000d90:	001e      	movs	r6, r3
20000d92:	2900      	cmp	r1, #0
20000d94:	d100      	bne.n	20000d98 <dcd_rp2040_irq+0x2ec>
20000d96:	e6bb      	b.n	20000b10 <dcd_rp2040_irq+0x64>
20000d98:	0020      	movs	r0, r4
20000d9a:	2300      	movs	r3, #0
20000d9c:	3061      	adds	r0, #97	; 0x61
20000d9e:	54a3      	strb	r3, [r4, r2]
20000da0:	30ff      	adds	r0, #255	; 0xff
20000da2:	f000 f9d1 	bl	20001148 <hw_endpoint_start_next_buffer>
20000da6:	e6b3      	b.n	20000b10 <dcd_rp2040_irq+0x64>
20000da8:	33b9      	adds	r3, #185	; 0xb9
20000daa:	33ff      	adds	r3, #255	; 0xff
20000dac:	5ce3      	ldrb	r3, [r4, r3]
20000dae:	2b00      	cmp	r3, #0
20000db0:	d100      	bne.n	20000db4 <dcd_rp2040_irq+0x308>
20000db2:	e6b3      	b.n	20000b1c <dcd_rp2040_irq+0x70>
20000db4:	22de      	movs	r2, #222	; 0xde
20000db6:	0052      	lsls	r2, r2, #1
20000db8:	5ca1      	ldrb	r1, [r4, r2]
20000dba:	001e      	movs	r6, r3
20000dbc:	2900      	cmp	r1, #0
20000dbe:	d100      	bne.n	20000dc2 <dcd_rp2040_irq+0x316>
20000dc0:	e6ac      	b.n	20000b1c <dcd_rp2040_irq+0x70>
20000dc2:	0020      	movs	r0, r4
20000dc4:	2300      	movs	r3, #0
20000dc6:	30a1      	adds	r0, #161	; 0xa1
20000dc8:	54a3      	strb	r3, [r4, r2]
20000dca:	30ff      	adds	r0, #255	; 0xff
20000dcc:	f000 f9bc 	bl	20001148 <hw_endpoint_start_next_buffer>
20000dd0:	e6a4      	b.n	20000b1c <dcd_rp2040_irq+0x70>
20000dd2:	46c0      	nop			; (mov r8, r8)
20000dd4:	50110000 	.word	0x50110000
20000dd8:	40054000 	.word	0x40054000
20000ddc:	20001aa8 	.word	0x20001aa8
20000de0:	20001a9c 	.word	0x20001a9c
20000de4:	0000023b 	.word	0x0000023b
20000de8:	0000027b 	.word	0x0000027b
20000dec:	000002bb 	.word	0x000002bb
20000df0:	000002fb 	.word	0x000002fb
20000df4:	0000033b 	.word	0x0000033b
20000df8:	0000037b 	.word	0x0000037b
20000dfc:	000003bb 	.word	0x000003bb
20000e00:	000003fb 	.word	0x000003fb
20000e04:	20001f17 	.word	0x20001f17
20000e08:	50113000 	.word	0x50113000
20000e0c:	00020010 	.word	0x00020010
20000e10:	50100000 	.word	0x50100000
20000e14:	000003ba 	.word	0x000003ba
20000e18:	000003fa 	.word	0x000003fa
20000e1c:	33f9      	adds	r3, #249	; 0xf9
20000e1e:	33ff      	adds	r3, #255	; 0xff
20000e20:	5ce3      	ldrb	r3, [r4, r3]
20000e22:	2b00      	cmp	r3, #0
20000e24:	d100      	bne.n	20000e28 <dcd_rp2040_irq+0x37c>
20000e26:	e67f      	b.n	20000b28 <dcd_rp2040_irq+0x7c>
20000e28:	22fe      	movs	r2, #254	; 0xfe
20000e2a:	0052      	lsls	r2, r2, #1
20000e2c:	5ca1      	ldrb	r1, [r4, r2]
20000e2e:	001e      	movs	r6, r3
20000e30:	2900      	cmp	r1, #0
20000e32:	d100      	bne.n	20000e36 <dcd_rp2040_irq+0x38a>
20000e34:	e678      	b.n	20000b28 <dcd_rp2040_irq+0x7c>
20000e36:	0020      	movs	r0, r4
20000e38:	2300      	movs	r3, #0
20000e3a:	30e1      	adds	r0, #225	; 0xe1
20000e3c:	54a3      	strb	r3, [r4, r2]
20000e3e:	30ff      	adds	r0, #255	; 0xff
20000e40:	f000 f982 	bl	20001148 <hw_endpoint_start_next_buffer>
20000e44:	e670      	b.n	20000b28 <dcd_rp2040_irq+0x7c>
20000e46:	4b4d      	ldr	r3, [pc, #308]	; (20000f7c <dcd_rp2040_irq+0x4d0>)
20000e48:	5ce3      	ldrb	r3, [r4, r3]
20000e4a:	2b00      	cmp	r3, #0
20000e4c:	d100      	bne.n	20000e50 <dcd_rp2040_irq+0x3a4>
20000e4e:	e670      	b.n	20000b32 <dcd_rp2040_irq+0x86>
20000e50:	228f      	movs	r2, #143	; 0x8f
20000e52:	0092      	lsls	r2, r2, #2
20000e54:	5ca1      	ldrb	r1, [r4, r2]
20000e56:	001e      	movs	r6, r3
20000e58:	2900      	cmp	r1, #0
20000e5a:	d100      	bne.n	20000e5e <dcd_rp2040_irq+0x3b2>
20000e5c:	e669      	b.n	20000b32 <dcd_rp2040_irq+0x86>
20000e5e:	2300      	movs	r3, #0
20000e60:	54a3      	strb	r3, [r4, r2]
20000e62:	2388      	movs	r3, #136	; 0x88
20000e64:	009b      	lsls	r3, r3, #2
20000e66:	18e0      	adds	r0, r4, r3
20000e68:	f000 f96e 	bl	20001148 <hw_endpoint_start_next_buffer>
20000e6c:	e661      	b.n	20000b32 <dcd_rp2040_irq+0x86>
20000e6e:	4b44      	ldr	r3, [pc, #272]	; (20000f80 <dcd_rp2040_irq+0x4d4>)
20000e70:	5ce3      	ldrb	r3, [r4, r3]
20000e72:	2b00      	cmp	r3, #0
20000e74:	d100      	bne.n	20000e78 <dcd_rp2040_irq+0x3cc>
20000e76:	e661      	b.n	20000b3c <dcd_rp2040_irq+0x90>
20000e78:	229f      	movs	r2, #159	; 0x9f
20000e7a:	0092      	lsls	r2, r2, #2
20000e7c:	5ca1      	ldrb	r1, [r4, r2]
20000e7e:	001e      	movs	r6, r3
20000e80:	2900      	cmp	r1, #0
20000e82:	d100      	bne.n	20000e86 <dcd_rp2040_irq+0x3da>
20000e84:	e65a      	b.n	20000b3c <dcd_rp2040_irq+0x90>
20000e86:	2300      	movs	r3, #0
20000e88:	54a3      	strb	r3, [r4, r2]
20000e8a:	2398      	movs	r3, #152	; 0x98
20000e8c:	009b      	lsls	r3, r3, #2
20000e8e:	18e0      	adds	r0, r4, r3
20000e90:	f000 f95a 	bl	20001148 <hw_endpoint_start_next_buffer>
20000e94:	e652      	b.n	20000b3c <dcd_rp2040_irq+0x90>
20000e96:	4b3b      	ldr	r3, [pc, #236]	; (20000f84 <dcd_rp2040_irq+0x4d8>)
20000e98:	5ce3      	ldrb	r3, [r4, r3]
20000e9a:	2b00      	cmp	r3, #0
20000e9c:	d100      	bne.n	20000ea0 <dcd_rp2040_irq+0x3f4>
20000e9e:	e652      	b.n	20000b46 <dcd_rp2040_irq+0x9a>
20000ea0:	22af      	movs	r2, #175	; 0xaf
20000ea2:	0092      	lsls	r2, r2, #2
20000ea4:	5ca1      	ldrb	r1, [r4, r2]
20000ea6:	001e      	movs	r6, r3
20000ea8:	2900      	cmp	r1, #0
20000eaa:	d100      	bne.n	20000eae <dcd_rp2040_irq+0x402>
20000eac:	e64b      	b.n	20000b46 <dcd_rp2040_irq+0x9a>
20000eae:	2300      	movs	r3, #0
20000eb0:	54a3      	strb	r3, [r4, r2]
20000eb2:	23a8      	movs	r3, #168	; 0xa8
20000eb4:	009b      	lsls	r3, r3, #2
20000eb6:	18e0      	adds	r0, r4, r3
20000eb8:	f000 f946 	bl	20001148 <hw_endpoint_start_next_buffer>
20000ebc:	e643      	b.n	20000b46 <dcd_rp2040_irq+0x9a>
20000ebe:	4b32      	ldr	r3, [pc, #200]	; (20000f88 <dcd_rp2040_irq+0x4dc>)
20000ec0:	5ce3      	ldrb	r3, [r4, r3]
20000ec2:	2b00      	cmp	r3, #0
20000ec4:	d100      	bne.n	20000ec8 <dcd_rp2040_irq+0x41c>
20000ec6:	e64d      	b.n	20000b64 <dcd_rp2040_irq+0xb8>
20000ec8:	22df      	movs	r2, #223	; 0xdf
20000eca:	0092      	lsls	r2, r2, #2
20000ecc:	5ca1      	ldrb	r1, [r4, r2]
20000ece:	001e      	movs	r6, r3
20000ed0:	2900      	cmp	r1, #0
20000ed2:	d100      	bne.n	20000ed6 <dcd_rp2040_irq+0x42a>
20000ed4:	e646      	b.n	20000b64 <dcd_rp2040_irq+0xb8>
20000ed6:	2300      	movs	r3, #0
20000ed8:	54a3      	strb	r3, [r4, r2]
20000eda:	23d8      	movs	r3, #216	; 0xd8
20000edc:	009b      	lsls	r3, r3, #2
20000ede:	18e0      	adds	r0, r4, r3
20000ee0:	f000 f932 	bl	20001148 <hw_endpoint_start_next_buffer>
20000ee4:	e63e      	b.n	20000b64 <dcd_rp2040_irq+0xb8>
20000ee6:	4b29      	ldr	r3, [pc, #164]	; (20000f8c <dcd_rp2040_irq+0x4e0>)
20000ee8:	5ce3      	ldrb	r3, [r4, r3]
20000eea:	2b00      	cmp	r3, #0
20000eec:	d100      	bne.n	20000ef0 <dcd_rp2040_irq+0x444>
20000eee:	e62f      	b.n	20000b50 <dcd_rp2040_irq+0xa4>
20000ef0:	22bf      	movs	r2, #191	; 0xbf
20000ef2:	0092      	lsls	r2, r2, #2
20000ef4:	5ca1      	ldrb	r1, [r4, r2]
20000ef6:	001e      	movs	r6, r3
20000ef8:	2900      	cmp	r1, #0
20000efa:	d100      	bne.n	20000efe <dcd_rp2040_irq+0x452>
20000efc:	e628      	b.n	20000b50 <dcd_rp2040_irq+0xa4>
20000efe:	2300      	movs	r3, #0
20000f00:	54a3      	strb	r3, [r4, r2]
20000f02:	23b8      	movs	r3, #184	; 0xb8
20000f04:	009b      	lsls	r3, r3, #2
20000f06:	18e0      	adds	r0, r4, r3
20000f08:	f000 f91e 	bl	20001148 <hw_endpoint_start_next_buffer>
20000f0c:	e620      	b.n	20000b50 <dcd_rp2040_irq+0xa4>
20000f0e:	4b20      	ldr	r3, [pc, #128]	; (20000f90 <dcd_rp2040_irq+0x4e4>)
20000f10:	5ce3      	ldrb	r3, [r4, r3]
20000f12:	2b00      	cmp	r3, #0
20000f14:	d100      	bne.n	20000f18 <dcd_rp2040_irq+0x46c>
20000f16:	e620      	b.n	20000b5a <dcd_rp2040_irq+0xae>
20000f18:	22cf      	movs	r2, #207	; 0xcf
20000f1a:	0092      	lsls	r2, r2, #2
20000f1c:	5ca1      	ldrb	r1, [r4, r2]
20000f1e:	001e      	movs	r6, r3
20000f20:	2900      	cmp	r1, #0
20000f22:	d100      	bne.n	20000f26 <dcd_rp2040_irq+0x47a>
20000f24:	e619      	b.n	20000b5a <dcd_rp2040_irq+0xae>
20000f26:	2300      	movs	r3, #0
20000f28:	54a3      	strb	r3, [r4, r2]
20000f2a:	23c8      	movs	r3, #200	; 0xc8
20000f2c:	009b      	lsls	r3, r3, #2
20000f2e:	18e0      	adds	r0, r4, r3
20000f30:	f000 f90a 	bl	20001148 <hw_endpoint_start_next_buffer>
20000f34:	e611      	b.n	20000b5a <dcd_rp2040_irq+0xae>
20000f36:	4b17      	ldr	r3, [pc, #92]	; (20000f94 <dcd_rp2040_irq+0x4e8>)
20000f38:	5ce3      	ldrb	r3, [r4, r3]
20000f3a:	2b00      	cmp	r3, #0
20000f3c:	d100      	bne.n	20000f40 <dcd_rp2040_irq+0x494>
20000f3e:	e61b      	b.n	20000b78 <dcd_rp2040_irq+0xcc>
20000f40:	23ff      	movs	r3, #255	; 0xff
20000f42:	009b      	lsls	r3, r3, #2
20000f44:	5ce2      	ldrb	r2, [r4, r3]
20000f46:	2a00      	cmp	r2, #0
20000f48:	d100      	bne.n	20000f4c <dcd_rp2040_irq+0x4a0>
20000f4a:	e620      	b.n	20000b8e <dcd_rp2040_irq+0xe2>
20000f4c:	2200      	movs	r2, #0
20000f4e:	54e2      	strb	r2, [r4, r3]
20000f50:	3b1c      	subs	r3, #28
20000f52:	18e0      	adds	r0, r4, r3
20000f54:	f000 f8f8 	bl	20001148 <hw_endpoint_start_next_buffer>
20000f58:	e619      	b.n	20000b8e <dcd_rp2040_irq+0xe2>
20000f5a:	2200      	movs	r2, #0
20000f5c:	54e2      	strb	r2, [r4, r3]
20000f5e:	3b1c      	subs	r3, #28
20000f60:	18e0      	adds	r0, r4, r3
20000f62:	f000 f8f1 	bl	20001148 <hw_endpoint_start_next_buffer>
20000f66:	4b0c      	ldr	r3, [pc, #48]	; (20000f98 <dcd_rp2040_irq+0x4ec>)
20000f68:	5ce3      	ldrb	r3, [r4, r3]
20000f6a:	2b02      	cmp	r3, #2
20000f6c:	d000      	beq.n	20000f70 <dcd_rp2040_irq+0x4c4>
20000f6e:	e60e      	b.n	20000b8e <dcd_rp2040_irq+0xe2>
20000f70:	e6a3      	b.n	20000cba <dcd_rp2040_irq+0x20e>
20000f72:	0021      	movs	r1, r4
20000f74:	4809      	ldr	r0, [pc, #36]	; (20000f9c <dcd_rp2040_irq+0x4f0>)
20000f76:	4069      	eors	r1, r5
20000f78:	f000 fa0e 	bl	20001398 <__panic_veneer>
20000f7c:	0000023a 	.word	0x0000023a
20000f80:	0000027a 	.word	0x0000027a
20000f84:	000002ba 	.word	0x000002ba
20000f88:	0000037a 	.word	0x0000037a
20000f8c:	000002fa 	.word	0x000002fa
20000f90:	0000033a 	.word	0x0000033a
20000f94:	000003fa 	.word	0x000003fa
20000f98:	000003fb 	.word	0x000003fb
20000f9c:	100048bc 	.word	0x100048bc

20000fa0 <prepare_ep_buffer>:
20000fa0:	b5f8      	push	{r3, r4, r5, r6, r7, lr}
20000fa2:	8b02      	ldrh	r2, [r0, #24]
20000fa4:	8a83      	ldrh	r3, [r0, #20]
20000fa6:	0004      	movs	r4, r0
20000fa8:	000f      	movs	r7, r1
20000faa:	1c16      	adds	r6, r2, #0
20000fac:	429a      	cmp	r2, r3
20000fae:	d900      	bls.n	20000fb2 <prepare_ep_buffer+0x12>
20000fb0:	1c1e      	adds	r6, r3, #0
20000fb2:	2580      	movs	r5, #128	; 0x80
20000fb4:	b2b6      	uxth	r6, r6
20000fb6:	1b9b      	subs	r3, r3, r6
20000fb8:	78e2      	ldrb	r2, [r4, #3]
20000fba:	b29b      	uxth	r3, r3
20000fbc:	00ed      	lsls	r5, r5, #3
20000fbe:	82a3      	strh	r3, [r4, #20]
20000fc0:	4335      	orrs	r5, r6
20000fc2:	2a00      	cmp	r2, #0
20000fc4:	d002      	beq.n	20000fcc <prepare_ep_buffer+0x2c>
20000fc6:	2590      	movs	r5, #144	; 0x90
20000fc8:	01ad      	lsls	r5, r5, #6
20000fca:	4335      	orrs	r5, r6
20000fcc:	2101      	movs	r1, #1
20000fce:	404a      	eors	r2, r1
20000fd0:	70e2      	strb	r2, [r4, #3]
20000fd2:	7862      	ldrb	r2, [r4, #1]
20000fd4:	2a00      	cmp	r2, #0
20000fd6:	d009      	beq.n	20000fec <prepare_ep_buffer+0x4c>
20000fd8:	2b00      	cmp	r3, #0
20000fda:	d102      	bne.n	20000fe2 <prepare_ep_buffer+0x42>
20000fdc:	2380      	movs	r3, #128	; 0x80
20000fde:	01db      	lsls	r3, r3, #7
20000fe0:	431d      	orrs	r5, r3
20000fe2:	2f00      	cmp	r7, #0
20000fe4:	d000      	beq.n	20000fe8 <prepare_ep_buffer+0x48>
20000fe6:	042d      	lsls	r5, r5, #16
20000fe8:	0028      	movs	r0, r5
20000fea:	bdf8      	pop	{r3, r4, r5, r6, r7, pc}
20000fec:	68e3      	ldr	r3, [r4, #12]
20000fee:	01b8      	lsls	r0, r7, #6
20000ff0:	469c      	mov	ip, r3
20000ff2:	0032      	movs	r2, r6
20000ff4:	4460      	add	r0, ip
20000ff6:	6921      	ldr	r1, [r4, #16]
20000ff8:	f000 fa06 	bl	20001408 <____wrap_memcpy_veneer>
20000ffc:	6923      	ldr	r3, [r4, #16]
20000ffe:	469c      	mov	ip, r3
20001000:	2380      	movs	r3, #128	; 0x80
20001002:	4466      	add	r6, ip
20001004:	021b      	lsls	r3, r3, #8
20001006:	431d      	orrs	r5, r3
20001008:	6126      	str	r6, [r4, #16]
2000100a:	8aa3      	ldrh	r3, [r4, #20]
2000100c:	e7e4      	b.n	20000fd8 <prepare_ep_buffer+0x38>
2000100e:	46c0      	nop			; (mov r8, r8)

20001010 <sync_ep_buffer>:
20001010:	6883      	ldr	r3, [r0, #8]
20001012:	b570      	push	{r4, r5, r6, lr}
20001014:	0004      	movs	r4, r0
20001016:	681d      	ldr	r5, [r3, #0]
20001018:	2900      	cmp	r1, #0
2000101a:	d000      	beq.n	2000101e <sync_ep_buffer+0xe>
2000101c:	0c2d      	lsrs	r5, r5, #16
2000101e:	7863      	ldrb	r3, [r4, #1]
20001020:	05ad      	lsls	r5, r5, #22
20001022:	0dad      	lsrs	r5, r5, #22
20001024:	2b00      	cmp	r3, #0
20001026:	d109      	bne.n	2000103c <sync_ep_buffer+0x2c>
20001028:	8ae3      	ldrh	r3, [r4, #22]
2000102a:	18eb      	adds	r3, r5, r3
2000102c:	82e3      	strh	r3, [r4, #22]
2000102e:	8b23      	ldrh	r3, [r4, #24]
20001030:	42ab      	cmp	r3, r5
20001032:	d901      	bls.n	20001038 <sync_ep_buffer+0x28>
20001034:	2300      	movs	r3, #0
20001036:	82a3      	strh	r3, [r4, #20]
20001038:	0028      	movs	r0, r5
2000103a:	bd70      	pop	{r4, r5, r6, pc}
2000103c:	68e3      	ldr	r3, [r4, #12]
2000103e:	0189      	lsls	r1, r1, #6
20001040:	469c      	mov	ip, r3
20001042:	002a      	movs	r2, r5
20001044:	6920      	ldr	r0, [r4, #16]
20001046:	4461      	add	r1, ip
20001048:	f000 f9de 	bl	20001408 <____wrap_memcpy_veneer>
2000104c:	8ae3      	ldrh	r3, [r4, #22]
2000104e:	18eb      	adds	r3, r5, r3
20001050:	82e3      	strh	r3, [r4, #22]
20001052:	6923      	ldr	r3, [r4, #16]
20001054:	195b      	adds	r3, r3, r5
20001056:	6123      	str	r3, [r4, #16]
20001058:	e7e9      	b.n	2000102e <sync_ep_buffer+0x1e>
2000105a:	46c0      	nop			; (mov r8, r8)

2000105c <_hw_endpoint_xfer_sync>:
2000105c:	b510      	push	{r4, lr}
2000105e:	0004      	movs	r4, r0
20001060:	6883      	ldr	r3, [r0, #8]
20001062:	2100      	movs	r1, #0
20001064:	681b      	ldr	r3, [r3, #0]
20001066:	f7ff ffd3 	bl	20001010 <sync_ep_buffer>
2000106a:	6863      	ldr	r3, [r4, #4]
2000106c:	681b      	ldr	r3, [r3, #0]
2000106e:	005b      	lsls	r3, r3, #1
20001070:	d502      	bpl.n	20001078 <_hw_endpoint_xfer_sync+0x1c>
20001072:	8b23      	ldrh	r3, [r4, #24]
20001074:	4283      	cmp	r3, r0
20001076:	d000      	beq.n	2000107a <_hw_endpoint_xfer_sync+0x1e>
20001078:	bd10      	pop	{r4, pc}
2000107a:	2101      	movs	r1, #1
2000107c:	0020      	movs	r0, r4
2000107e:	f7ff ffc7 	bl	20001010 <sync_ep_buffer>
20001082:	e7f9      	b.n	20001078 <_hw_endpoint_xfer_sync+0x1c>

20001084 <e15_is_bulkin_ep.isra.0>:
20001084:	4a08      	ldr	r2, [pc, #32]	; (200010a8 <e15_is_bulkin_ep.isra.0+0x24>)
20001086:	0003      	movs	r3, r0
20001088:	6c12      	ldr	r2, [r2, #64]	; 0x40
2000108a:	2000      	movs	r0, #0
2000108c:	0792      	lsls	r2, r2, #30
2000108e:	d403      	bmi.n	20001098 <e15_is_bulkin_ep.isra.0+0x14>
20001090:	781b      	ldrb	r3, [r3, #0]
20001092:	09db      	lsrs	r3, r3, #7
20001094:	2b01      	cmp	r3, #1
20001096:	d000      	beq.n	2000109a <e15_is_bulkin_ep.isra.0+0x16>
20001098:	4770      	bx	lr
2000109a:	7808      	ldrb	r0, [r1, #0]
2000109c:	3802      	subs	r0, #2
2000109e:	4243      	negs	r3, r0
200010a0:	4158      	adcs	r0, r3
200010a2:	b2c0      	uxtb	r0, r0
200010a4:	e7f8      	b.n	20001098 <e15_is_bulkin_ep.isra.0+0x14>
200010a6:	46c0      	nop			; (mov r8, r8)
200010a8:	50110000 	.word	0x50110000

200010ac <e15_is_critical_frame_period>:
200010ac:	0001      	movs	r1, r0
200010ae:	b510      	push	{r4, lr}
200010b0:	311b      	adds	r1, #27
200010b2:	3002      	adds	r0, #2
200010b4:	f7ff ffe6 	bl	20001084 <e15_is_bulkin_ep.isra.0>
200010b8:	2800      	cmp	r0, #0
200010ba:	d00c      	beq.n	200010d6 <e15_is_critical_frame_period+0x2a>
200010bc:	4906      	ldr	r1, [pc, #24]	; (200010d8 <e15_is_critical_frame_period+0x2c>)
200010be:	4b07      	ldr	r3, [pc, #28]	; (200010dc <e15_is_critical_frame_period+0x30>)
200010c0:	468c      	mov	ip, r1
200010c2:	4a07      	ldr	r2, [pc, #28]	; (200010e0 <e15_is_critical_frame_period+0x34>)
200010c4:	6a9b      	ldr	r3, [r3, #40]	; 0x28
200010c6:	6812      	ldr	r2, [r2, #0]
200010c8:	4463      	add	r3, ip
200010ca:	1a9b      	subs	r3, r3, r2
200010cc:	2000      	movs	r0, #0
200010ce:	22c6      	movs	r2, #198	; 0xc6
200010d0:	429a      	cmp	r2, r3
200010d2:	4140      	adcs	r0, r0
200010d4:	b2c0      	uxtb	r0, r0
200010d6:	bd10      	pop	{r4, pc}
200010d8:	fffffce0 	.word	0xfffffce0
200010dc:	40054000 	.word	0x40054000
200010e0:	20001a9c 	.word	0x20001a9c

200010e4 <hw_endpoint_reset_transfer>:
200010e4:	2300      	movs	r3, #0
200010e6:	7683      	strb	r3, [r0, #26]
200010e8:	6143      	str	r3, [r0, #20]
200010ea:	6103      	str	r3, [r0, #16]
200010ec:	4770      	bx	lr
200010ee:	46c0      	nop			; (mov r8, r8)

200010f0 <_hw_endpoint_buffer_control_update32>:
200010f0:	b510      	push	{r4, lr}
200010f2:	6883      	ldr	r3, [r0, #8]
200010f4:	2900      	cmp	r1, #0
200010f6:	d001      	beq.n	200010fc <_hw_endpoint_buffer_control_update32+0xc>
200010f8:	681c      	ldr	r4, [r3, #0]
200010fa:	4021      	ands	r1, r4
200010fc:	2a00      	cmp	r2, #0
200010fe:	d011      	beq.n	20001124 <_hw_endpoint_buffer_control_update32+0x34>
20001100:	2480      	movs	r4, #128	; 0x80
20001102:	00e4      	lsls	r4, r4, #3
20001104:	4311      	orrs	r1, r2
20001106:	4222      	tst	r2, r4
20001108:	d00c      	beq.n	20001124 <_hw_endpoint_buffer_control_update32+0x34>
2000110a:	681a      	ldr	r2, [r3, #0]
2000110c:	4222      	tst	r2, r4
2000110e:	d10b      	bne.n	20001128 <_hw_endpoint_buffer_control_update32+0x38>
20001110:	4a0a      	ldr	r2, [pc, #40]	; (2000113c <_hw_endpoint_buffer_control_update32+0x4c>)
20001112:	400a      	ands	r2, r1
20001114:	601a      	str	r2, [r3, #0]
20001116:	e7ff      	b.n	20001118 <_hw_endpoint_buffer_control_update32+0x28>
20001118:	e7ff      	b.n	2000111a <_hw_endpoint_buffer_control_update32+0x2a>
2000111a:	e7ff      	b.n	2000111c <_hw_endpoint_buffer_control_update32+0x2c>
2000111c:	e7ff      	b.n	2000111e <_hw_endpoint_buffer_control_update32+0x2e>
2000111e:	e7ff      	b.n	20001120 <_hw_endpoint_buffer_control_update32+0x30>
20001120:	e7ff      	b.n	20001122 <_hw_endpoint_buffer_control_update32+0x32>
20001122:	6883      	ldr	r3, [r0, #8]
20001124:	6019      	str	r1, [r3, #0]
20001126:	bd10      	pop	{r4, pc}
20001128:	227f      	movs	r2, #127	; 0x7f
2000112a:	7881      	ldrb	r1, [r0, #2]
2000112c:	4804      	ldr	r0, [pc, #16]	; (20001140 <_hw_endpoint_buffer_control_update32+0x50>)
2000112e:	09cb      	lsrs	r3, r1, #7
20001130:	4011      	ands	r1, r2
20001132:	4a04      	ldr	r2, [pc, #16]	; (20001144 <_hw_endpoint_buffer_control_update32+0x54>)
20001134:	009b      	lsls	r3, r3, #2
20001136:	589a      	ldr	r2, [r3, r2]
20001138:	f000 f92e 	bl	20001398 <__panic_veneer>
2000113c:	fffffbff 	.word	0xfffffbff
20001140:	100048d0 	.word	0x100048d0
20001144:	20001528 	.word	0x20001528

20001148 <hw_endpoint_start_next_buffer>:
20001148:	6843      	ldr	r3, [r0, #4]
2000114a:	b570      	push	{r4, r5, r6, lr}
2000114c:	2100      	movs	r1, #0
2000114e:	2580      	movs	r5, #128	; 0x80
20001150:	681e      	ldr	r6, [r3, #0]
20001152:	0004      	movs	r4, r0
20001154:	f7ff ff24 	bl	20000fa0 <prepare_ep_buffer>
20001158:	4b13      	ldr	r3, [pc, #76]	; (200011a8 <hw_endpoint_start_next_buffer+0x60>)
2000115a:	016d      	lsls	r5, r5, #5
2000115c:	6c1b      	ldr	r3, [r3, #64]	; 0x40
2000115e:	4305      	orrs	r5, r0
20001160:	079b      	lsls	r3, r3, #30
20001162:	d50f      	bpl.n	20001184 <hw_endpoint_start_next_buffer+0x3c>
20001164:	78a3      	ldrb	r3, [r4, #2]
20001166:	065b      	lsls	r3, r3, #25
20001168:	d00f      	beq.n	2000118a <hw_endpoint_start_next_buffer+0x42>
2000116a:	4b10      	ldr	r3, [pc, #64]	; (200011ac <hw_endpoint_start_next_buffer+0x64>)
2000116c:	401e      	ands	r6, r3
2000116e:	2380      	movs	r3, #128	; 0x80
20001170:	059b      	lsls	r3, r3, #22
20001172:	4333      	orrs	r3, r6
20001174:	6862      	ldr	r2, [r4, #4]
20001176:	2100      	movs	r1, #0
20001178:	6013      	str	r3, [r2, #0]
2000117a:	0020      	movs	r0, r4
2000117c:	002a      	movs	r2, r5
2000117e:	f7ff ffb7 	bl	200010f0 <_hw_endpoint_buffer_control_update32>
20001182:	bd70      	pop	{r4, r5, r6, pc}
20001184:	78a3      	ldrb	r3, [r4, #2]
20001186:	09db      	lsrs	r3, r3, #7
20001188:	d0ef      	beq.n	2000116a <hw_endpoint_start_next_buffer+0x22>
2000118a:	8aa3      	ldrh	r3, [r4, #20]
2000118c:	2b00      	cmp	r3, #0
2000118e:	d0ec      	beq.n	2000116a <hw_endpoint_start_next_buffer+0x22>
20001190:	2101      	movs	r1, #1
20001192:	0020      	movs	r0, r4
20001194:	f7ff ff04 	bl	20000fa0 <prepare_ep_buffer>
20001198:	23a0      	movs	r3, #160	; 0xa0
2000119a:	4a05      	ldr	r2, [pc, #20]	; (200011b0 <hw_endpoint_start_next_buffer+0x68>)
2000119c:	05db      	lsls	r3, r3, #23
2000119e:	4032      	ands	r2, r6
200011a0:	4305      	orrs	r5, r0
200011a2:	4313      	orrs	r3, r2
200011a4:	e7e6      	b.n	20001174 <hw_endpoint_start_next_buffer+0x2c>
200011a6:	46c0      	nop			; (mov r8, r8)
200011a8:	50110000 	.word	0x50110000
200011ac:	afffffff 	.word	0xafffffff
200011b0:	dfffffff 	.word	0xdfffffff

200011b4 <hw_endpoint_xfer_continue>:
200011b4:	b570      	push	{r4, r5, r6, lr}
200011b6:	7e85      	ldrb	r5, [r0, #26]
200011b8:	0004      	movs	r4, r0
200011ba:	2d00      	cmp	r5, #0
200011bc:	d013      	beq.n	200011e6 <hw_endpoint_xfer_continue+0x32>
200011be:	f7ff ff4d 	bl	2000105c <_hw_endpoint_xfer_sync>
200011c2:	8aa3      	ldrh	r3, [r4, #20]
200011c4:	2b00      	cmp	r3, #0
200011c6:	d101      	bne.n	200011cc <hw_endpoint_xfer_continue+0x18>
200011c8:	0028      	movs	r0, r5
200011ca:	bd70      	pop	{r4, r5, r6, pc}
200011cc:	0020      	movs	r0, r4
200011ce:	f7ff ff6d 	bl	200010ac <e15_is_critical_frame_period>
200011d2:	1e05      	subs	r5, r0, #0
200011d4:	d003      	beq.n	200011de <hw_endpoint_xfer_continue+0x2a>
200011d6:	2301      	movs	r3, #1
200011d8:	2500      	movs	r5, #0
200011da:	7723      	strb	r3, [r4, #28]
200011dc:	e7f4      	b.n	200011c8 <hw_endpoint_xfer_continue+0x14>
200011de:	0020      	movs	r0, r4
200011e0:	f7ff ffb2 	bl	20001148 <hw_endpoint_start_next_buffer>
200011e4:	e7f0      	b.n	200011c8 <hw_endpoint_xfer_continue+0x14>
200011e6:	227f      	movs	r2, #127	; 0x7f
200011e8:	7881      	ldrb	r1, [r0, #2]
200011ea:	4804      	ldr	r0, [pc, #16]	; (200011fc <hw_endpoint_xfer_continue+0x48>)
200011ec:	09cb      	lsrs	r3, r1, #7
200011ee:	4011      	ands	r1, r2
200011f0:	4a03      	ldr	r2, [pc, #12]	; (20001200 <hw_endpoint_xfer_continue+0x4c>)
200011f2:	009b      	lsls	r3, r3, #2
200011f4:	589a      	ldr	r2, [r3, r2]
200011f6:	f000 f8cf 	bl	20001398 <__panic_veneer>
200011fa:	46c0      	nop			; (mov r8, r8)
200011fc:	100048f0 	.word	0x100048f0
20001200:	20001528 	.word	0x20001528

20001204 <dcd_event_handler>:
20001204:	b5f0      	push	{r4, r5, r6, r7, lr}
20001206:	7843      	ldrb	r3, [r0, #1]
20001208:	0005      	movs	r5, r0
2000120a:	b085      	sub	sp, #20
2000120c:	2b04      	cmp	r3, #4
2000120e:	d100      	bne.n	20001212 <dcd_event_handler+0xe>
20001210:	e075      	b.n	200012fe <dcd_event_handler+0xfa>
20001212:	d846      	bhi.n	200012a2 <dcd_event_handler+0x9e>
20001214:	2b02      	cmp	r3, #2
20001216:	d100      	bne.n	2000121a <dcd_event_handler+0x16>
20001218:	e083      	b.n	20001322 <dcd_event_handler+0x11e>
2000121a:	2b03      	cmp	r3, #3
2000121c:	d155      	bne.n	200012ca <dcd_event_handler+0xc6>
2000121e:	4e50      	ldr	r6, [pc, #320]	; (20001360 <dcd_event_handler+0x15c>)
20001220:	4a50      	ldr	r2, [pc, #320]	; (20001364 <dcd_event_handler+0x160>)
20001222:	2400      	movs	r4, #0
20001224:	7833      	ldrb	r3, [r6, #0]
20001226:	2a00      	cmp	r2, #0
20001228:	d100      	bne.n	2000122c <dcd_event_handler+0x28>
2000122a:	e092      	b.n	20001352 <dcd_event_handler+0x14e>
2000122c:	4f4e      	ldr	r7, [pc, #312]	; (20001368 <dcd_event_handler+0x164>)
2000122e:	e003      	b.n	20001238 <dcd_event_handler+0x34>
20001230:	3401      	adds	r4, #1
20001232:	b2e4      	uxtb	r4, r4
20001234:	429c      	cmp	r4, r3
20001236:	d814      	bhi.n	20001262 <dcd_event_handler+0x5e>
20001238:	42a3      	cmp	r3, r4
2000123a:	d9f9      	bls.n	20001230 <dcd_event_handler+0x2c>
2000123c:	6839      	ldr	r1, [r7, #0]
2000123e:	0062      	lsls	r2, r4, #1
20001240:	468c      	mov	ip, r1
20001242:	1912      	adds	r2, r2, r4
20001244:	00d2      	lsls	r2, r2, #3
20001246:	4462      	add	r2, ip
20001248:	2a00      	cmp	r2, #0
2000124a:	d0f1      	beq.n	20001230 <dcd_event_handler+0x2c>
2000124c:	6952      	ldr	r2, [r2, #20]
2000124e:	2a00      	cmp	r2, #0
20001250:	d0ee      	beq.n	20001230 <dcd_event_handler+0x2c>
20001252:	7828      	ldrb	r0, [r5, #0]
20001254:	6869      	ldr	r1, [r5, #4]
20001256:	4790      	blx	r2
20001258:	3401      	adds	r4, #1
2000125a:	7833      	ldrb	r3, [r6, #0]
2000125c:	b2e4      	uxtb	r4, r4
2000125e:	429c      	cmp	r4, r3
20001260:	d9ea      	bls.n	20001238 <dcd_event_handler+0x34>
20001262:	4b42      	ldr	r3, [pc, #264]	; (2000136c <dcd_event_handler+0x168>)
20001264:	781a      	ldrb	r2, [r3, #0]
20001266:	0752      	lsls	r2, r2, #29
20001268:	d547      	bpl.n	200012fa <dcd_event_handler+0xf6>
2000126a:	2104      	movs	r1, #4
2000126c:	781a      	ldrb	r2, [r3, #0]
2000126e:	a801      	add	r0, sp, #4
20001270:	438a      	bics	r2, r1
20001272:	701a      	strb	r2, [r3, #0]
20001274:	2100      	movs	r1, #0
20001276:	220c      	movs	r2, #12
20001278:	f000 f8ae 	bl	200013d8 <____wrap_memset_veneer>
2000127c:	466a      	mov	r2, sp
2000127e:	782b      	ldrb	r3, [r5, #0]
20001280:	7113      	strb	r3, [r2, #4]
20001282:	2305      	movs	r3, #5
20001284:	7153      	strb	r3, [r2, #5]
20001286:	4b3a      	ldr	r3, [pc, #232]	; (20001370 <dcd_event_handler+0x16c>)
20001288:	681c      	ldr	r4, [r3, #0]
2000128a:	6962      	ldr	r2, [r4, #20]
2000128c:	f3ef 8110 	mrs	r1, PRIMASK
20001290:	b672      	cpsid	i
20001292:	6813      	ldr	r3, [r2, #0]
20001294:	2b00      	cmp	r3, #0
20001296:	d0fc      	beq.n	20001292 <dcd_event_handler+0x8e>
20001298:	f3bf 8f5f 	dmb	sy
2000129c:	61a1      	str	r1, [r4, #24]
2000129e:	a901      	add	r1, sp, #4
200012a0:	e020      	b.n	200012e4 <dcd_event_handler+0xe0>
200012a2:	2b05      	cmp	r3, #5
200012a4:	d111      	bne.n	200012ca <dcd_event_handler+0xc6>
200012a6:	4b31      	ldr	r3, [pc, #196]	; (2000136c <dcd_event_handler+0x168>)
200012a8:	781a      	ldrb	r2, [r3, #0]
200012aa:	07d2      	lsls	r2, r2, #31
200012ac:	d525      	bpl.n	200012fa <dcd_event_handler+0xf6>
200012ae:	2104      	movs	r1, #4
200012b0:	781a      	ldrb	r2, [r3, #0]
200012b2:	438a      	bics	r2, r1
200012b4:	701a      	strb	r2, [r3, #0]
200012b6:	4b2e      	ldr	r3, [pc, #184]	; (20001370 <dcd_event_handler+0x16c>)
200012b8:	681c      	ldr	r4, [r3, #0]
200012ba:	6962      	ldr	r2, [r4, #20]
200012bc:	f3ef 8110 	mrs	r1, PRIMASK
200012c0:	b672      	cpsid	i
200012c2:	6813      	ldr	r3, [r2, #0]
200012c4:	2b00      	cmp	r3, #0
200012c6:	d109      	bne.n	200012dc <dcd_event_handler+0xd8>
200012c8:	e7fb      	b.n	200012c2 <dcd_event_handler+0xbe>
200012ca:	4b29      	ldr	r3, [pc, #164]	; (20001370 <dcd_event_handler+0x16c>)
200012cc:	681c      	ldr	r4, [r3, #0]
200012ce:	6962      	ldr	r2, [r4, #20]
200012d0:	f3ef 8110 	mrs	r1, PRIMASK
200012d4:	b672      	cpsid	i
200012d6:	6813      	ldr	r3, [r2, #0]
200012d8:	2b00      	cmp	r3, #0
200012da:	d0fc      	beq.n	200012d6 <dcd_event_handler+0xd2>
200012dc:	f3bf 8f5f 	dmb	sy
200012e0:	61a1      	str	r1, [r4, #24]
200012e2:	0029      	movs	r1, r5
200012e4:	0020      	movs	r0, r4
200012e6:	f000 f89f 	bl	20001428 <__tu_fifo_write_veneer>
200012ea:	6962      	ldr	r2, [r4, #20]
200012ec:	69a3      	ldr	r3, [r4, #24]
200012ee:	f3bf 8f5f 	dmb	sy
200012f2:	2100      	movs	r1, #0
200012f4:	6011      	str	r1, [r2, #0]
200012f6:	f383 8810 	msr	PRIMASK, r3
200012fa:	b005      	add	sp, #20
200012fc:	bdf0      	pop	{r4, r5, r6, r7, pc}
200012fe:	4b1b      	ldr	r3, [pc, #108]	; (2000136c <dcd_event_handler+0x168>)
20001300:	781a      	ldrb	r2, [r3, #0]
20001302:	07d2      	lsls	r2, r2, #31
20001304:	d5f9      	bpl.n	200012fa <dcd_event_handler+0xf6>
20001306:	2104      	movs	r1, #4
20001308:	781a      	ldrb	r2, [r3, #0]
2000130a:	430a      	orrs	r2, r1
2000130c:	701a      	strb	r2, [r3, #0]
2000130e:	4b18      	ldr	r3, [pc, #96]	; (20001370 <dcd_event_handler+0x16c>)
20001310:	681c      	ldr	r4, [r3, #0]
20001312:	6962      	ldr	r2, [r4, #20]
20001314:	f3ef 8110 	mrs	r1, PRIMASK
20001318:	b672      	cpsid	i
2000131a:	6813      	ldr	r3, [r2, #0]
2000131c:	2b00      	cmp	r3, #0
2000131e:	d1dd      	bne.n	200012dc <dcd_event_handler+0xd8>
20001320:	e7fb      	b.n	2000131a <dcd_event_handler+0x116>
20001322:	2001      	movs	r0, #1
20001324:	4a11      	ldr	r2, [pc, #68]	; (2000136c <dcd_event_handler+0x168>)
20001326:	7811      	ldrb	r1, [r2, #0]
20001328:	4381      	bics	r1, r0
2000132a:	7011      	strb	r1, [r2, #0]
2000132c:	7811      	ldrb	r1, [r2, #0]
2000132e:	4399      	bics	r1, r3
20001330:	2300      	movs	r3, #0
20001332:	7011      	strb	r1, [r2, #0]
20001334:	2104      	movs	r1, #4
20001336:	7053      	strb	r3, [r2, #1]
20001338:	7813      	ldrb	r3, [r2, #0]
2000133a:	438b      	bics	r3, r1
2000133c:	7013      	strb	r3, [r2, #0]
2000133e:	4b0c      	ldr	r3, [pc, #48]	; (20001370 <dcd_event_handler+0x16c>)
20001340:	681c      	ldr	r4, [r3, #0]
20001342:	6962      	ldr	r2, [r4, #20]
20001344:	f3ef 8110 	mrs	r1, PRIMASK
20001348:	b672      	cpsid	i
2000134a:	6813      	ldr	r3, [r2, #0]
2000134c:	2b00      	cmp	r3, #0
2000134e:	d1c5      	bne.n	200012dc <dcd_event_handler+0xd8>
20001350:	e7fb      	b.n	2000134a <dcd_event_handler+0x146>
20001352:	2200      	movs	r2, #0
20001354:	3201      	adds	r2, #1
20001356:	b2d2      	uxtb	r2, r2
20001358:	429a      	cmp	r2, r3
2000135a:	d9fb      	bls.n	20001354 <dcd_event_handler+0x150>
2000135c:	e781      	b.n	20001262 <dcd_event_handler+0x5e>
2000135e:	46c0      	nop			; (mov r8, r8)
20001360:	20001f16 	.word	0x20001f16
20001364:	00000000 	.word	0x00000000
20001368:	20001694 	.word	0x20001694
2000136c:	20001734 	.word	0x20001734
20001370:	2000178c 	.word	0x2000178c

20001374 <__aeabi_idiv0>:
20001374:	4770      	bx	lr
20001376:	46c0      	nop			; (mov r8, r8)

20001378 <__pio_sm_init_veneer>:
20001378:	b401      	push	{r0}
2000137a:	4802      	ldr	r0, [pc, #8]	; (20001384 <__pio_sm_init_veneer+0xc>)
2000137c:	4684      	mov	ip, r0
2000137e:	bc01      	pop	{r0}
20001380:	4760      	bx	ip
20001382:	bf00      	nop
20001384:	10002b15 	.word	0x10002b15

20001388 <____wrap___aeabi_lmul_veneer>:
20001388:	b401      	push	{r0}
2000138a:	4802      	ldr	r0, [pc, #8]	; (20001394 <____wrap___aeabi_lmul_veneer+0xc>)
2000138c:	4684      	mov	ip, r0
2000138e:	bc01      	pop	{r0}
20001390:	4760      	bx	ip
20001392:	bf00      	nop
20001394:	10002435 	.word	0x10002435

20001398 <__panic_veneer>:
20001398:	b401      	push	{r0}
2000139a:	4802      	ldr	r0, [pc, #8]	; (200013a4 <__panic_veneer+0xc>)
2000139c:	4684      	mov	ip, r0
2000139e:	bc01      	pop	{r0}
200013a0:	4760      	bx	ip
200013a2:	bf00      	nop
200013a4:	10002209 	.word	0x10002209

200013a8 <__sleep_ms_veneer>:
200013a8:	b401      	push	{r0}
200013aa:	4802      	ldr	r0, [pc, #8]	; (200013b4 <__sleep_ms_veneer+0xc>)
200013ac:	4684      	mov	ip, r0
200013ae:	bc01      	pop	{r0}
200013b0:	4760      	bx	ip
200013b2:	bf00      	nop
200013b4:	10001541 	.word	0x10001541

200013b8 <__pio_add_program_veneer>:
200013b8:	b401      	push	{r0}
200013ba:	4802      	ldr	r0, [pc, #8]	; (200013c4 <__pio_add_program_veneer+0xc>)
200013bc:	4684      	mov	ip, r0
200013be:	bc01      	pop	{r0}
200013c0:	4760      	bx	ip
200013c2:	bf00      	nop
200013c4:	1000298d 	.word	0x1000298d

200013c8 <__pio_sm_set_pindirs_with_mask_veneer>:
200013c8:	b401      	push	{r0}
200013ca:	4802      	ldr	r0, [pc, #8]	; (200013d4 <__pio_sm_set_pindirs_with_mask_veneer+0xc>)
200013cc:	4684      	mov	ip, r0
200013ce:	bc01      	pop	{r0}
200013d0:	4760      	bx	ip
200013d2:	bf00      	nop
200013d4:	10002a71 	.word	0x10002a71

200013d8 <____wrap_memset_veneer>:
200013d8:	b401      	push	{r0}
200013da:	4802      	ldr	r0, [pc, #8]	; (200013e4 <____wrap_memset_veneer+0xc>)
200013dc:	4684      	mov	ip, r0
200013de:	bc01      	pop	{r0}
200013e0:	4760      	bx	ip
200013e2:	bf00      	nop
200013e4:	10002509 	.word	0x10002509

200013e8 <__time_us_64_veneer>:
200013e8:	b401      	push	{r0}
200013ea:	4802      	ldr	r0, [pc, #8]	; (200013f4 <__time_us_64_veneer+0xc>)
200013ec:	4684      	mov	ip, r0
200013ee:	bc01      	pop	{r0}
200013f0:	4760      	bx	ip
200013f2:	bf00      	nop
200013f4:	100016a9 	.word	0x100016a9

200013f8 <__gpio_set_function_veneer>:
200013f8:	b401      	push	{r0}
200013fa:	4802      	ldr	r0, [pc, #8]	; (20001404 <__gpio_set_function_veneer+0xc>)
200013fc:	4684      	mov	ip, r0
200013fe:	bc01      	pop	{r0}
20001400:	4760      	bx	ip
20001402:	bf00      	nop
20001404:	100007bd 	.word	0x100007bd

20001408 <____wrap_memcpy_veneer>:
20001408:	b401      	push	{r0}
2000140a:	4802      	ldr	r0, [pc, #8]	; (20001414 <____wrap_memcpy_veneer+0xc>)
2000140c:	4684      	mov	ip, r0
2000140e:	bc01      	pop	{r0}
20001410:	4760      	bx	ip
20001412:	bf00      	nop
20001414:	10002515 	.word	0x10002515

20001418 <__best_effort_wfe_or_timeout_veneer>:
20001418:	b401      	push	{r0}
2000141a:	4802      	ldr	r0, [pc, #8]	; (20001424 <__best_effort_wfe_or_timeout_veneer+0xc>)
2000141c:	4684      	mov	ip, r0
2000141e:	bc01      	pop	{r0}
20001420:	4760      	bx	ip
20001422:	bf00      	nop
20001424:	10001575 	.word	0x10001575

20001428 <__tu_fifo_write_veneer>:
20001428:	b401      	push	{r0}
2000142a:	4802      	ldr	r0, [pc, #8]	; (20001434 <__tu_fifo_write_veneer+0xc>)
2000142c:	4684      	mov	ip, r0
2000142e:	bc01      	pop	{r0}
20001430:	4760      	bx	ip
20001432:	bf00      	nop
20001434:	10004319 	.word	0x10004319

20001438 <__dma_init_veneer>:
20001438:	b401      	push	{r0}
2000143a:	4802      	ldr	r0, [pc, #8]	; (20001444 <__dma_init_veneer+0xc>)
2000143c:	4684      	mov	ip, r0
2000143e:	bc01      	pop	{r0}
20001440:	4760      	bx	ip
20001442:	bf00      	nop
20001444:	10000439 	.word	0x10000439

20001448 <jtag>:
20001448:	50200000 00000000 00000000 00000000     .. P............
	...

20001468 <tx_dma_chan>:
20001468:	ffffffff                                ....

2000146c <string_desc_arr>:
2000146c:	100046f4 100046dc 100046ec 20002030     .F...F...F..0 . 

2000147c <striped_spin_lock_num>:
2000147c:	00000010                                ....

20001480 <irq_handler_chain_slots>:
20001480:	00000000 	.word	0x00000000
20001484:	00010000 	.word	0x00010000
	...
20001490:	00020000 	.word	0x00020000
	...
2000149c:	00030000 	.word	0x00030000
	...
200014a8:	00ff0000 	.word	0x00ff0000
200014ac:	00000000 	.word	0x00000000

200014b0 <irq_handler_chain_first_slot>:
200014b0:	b501      	push	{r0, lr}
200014b2:	6848      	ldr	r0, [r1, #4]
200014b4:	3101      	adds	r1, #1
200014b6:	468e      	mov	lr, r1
200014b8:	4700      	bx	r0

200014ba <irq_handler_chain_remove_tail>:
200014ba:	4670      	mov	r0, lr
200014bc:	3809      	subs	r0, #9
200014be:	4901      	ldr	r1, [pc, #4]	; (200014c4 <irq_handler_chain_remove_tail+0xa>)
200014c0:	4788      	blx	r1
200014c2:	bd01      	pop	{r0, pc}
200014c4:	10000db1 	.word	0x10000db1

200014c8 <default_alarm_pool>:
200014c8:	200014e0 00000000 20001578 20001a58     ... ....x.. X.. 
	...

200014e0 <default_alarm_pool_heap>:
200014e0:	20001a68 00000000 00000000 00000010     h.. ............

200014f0 <aeabi_bits_funcs>:
200014f0:	00003350 	.word	0x00003350
200014f4:	0000334c 	.word	0x0000334c
200014f8:	00003354 	.word	0x00003354
200014fc:	00003352 	.word	0x00003352

20001500 <aeabi_bits_funcs_end>:
20001500:	0000534d 	.word	0x0000534d
20001504:	0000434d 	.word	0x0000434d
20001508:	00003453 	.word	0x00003453
2000150c:	00003443 	.word	0x00003443

20001510 <stdio_uart>:
20001510:	100027cd 00000000 10002819 100028c5     .'.......(...(..
20001520:	00000000 00000100                       ........

20001528 <ep_dir_string>:
20001528:	1000491c 10004920                       .I.. I..

20001530 <_usbd_qdef>:
20001530:	20002248 000c0010 00000000 00000000     H". ............
	...

2000154c <_usbd_rhport>:
2000154c:	000000ff                                ....

20001550 <malloc_mutex>:
	...

20001558 <print_mutex>:
	...

20001560 <__mutex_array_end>:
20001560:	100024f9 	.word	0x100024f9
20001564:	10002285 	.word	0x10002285
20001568:	10002349 	.word	0x10002349
2000156c:	10002469 	.word	0x10002469

20001570 <__frame_dummy_init_array_entry>:
20001570:	10000331 10002cd1                       1....,..
